(dp1
(S'got'
p2
S'into'
p3
tp4
F2
s(S'the'
S'Terrace'
p5
tp6
F2.9999999999999996
s(S'much'
p7
S'money'
p8
tp9
F2
s(S'care'
p10
S'about'
p11
tp12
F5
s(S'were'
S'jumping'
p13
tp14
F2
s(S'what'
p15
S'happened'
p16
tp17
F2.9999999999999996
s(S'you'
p18
S'have'
p19
tp20
F11
s(S'he'
p21
S'like?"'
p22
tp23
F2
s(S'How'
p24
S'do'
p25
tp26
F2
s(S'he'
S'held'
p27
tp28
F4
s(S'hear'
p29
S'him'
p30
tp31
F2
s(S'and'
p32
S'showed'
p33
tp34
F2.9999999999999996
s(S'the'
S'Rotonde.'
p35
tp36
F2
s(S'it\x92s'
p37
S'perfectly'
p38
tp39
F4
s(S'"No,'
p40
S'why'
tp41
F2
s(S'I'
S"don't"
p42
tp43
F9
s(S'on'
p44
S'a'
tp45
F17
s(S'could'
p46
S'have'
tp47
F5
s(S'and'
S'about'
p48
tp49
F2
s(S'have'
S'known'
p50
tp51
F2.9999999999999996
s(S'to'
S'live'
tp52
F2.9999999999999996
s(S'a'
S'few'
p53
tp54
F2.9999999999999996
s(S'the'
S'cave.'
p55
tp56
F2.9999999999999996
s(S'looked'
p57
S'like'
p58
tp59
F2.9999999999999996
s(S'hooked'
p60
S'the'
tp61
F2
s(S'got'
S'out'
tp62
F4
s(S'water'
S'but'
p63
tp64
F2
s(S'the'
S'heavy'
p65
tp66
F7
s(S'want'
S'you'
tp67
F5.9999999999999991
s(S'for'
p68
S'it.'
tp69
F2.9999999999999996
s(S'But'
p70
S'it'
tp71
F5.9999999999999991
s(S'taken'
S'it'
p72
tp73
F2
s(S'like'
S'this'
p74
tp75
F2.9999999999999996
s(S'\x93It'
p76
S'was'
p77
tp78
F2.9999999999999996
s(S'girl'
S'looked'
tp79
F5.9999999999999991
s(S'looked'
S'up'
tp80
F2.9999999999999996
s(S'They'
p81
S'came'
tp82
F2.9999999999999996
s(S'thou'
p83
S'a'
tp84
F2.9999999999999996
s(S'They'
p85
S'were'
p86
tp87
F18
s(S'could'
S'get'
p88
tp89
F2
s(S'there,"'
p90
S'I'
tp91
F2
s(S'The'
p92
S'bird'
p93
tp94
F4
s(S'going'
p95
S'to'
p96
tp97
F35
s(S'no'
p98
S'one,"'
p99
tp100
F2
s(S'horses'
S'all'
p101
tp102
F2
s(S'and'
p103
S'that'
p104
tp105
F11.999999999999998
s(S'let'
p106
S'me'
p107
tp108
F2
s(S'many'
p109
S'men'
p110
tp111
F7
s(S'beside'
p112
S'the'
tp113
F8
s(S'water.'
S'The'
p114
tp115
F5
s(S'this'
p116
S'side'
p117
tp118
F2
s(S'I'
S'thought'
p119
tp120
F2.9999999999999996
s(S'would'
p121
S'like'
p122
tp123
F5.9999999999999991
s(S'string'
p124
S'of'
p125
tp126
F2
s(S'the'
p127
S'deep'
p128
tp129
F2
s(S'night'
S'before'
p130
tp131
F2
s(S'said.'
S'"There'
p132
tp133
F2.9999999999999996
s(S'then'
S'the'
tp134
F2
s(S'put'
p135
S'her'
p136
tp137
F4
s(S'things'
p138
S'I'
tp139
F2
s(S'were'
S'five'
p140
tp141
F2
s(S'"I\'ve'
p142
S'been'
tp143
F2.9999999999999996
s(S'\x93I'
p144
S'think'
p145
tp146
F4
s(S'the'
S'train.'
p147
tp148
F5
s(S'him'
p149
S'all'
p150
tp151
F2
s(S'I'
S'say,'
p152
tp153
F2.9999999999999996
s(S'it'
p154
S'out'
p155
tp156
F2.9999999999999996
s(S'something'
p157
S'like'
p158
tp159
F2.9999999999999996
s(S'one'
p160
S'had'
p161
tp162
F4
s(S'difference'
S'with'
tp163
F2
s(S'room'
p164
S'and'
tp165
F2
s(S'his'
p166
S'way'
p167
tp168
F2.9999999999999996
s(S'said.'
S'\x93I\x92ll'
p169
tp170
F2.9999999999999996
s(S'and'
p171
S'flying'
p172
tp173
F2
s(S'would'
p174
S'shiver'
p175
tp176
F2
s(S'and'
S'over'
tp177
F2
s(S'the'
S'rebound'
p178
tp179
F2
s(S'did'
S'she'
p180
tp181
F2
s(S'novel,'
p182
S'and'
tp183
F2
s(S'iron'
p184
S'dish.'
p185
tp186
F2
s(S'he'
p187
S'told'
p188
tp189
F4
s(S'and'
p190
S'struck'
p191
tp192
F2
s(S'of'
p193
S'line'
p194
tp195
F4
s(S'the'
S'lion,\x94'
tp196
F2.9999999999999996
s(S'a'
S'strong'
p197
tp198
F2
s(S'while'
p199
S'they'
tp200
F2
s(S'No'
p201
S'one'
p202
tp203
F4
s(S'for'
p204
S'her'
p205
tp206
F2
s(S'had'
p207
S'the'
p208
tp209
F9
s(S'study'
p210
S'it'
tp211
F2
s(S'though'
S'it'
tp212
F2
s(S'The'
p213
S'woman'
p214
tp215
F2.9999999999999996
s(S'to'
p216
S'die.'
p217
tp218
F2
s(S'with'
p219
S'one'
tp220
F4
s(S'came'
S'into'
tp221
F2.9999999999999996
s(S'Brett'
p222
S'came'
tp223
F2.9999999999999996
s(S'his'
S'arm'
p224
tp225
F5
s(S'and'
p226
S'ate'
p227
tp228
F2.9999999999999996
s(S'His'
p229
S'shirt'
p230
tp231
F2
s(S'have'
S'made'
tp232
F2
s(S'see'
S'it'
tp233
F4
s(S'did'
p234
S'not'
p235
tp236
F39
s(S'get'
p237
S'the'
p238
tp239
F5.9999999999999991
s(S'the'
S'harpoon'
p240
tp241
F2.9999999999999996
s(S'the'
p242
S'bridge.'
p243
tp244
F2.9999999999999996
s(S'"No,"'
p245
S'I'
tp246
F5
s(S'tall'
S'grass'
tp247
F2.9999999999999996
s(S'it,"'
p248
S'she'
tp249
F2
s(S'that'
S'no'
p250
tp251
F2
s(S'over'
p252
S'in'
p253
tp254
F2.9999999999999996
s(S'which'
p255
S'is'
p256
tp257
F4
s(S'he'
S'came'
tp258
F5
s(S'"Will'
p259
S'you'
p260
tp261
F2.9999999999999996
s(S'the'
S'attack'
p262
tp263
F10
s(S'When'
p264
S'we'
tp265
F2
s(S'You'
p266
S'can'
tp267
F4
s(S'line'
S'against'
tp268
F2
s(S'said.'
S'"This'
p269
tp270
F2.9999999999999996
s(S'not'
S'get'
p271
tp272
F2
s(S'ready'
p273
S'to'
tp274
F2.9999999999999996
s(S'the'
p275
S'bird.'
p276
tp277
F2.9999999999999996
s(S'felt'
p278
S'pads.'
p279
tp280
F2
s(S'The'
p281
S'Boulevard'
p282
tp283
F2.9999999999999996
s(S'like'
p284
S'it'
p285
tp286
F2
s(S'the'
p287
S'gaff'
p288
tp289
F2
s(S'be'
p290
S'silly."'
p291
tp292
F2
s(S'I'
S'started'
tp293
F2.9999999999999996
s(S'up'
p294
S'because'
tp295
F2
s(S'get'
p296
S'into'
p297
tp298
F2
s(S'he'
S'does'
tp299
F2
s(S'Robert,"'
p300
S'I'
tp301
F2
s(S'sure'
p302
S'you'
tp303
F2
s(S'them'
p304
S'the'
tp305
F2
s(S'in'
S'love'
p306
tp307
F5
s(S'a'
S'hundred'
p308
tp309
F2
s(S'Indians'
p310
S'of'
p311
tp312
F2
s(S'take'
p313
S'the'
p314
tp315
F8
s(S'heard'
p316
S'of'
p317
tp318
F2
s(S'had'
S'hooked'
p319
tp320
F2
s(S'or'
p321
S'even'
p322
tp323
F2
s(S'and'
p324
S'rowed'
p325
tp326
F2
s(S'and'
p327
S'to'
p328
tp329
F10
s(S'and'
S'lost'
p330
tp331
F2
s(S'his'
S'tail'
p332
tp333
F2
s(S'sometimes'
S'they'
tp334
F2
s(S'are'
p335
S'like'
p336
tp337
F2.9999999999999996
s(S'him,'
p338
S'he'
tp339
F2
s(S'At'
p340
S'that'
p341
tp342
F2
s(S'America'
p343
S'with'
tp344
F2
s(S'that'
p345
S'were'
p346
tp347
F8
s(S'for'
p348
S'us'
p349
tp350
F2
s(S'were'
S'going'
p351
tp352
F2.9999999999999996
s(g145
S'so.'
p353
tp354
F2
s(S'wanting'
p355
S'to'
tp356
F2
s(S'probably'
p357
S'have'
p358
tp359
F2
s(S'yes.'
p360
S'To'
p361
tp362
F2.9999999999999996
s(S'had'
p363
S'dined'
p364
tp365
F2.9999999999999996
s(S'her'
S'again'
p366
tp367
F2
s(S'in'
p368
S'Spanish,'
p369
tp370
F2
s(S'to'
S'go?"'
p371
tp372
F2
s(S'so'
p373
S'many'
p374
tp375
F5
s(S'and'
p376
S'he'
p377
tp378
F106
s(S'importance'
p379
S'to'
p380
tp381
F2
s(S'boy'
S'and'
p382
tp383
F2
s(S'too'
p384
S'much'
tp385
F4
s(S'again.'
p386
S'\x93He\x92s'
p387
tp388
F2
s(S'through'
p389
S'his'
p390
tp391
F11
s(S'fish'
S'could'
tp392
F2
s(S'strings'
p393
S'of'
p394
tp395
F2
s(S'and'
S'drank'
tp396
F4
s(S'We'
p397
S'could'
tp398
F2.9999999999999996
s(S'and'
p399
S'would'
p400
tp401
F5
s(S'be'
p402
S'made'
p403
tp404
F2
s(S'Jordan'
S'drank'
p405
tp406
F2.9999999999999996
s(S'for'
p407
S'boxing,'
p408
tp409
F2
s(S'any'
p410
g160
tp411
F4
s(S'made'
p412
S'against'
tp413
F2
s(S'coffee'
p414
S'with'
p415
tp416
F2
s(S'said,'
p417
S'\x93I'
tp418
F4
s(S'said,'
p419
S'"why'
p420
tp421
F2
s(S'not'
S'see'
p422
tp423
F5.9999999999999991
s(S'him'
S'feel'
p424
tp425
F2.9999999999999996
s(S'no'
S'part'
tp426
F2
s(S'to'
p427
S'Robert'
p428
tp429
F9
s(S'The'
p430
S'street'
p431
tp432
F2.9999999999999996
s(g19
S'to'
p433
tp434
F18
s(S'a'
S'young'
p435
tp436
F2.9999999999999996
s(S'of'
S'us.'
p437
tp438
F2
s(S'"She'
p439
S'has'
tp440
F2
s(S'and'
S'well'
p441
tp442
F2
s(S'coiled'
p443
S'lines'
p444
tp445
F2
s(S'"Don\'t'
p446
S'talk'
tp447
F2.9999999999999996
s(S'the'
S'Pantheon'
p448
tp449
F2
s(S'waiter'
S'came'
tp450
F2
s(S'a'
S'boat.'
p451
tp452
F2
s(S'his'
p453
S'stomach'
p454
tp455
F2
s(S'you'
S'see'
p456
tp457
F4
s(S'come'
S'out'
p458
tp459
F2
s(S'neck,'
p460
S'her'
p461
tp462
F2
s(S'of'
p463
S'course,'
p464
tp465
F2.9999999999999996
s(S'\x93You\x92re'
S'not'
p466
tp467
F2
s(S'lay'
p468
S'in'
tp469
F2
s(S'came'
p470
S'in'
p471
tp472
F2.9999999999999996
s(S'said.'
S'"He\'s'
tp473
F2
s(S'only'
p474
S'the'
p475
tp476
F2.9999999999999996
s(S'you'
p477
S'know.\x94'
p478
tp479
F4
s(S'were'
S'at'
p480
tp481
F4
s(S'his'
p482
S'rifle,'
p483
tp484
F2
s(S'Brett'
p485
S'said.'
tp486
F9
s(S'so'
p487
S'much'
p488
tp489
F4
s(S'inside'
p490
S'the'
p491
tp492
F5
s(S'and'
S'she'
p493
tp494
F15
s(S'thought.'
p495
S'The'
p496
tp497
F2.9999999999999996
s(S'and'
S'tell'
tp498
F4
s(S'late'
p499
S'and'
p500
tp501
F2
s(S'must'
p502
S'be'
p503
tp504
F10
s(S'foreigner'
p505
S'with'
p506
tp507
F2
s(S'"No,'
p508
S'we'
p509
tp510
F2.9999999999999996
s(S'Jordan'
S'thought.'
tp511
F8
s(S'I'
S'do'
tp512
F14
s(S'must'
S'have'
p513
tp514
F14
s(S'in'
p515
S'all'
p516
tp517
F5.9999999999999991
s(S'proud'
p518
S'and'
p519
tp520
F2
s(S'to'
S'buy'
tp521
F2
s(S'the'
S'loose'
p522
tp523
F2
s(S'watching'
p524
S'them'
p525
tp526
F2
s(S'boy'
S'was'
tp527
F4
s(S'her'
p528
S'in'
p529
tp530
F2
s(S'listened'
p531
S'to'
tp532
F2
s(S'enough'
p533
S'so'
p534
tp535
F2
s(S'to'
S'Macomber,'
p536
tp537
F2
s(S'his'
S'neck'
p538
tp539
F2.9999999999999996
s(S'The'
p540
S'next'
p541
tp542
F2
s(S'the'
S'moon'
p543
tp544
F2
s(S'"What'
p545
S'about?"'
p546
tp547
F2
s(S'She'
p548
S'likes'
p549
tp550
F2
s(S'was'
S'as'
p551
tp552
F5.9999999999999991
s(S'dining'
p553
S'tent'
p554
tp555
F2.9999999999999996
s(S'onions'
p556
S'and'
tp557
F2
s(S'had'
S'started'
p558
tp559
F2
s(S'But'
S'that'
tp560
F2
s(S'day'
p561
S'and'
tp562
F2
s(S'and'
S'for'
tp563
F2.9999999999999996
s(S'Poor'
p564
S'old'
p565
tp566
F2
s(S'with'
p567
S'two'
p568
tp569
F2.9999999999999996
s(S'as'
S'his'
p570
tp571
F2.9999999999999996
s(S'filaments'
p572
S'and'
p573
tp574
F2
s(g86
S'as'
p575
tp576
F2
s(S'the'
S'ocean'
p577
tp578
F4
s(S'up'
p579
S'on'
p580
tp581
F5
s(S'was'
S'really'
p582
tp583
F2.9999999999999996
s(S'ask'
S'him'
tp584
F2
s(S'too'
p585
S'many'
tp586
F5
s(S'you'
p587
S'and'
p588
tp589
F4
s(S'and'
S'not'
p590
tp591
F8
s(S'are'
p592
S'your'
p593
tp594
F2
s(S'onto'
p595
S'his'
p596
tp597
F2.9999999999999996
s(S'because'
p598
S'I\x92m'
p599
tp600
F2
s(S'pile'
p601
S'of'
p602
tp603
F2
s(S'the'
S'taxi'
p604
tp605
F2
s(S'out'
p606
S'before'
p607
tp608
F2
s(S'man'
S'was'
p609
tp610
F14
s(S'the'
S'pine'
p611
tp612
F2.9999999999999996
s(S'neck'
p613
S'was'
p614
tp615
F2
s(S'to'
S'come'
tp616
F9
s(S'Or'
p617
S'is'
p618
tp619
F2
s(S'of'
p620
S'these'
p621
tp622
F2.9999999999999996
s(S'wolf'
p623
S'than'
p624
tp625
F2
s(S'his'
S'left'
p626
tp627
F2.9999999999999996
s(S'the'
S'road'
p628
tp629
F7
s(S'a'
S'big'
p630
tp631
F9
s(S'for'
p632
S'anything,\x94'
p633
tp634
F2
s(S'made'
p635
S'the'
tp636
F4
s(S'"Of'
p637
S'no'
tp638
F2
s(S'that'
p639
S'night'
p640
tp641
F2
s(S'said'
p642
S'good'
p643
tp644
F2
s(S'"It\'s'
p645
S'a'
tp646
F2.9999999999999996
s(S'Do'
p647
S'not'
p648
tp649
F2
s(S'that'
p650
S'and'
tp651
F2.9999999999999996
s(S'carefully'
p652
S'as'
p653
tp654
F2
s(S'are'
S'still'
tp655
F2
s(S'when'
p656
S'the'
p657
tp658
F18
s(S'to'
p659
S'blow'
p660
tp661
F4
s(S'the'
S'strength'
p662
tp663
F2
s(S'might'
p664
S'have'
p665
tp666
F2.9999999999999996
s(S'said'
S'Georgette.'
p667
tp668
F2
s(S'and'
p669
S'had'
p670
tp671
F11
s(S'say'
p672
S'that'
p673
tp674
F2
s(S'Then'
p675
S'the'
tp676
F2
s(S'my'
p677
S'alarm'
p678
tp679
F2
s(S'waiter'
p680
S'went'
p681
tp682
F2
s(S'coming'
p683
S'back'
p684
tp685
F2
s(S'boy'
S'came'
p686
tp687
F2
s(S'"And'
p688
S'how'
p689
tp690
F2
s(S'the'
S'thwart'
p691
tp692
F2
s(S'"What'
p693
S'are'
tp694
F2
s(S'know.'
p695
S'I'
tp696
F2.9999999999999996
s(S'and'
S'leaned'
p697
tp698
F2
s(S'too,'
p699
S'I'
tp700
F2
s(S'a'
S'new'
p701
tp702
F2.9999999999999996
s(S'think'
p703
S'of'
p704
tp705
F5
s(S'his'
p706
S'face.'
p707
tp708
F2.9999999999999996
s(S'the'
S'pencil.'
p709
tp710
F2
s(S'went'
p711
S'out'
tp712
F7
s(S'"I'
p713
S'was'
p714
tp715
F2.9999999999999996
s(S'fifty'
p716
S'thousand'
tp717
F2
s(S'him.'
S'"Thou'
p718
tp719
F2
s(S'about'
p720
S'it,'
p721
tp722
F2
s(S'Jordan'
S'was'
p723
tp724
F2
s(S'settled'
p725
S'the'
p726
tp727
F2
s(S'would'
p728
S'come'
tp729
F2.9999999999999996
s(S'\x93What'
p730
S'do'
p731
tp732
F2
s(S'one'
p733
S'hundred'
p734
tp735
F2.9999999999999996
s(S'the'
S'dark,'
p736
tp737
F2.9999999999999996
s(S'man'
S'can'
p738
tp739
F2
s(S'that'
p740
S'sort'
tp741
F2
s(S'said.'
S'His'
p742
tp743
F2.9999999999999996
s(S'beautiful.'
p744
S'But'
p745
tp746
F2
s(S'could'
p747
S'just'
p748
tp749
F2
s(S'He'
S'looked'
p750
tp751
F11
s(S'men'
p752
S'have'
p753
tp754
F2
s(S'and'
p755
S'we'
tp756
F11
s(S'happens'
p757
S'to'
p758
tp759
F4
s(S'current'
p760
S'and'
tp761
F2.9999999999999996
s(S'he'
p762
S'watched'
tp763
F2.9999999999999996
s(S'steadily'
p764
S'toward'
p765
tp766
F2
s(S'old'
p767
S'man.\x94'
p768
tp769
F2
s(S'and'
S'my'
p770
tp771
F2.9999999999999996
s(S'was'
S'tall'
p772
tp773
F2
s(S'the'
p774
S'lines'
p775
tp776
F5
s(S'it'
p777
S'and'
tp778
F16
s(S'off'
p779
S'and'
p780
tp781
F2.9999999999999996
s(S'and'
p782
S'again'
tp783
F2
s(S'The'
p784
S'girl'
p785
tp786
F13
s(S'was'
g683
tp787
F2.9999999999999996
s(S'will'
p788
S'I'
tp789
F2
s(S'will'
S'pick'
p790
tp791
F2
s(S'more'
p792
S'to'
tp793
F2
s(S'their'
p794
S'eyes'
tp795
F2
s(S'find'
p796
S'it'
tp797
F2
s(S'In'
p798
S'the'
p799
tp800
F11
s(S'on'
p801
S'into'
tp802
F2
s(S'he'
p803
S'thought.'
p804
tp805
F33
s(S'make'
p806
S'any'
p807
tp808
F5
s(S'Pablo.'
p809
S'"You'
tp810
F2
s(S'their'
p811
S'heads'
p812
tp813
F2.9999999999999996
s(S'book'
p814
S'with'
tp815
F2
s(S'and'
p816
S'one'
tp817
F2
s(S'now'
p818
S'that'
tp819
F4
s(S'I'
S"couldn't"
p820
tp821
F2.9999999999999996
s(S'name'
p822
S'had'
p823
tp824
F2
s(S'Wilson'
p825
S'told'
tp826
F5.9999999999999991
s(S'and'
S'leaping'
p827
tp828
F2
s(S'the'
S'trees.'
p829
tp830
F4
s(S'larger'
p831
S'and'
p832
tp833
F2
s(S'got'
p834
S'a'
tp835
F2
s(S'be'
S'for'
p836
tp837
F2
s(S'set'
p838
S'him'
p839
tp840
F2
s(S'could'
S'tell'
p841
tp842
F2
s(S'do'
p843
S'if'
tp844
F2
s(S'a'
S'great'
p845
tp846
F15
s(S'all'
p847
S'to'
tp848
F2
s(S'rapidly'
p849
S'and'
p850
tp851
F2
s(S'blow'
p852
S'bridges'
p853
tp854
F2
s(S'do'
p855
S'not'
tp856
F19
s(S'as'
p857
S'they'
p858
tp859
F14
s(S'as'
p860
S'well'
p861
tp862
F7
s(S'weather'
p863
S'and'
p864
tp865
F2
s(S'had'
S'given'
p866
tp867
F2
s(S'other'
S'things.'
p868
tp869
F2
s(S'had'
S'no'
p870
tp871
F4
s(S'open'
S'and'
tp872
F2
s(S'and'
p873
S'play'
p874
tp875
F2
s(S'that'
p876
S'wonderful'
p877
tp878
F2
s(S'box'
p879
S'and'
tp880
F2
s(S'leaned'
S'over'
tp881
F2
s(S'very'
p882
S'much.'
p883
tp884
F2
s(S'that'
p885
S'was'
p886
tp887
F13
s(S'that'
S'way'
tp888
F2
s(S'of'
S'not'
p889
tp890
F2
s(S'it.'
p891
S'I'
tp892
F8
s(S'was'
S'just'
p893
tp894
F5.9999999999999991
s(S'out'
p895
S'over'
p896
tp897
F2.9999999999999996
s(S'cafe'
S'and'
tp898
F2
s(S'the'
S'crowd'
p899
tp900
F2.9999999999999996
s(S'nothing'
S'to'
tp901
F2
s(S'about'
p902
S'as'
p903
tp904
F2
s(S'to'
p905
S'Georgette'
p906
tp907
F2
s(S'and'
p908
S'mine'
p909
tp910
F2
s(S'"I'
p911
S'will'
p912
tp913
F8
s(S'to'
p914
S'go.'
p915
tp916
F2
s(S'making'
p917
S'a'
tp918
F2.9999999999999996
s(S'"It'
p919
S"isn't"
p920
tp921
F2
s(S'eastward,'
p922
S'he'
tp923
F2
s(S'would'
p924
S'not'
tp925
F7
s(S'said,'
S'and'
tp926
F2
s(S'with'
S'me,'
tp927
F2
s(S'Macomber'
p928
S'saw'
tp929
F2
s(S'the'
S'pack,"'
p930
tp931
F2
s(S'smiled'
p932
S'at'
tp933
F8
s(S'all'
p934
S'right.'
tp935
F5
s(S'two'
S'in'
tp936
F2
s(S'realized'
p937
S'that'
tp938
F2.9999999999999996
s(S'to'
p939
S'himself,'
p940
tp941
F2
s(S'drinking'
p942
S'their'
p943
tp944
F2
s(S'"Yes,"'
p945
S'the'
p946
tp947
F2
s(S'Brett'
p948
S'had'
tp949
F2
s(S'it'
p950
S'will'
p951
tp952
F5.9999999999999991
s(S'took'
S'his'
tp953
F2
s(S'if'
p954
S'it'
p955
tp956
F5
s(S'been'
S'a'
tp957
F5.9999999999999991
s(S'it.'
p958
S'He'
p959
tp960
F2.9999999999999996
s(S'taking'
p961
S'the'
p962
tp963
F2
s(S'\x93But'
S'you'
p964
tp965
F2.9999999999999996
s(S'move'
S'behind'
tp966
F2
s(S'go'
p967
S'out'
p968
tp969
F2
s(S'man'
S'saw'
p970
tp971
F2
s(S'of'
S'two'
p972
tp973
F4
s(S'is'
S'gone.'
p974
tp975
F2
s(S'not'
p976
S'speaking,'
p977
tp978
F2
s(S'we'
p979
S'are'
tp980
F7
s(S'very'
p981
S'low'
p982
tp983
F2
s(S'to'
p984
S'do'
tp985
F17
s(S'gypsy'
S'told'
tp986
F2.9999999999999996
s(S'back'
p987
S'to'
tp988
F15
s(S'I'
S'hope'
p989
tp990
F2
s(S'two'
S'boulders'
p991
tp992
F2
s(S'the'
p993
S'river,'
p994
tp995
F2
s(S'the'
S'back'
p996
tp997
F9
s(S'the'
S'fox'
p998
tp999
F2
s(S'who'
p1000
S'is'
p1001
tp1002
F2
s(S'who'
p1003
S'wanted'
p1004
tp1005
F2
s(S'Then'
p1006
S'Wilson'
tp1007
F2
s(S'She'
p1008
g932
tp1009
F4
s(S'comes'
p1010
S'the'
p1011
tp1012
F2
s(S'had'
p1013
S'stayed'
p1014
tp1015
F2.9999999999999996
s(S'said.'
S'"We'
tp1016
F2
s(S'"Are'
p1017
S'you'
p1018
tp1019
F2
s(S'he'
p1020
S'walked'
p1021
tp1022
F2
s(S'back'
S'seat'
p1023
tp1024
F2
s(S'a'
S'beer'
p1025
tp1026
F2
s(S'and'
p1027
S'get'
tp1028
F5
s(S"I've"
p1029
S'got'
tp1030
F2.9999999999999996
s(S'their'
S'proper'
p1031
tp1032
F2
s(S'I'
g703
tp1033
F4
s(S'put'
p1034
S'them'
p1035
tp1036
F2.9999999999999996
s(S'which'
p1037
S'was'
tp1038
F2
s(S'old'
p1039
S'man'
p1040
tp1041
F132
s(S'a'
S'stretch'
p1042
tp1043
F2
s(S'looked'
p1044
S'for'
tp1045
F2
s(S'old'
S'man.'
p1046
tp1047
F4
s(S'and'
p1048
S'with'
tp1049
F5.9999999999999991
s(S'is'
p1050
S'very'
p1051
tp1052
F9
s(S'going'
p1053
S'by,'
p1054
tp1055
F2
s(S'back'
p1056
S'in'
tp1057
F5.9999999999999991
s(S'known'
p1058
S'as'
tp1059
F2
s(S'the'
S'pack.'
p1060
tp1061
F2
s(S'short'
S'and'
p1062
tp1063
F2
s(S'said.'
S'\x93How'
p1064
tp1065
F2
s(S'knew'
p1066
S'what'
tp1067
F2
s(S'it.\x94'
p1068
S'He'
tp1069
F2
s(S'to'
S'talk'
p1070
tp1071
F7
s(S'One'
p1072
S'was'
tp1073
F2
s(S'to'
S'have'
p1074
tp1075
F13
s(S'the'
S'door'
p1076
tp1077
F5
s(g745
S'she'
p1078
tp1079
F4
s(S'Wilson'
S'spoke'
p1080
tp1081
F2
s(S'the'
p1082
S"patronne's"
p1083
tp1084
F2
s(S'thought.'
S'But'
tp1085
F2.9999999999999996
s(S'he'
p1086
S'might'
p1087
tp1088
F2
s(S'daylight'
S'and'
tp1089
F2.9999999999999996
s(S'Now'
p1090
S'the'
p1091
tp1092
F2.9999999999999996
s(S'steal'
p1093
S'from'
tp1094
F2
s(S'coming'
p1095
S'down'
tp1096
F2.9999999999999996
s(S'the'
S'palm'
p1097
tp1098
F2
s(S'was'
S'hot'
p1099
tp1100
F2.9999999999999996
s(S'nice'
p1101
S'boy,'
tp1102
F2
s(S'not'
S'remember'
tp1103
F2
s(S'this'
S'man'
tp1104
F2
s(S'he'
p1105
S'heard'
p1106
tp1107
F9
s(S'big'
p1108
S'fish'
p1109
tp1110
F2.9999999999999996
s(g607
S'it'
p1111
tp1112
F2
s(S'then'
p1113
S'again,'
tp1114
F2
s(S'sat'
p1115
S'in'
tp1116
F2.9999999999999996
s(g609
S'now'
p1117
tp1118
F2.9999999999999996
s(S'them'
S'on.'
p1119
tp1120
F2
s(S'"But'
p1121
S'I'
tp1122
F2
s(S'again,'
g1113
tp1123
F2
s(S'time'
S'of'
p1124
tp1125
F2.9999999999999996
s(S'by'
p1126
S'the'
p1127
tp1128
F22
s(S'weight'
S'increased'
p1129
tp1130
F2
s(S'now'
p1131
S'by'
tp1132
F2.9999999999999996
s(S'How'
p1133
S'much'
p1134
tp1135
F2
s(S'got'
p1136
S'out.'
p1137
tp1138
F2
s(S'"It'
p1139
S"doesn't"
p1140
tp1141
F2
s(S'driver'
p1142
S'and'
tp1143
F2.9999999999999996
s(S'and'
S'got'
p1144
tp1145
F4
s(S'the'
S'falling'
p1146
tp1147
F2
s(S'not'
S'talk.'
p1148
tp1149
F2
s(S'no'
S'people'
p1150
tp1151
F2
s(S'was'
S'almost'
p1152
tp1153
F5
s(S'covered'
p1154
S'the'
p1155
tp1156
F4
s(S'them'
p1157
S'and'
p1158
tp1159
F5.9999999999999991
s(S'they'
S'always'
p1160
tp1161
F2.9999999999999996
s(S'that'
p1162
S'maybe'
tp1163
F2
s(S'he'
p1164
S'saw'
p1165
tp1166
F13
s(S'further,'
p1167
S'the'
tp1168
F2
s(S'holes'
p1169
S'and'
p1170
tp1171
F2
s(S'is'
p1172
S'no'
p1173
tp1174
F9
s(S'holding'
p1175
S'the'
p1176
tp1177
F2.9999999999999996
s(S'the'
S'steep'
p1178
tp1179
F2.9999999999999996
s(S'the'
S'great'
p1180
tp1181
F13
s(S'my'
p1182
S'life'
p1183
tp1184
F5
s(S'I'
S'ask'
p1185
tp1186
F2.9999999999999996
s(S'put'
S'it'
tp1187
F5.9999999999999991
s(S'asked'
S'me'
tp1188
F2
s(S'were'
S'white'
p1189
tp1190
F2
s(S'"What'
p1191
S'have'
tp1192
F2.9999999999999996
s(S'in'
p1193
S'her'
p1194
tp1195
F4
s(S'leaning'
p1196
S'back'
p1197
tp1198
F2.9999999999999996
s(S'been'
S'in'
p1199
tp1200
F4
s(S'now'
p1201
S'they'
tp1202
F2
s(S'the'
S'face'
p1203
tp1204
F2
s(S'to'
S'all'
tp1205
F2
s(S'said.'
S'"They'
p1206
tp1207
F5.9999999999999991
s(S'the'
p1208
S'harbour'
p1209
tp1210
F2.9999999999999996
s(S'said.'
S'"She\'s'
p1211
tp1212
F2.9999999999999996
s(S'Spider'
p1213
S'Kelly'
p1214
tp1215
F2
s(S'and'
S'laughed,'
p1216
tp1217
F2
s(S'until'
p1218
S'you'
tp1219
F2
s(S'ask'
p1220
S'me'
p1221
tp1222
F2
s(S'of'
S'sight'
p1223
tp1224
F4
s(S'many'
p1225
S'of'
tp1226
F4
s(S"That's"
p1227
S'the'
p1228
tp1229
F2
s(S'and'
p1230
S'just'
p1231
tp1232
F2
s(S'said.'
S'"Oh,'
p1233
tp1234
F2.9999999999999996
s(S'But'
p1235
S'you'
p1236
tp1237
F2
s(g1129
S'and'
tp1238
F2
s(S"Didn't"
p1239
S'you'
tp1240
F2
s(S'ran'
p1241
S'to'
p1242
tp1243
F2
s(S'got'
p1244
S'in,'
p1245
tp1246
F2
s(S'between'
p1247
S'two'
p1248
tp1249
F2
s(S'do'
p1250
S'it?"'
p1251
tp1252
F2
s(S'He'
p1253
S'pointed'
p1254
tp1255
F2.9999999999999996
s(S'could'
S'feel'
p1256
tp1257
F7
s(S'a'
S'bloody'
p1258
tp1259
F4
s(S'he\x92s'
p1260
S'a'
tp1261
F2
s(S'nice'
p1262
S'to'
tp1263
F4
s(g1091
S'man'
p1264
tp1265
F23.999999999999996
s(S'That\x92s'
p1266
S'the'
tp1267
F2
s(g1254
S'at'
tp1268
F2
s(S'dark'
S'water'
tp1269
F2
s(S'us'
p1270
S'not'
tp1271
F2
s(S'His'
S'wife'
p1272
tp1273
F2.9999999999999996
s(S'for'
p1274
S'you'
p1275
tp1276
F2.9999999999999996
s(S'eat'
p1277
S'the'
p1278
tp1279
F2.9999999999999996
s(S'loading'
p1280
S'the'
p1281
tp1282
F2
s(S'arms'
p1283
S'and'
p1284
tp1285
F4
s(g1228
S'sadness'
p1286
tp1287
F2
s(S'a'
S'dozen'
p1288
tp1289
F2
s(S'now'
p1290
S'but'
p1291
tp1292
F2
s(S'was'
p1293
S'pleasant'
p1294
tp1295
F2
s(S"we'll"
p1296
S'be'
p1297
tp1298
F2
s(S'Cohn'
S'went'
tp1299
F2
s(S'go'
S'up'
tp1300
F2
s(S'each'
S'other."'
p1301
tp1302
F2
s(S'\x93I'
p1303
S'know'
p1304
tp1305
F4
s(S'the'
S'shank'
p1306
tp1307
F2
s(S'her.'
p1308
S'The'
p1309
tp1310
F2
s(S'and'
S'settled'
p1311
tp1312
F2
s(S'sun'
S'went'
tp1313
F2
s(S'of'
S'it'
p1314
tp1315
F5.9999999999999991
s(S'his'
S'head'
p1316
tp1317
F11.999999999999998
s(S'\x93Where'
p1318
S'have'
tp1319
F2
s(S'If'
p1320
S'I'
tp1321
F5.9999999999999991
s(S'walked'
S'down'
tp1322
F4
s(S'of'
p1323
S'grain'
p1324
tp1325
F2
s(S'and'
S'clean'
p1326
tp1327
F2
s(S'you.'
p1328
S'You'
p1329
tp1330
F2.9999999999999996
s(S'his'
S'rifle'
p1331
tp1332
F2.9999999999999996
s(g618
S'it'
p1333
tp1334
F2.9999999999999996
s(S'are'
S'in'
tp1335
F2.9999999999999996
s(S'and'
S'then,'
p1336
tp1337
F5
s(S'boat'
p1338
S'to'
p1339
tp1340
F2
s(S'mouth'
p1341
S'of'
tp1342
F2
s(S'have'
S'your'
p1343
tp1344
F2.9999999999999996
s(S'before'
p1345
S'I'
tp1346
F2
s(S'as'
p1347
S'thick'
p1348
tp1349
F2
s(S'was'
p1350
S'built'
p1351
tp1352
F2
s(S'"They'
S'are'
p1353
tp1354
F4
s(S'have'
S'seen'
p1355
tp1356
F5
s(S'really'
p1357
S'very'
p1358
tp1359
F4
s(S'a'
S'white'
p1360
tp1361
F2.9999999999999996
s(S'hate'
p1362
S'that'
tp1363
F2
s(S'boy'
p1364
S'has'
p1365
tp1366
F2
s(S'gypsy'
S'said.'
tp1367
F16
s(S'For'
p1368
S'a'
tp1369
F2
s(S'He'
S'worked'
p1370
tp1371
F2
s(g1035
S'in'
p1372
tp1373
F9
s(S'sight'
p1374
S'now'
tp1375
F2
s(S'came'
p1376
S'to'
p1377
tp1378
F2.9999999999999996
s(S'how'
p1379
S'his'
tp1380
F2.9999999999999996
s(S'she'
p1381
S'could'
tp1382
F5
s(S'the'
S'glow'
p1383
tp1384
F2
s(S'does'
p1385
S'it'
p1386
tp1387
F2.9999999999999996
s(S'the'
S'weight'
p1388
tp1389
F7
s(S"o'clock"
p1390
S'I'
tp1391
F2
s(S'into'
p1392
S'bed.'
p1393
tp1394
F2
s(S'had'
S'made'
p1395
tp1396
F5
s(S'behind'
p1397
S'me'
tp1398
F2
s(S'climbed'
p1399
S'into'
tp1400
F2
s(S'"Yes,'
p1401
S'I'
tp1402
F2
s(S'brandy'
p1403
S'and'
p1404
tp1405
F2.9999999999999996
s(S'nor'
p1406
S'of'
p1407
tp1408
F4
s(S'do'
S'nothing'
p1409
tp1410
F2.9999999999999996
s(S'If'
p1411
S'you'
p1412
tp1413
F5
s(S'a'
S'tree'
p1414
tp1415
F2.9999999999999996
s(S'eyes'
p1416
S'were'
p1417
tp1418
F2
s(S'principle'
p1419
S'of'
tp1420
F2
s(S'between'
p1421
g1157
tp1422
F2
s(S'But'
p1423
S'the'
tp1424
F7
s(S'the'
p1425
S'flying'
p1426
tp1427
F4
s(S'all'
p1428
S'that.'
tp1429
F4
s(S'lion,\x94'
p1430
S'Robert'
tp1431
F2
s(S'the'
S'object,'
p1432
tp1433
F2
s(S'sat'
p1434
S'there'
tp1435
F2.9999999999999996
s(S'Macomber'
p1436
S'did'
tp1437
F2
s(S'is'
p1438
S'there'
tp1439
F2
s(S'the'
S'tables'
p1440
tp1441
F2
s(S'be'
S'done.'
p1442
tp1443
F2
s(S'car'
S'they'
p1444
tp1445
F2
s(S'it'
p1446
S'might'
p1447
tp1448
F2
s(S'smiled'
S'and'
tp1449
F2.9999999999999996
s(S'Wilson,\x94'
p1450
S'she'
p1451
tp1452
F2
s(S'you'
p1453
g234
tp1454
F4
s(S'one'
p1455
S'waiter'
p1456
tp1457
F2
s(S'was'
p1458
S'two'
p1459
tp1460
F2
s(S'hanging'
p1461
S'on'
tp1462
F2.9999999999999996
s(S'hold'
p1463
S'of'
p1464
tp1465
F2.9999999999999996
s(S'the'
S'girl,'
p1466
tp1467
F2.9999999999999996
s(S'had'
p1468
S'eaten'
p1469
tp1470
F2
s(S'of'
p1471
S'line.'
p1472
tp1473
F2
s(S'and'
p1474
S'another'
p1475
tp1476
F4
s(S'the'
S'forest'
p1477
tp1478
F2
s(g955
S'were'
p1479
tp1480
F4
s(g836
S'any'
p1481
tp1482
F2.9999999999999996
s(S'as'
p1483
S'a'
tp1484
F18
s(S'was'
p1485
S'blowing'
p1486
tp1487
F2
s(S'they'
p1488
S'will'
tp1489
F4
s(S'the'
S'carbine'
p1490
tp1491
F5
s(S'sick'
p1492
S'of'
p1493
tp1494
F2
s(S'shone'
p1495
S'on'
tp1496
F2
s(S'wonder'
S'what'
p1497
tp1498
F2.9999999999999996
s(S'her'
p1499
S'to'
tp1500
F5
s(S'as'
p1501
S'those'
p1502
tp1503
F2
s(S'\x93I\x92ll'
p1504
S'just'
p1505
tp1506
F2
s(S'cup'
p1507
S'of'
p1508
tp1509
F5
s(S'Francis'
p1510
S'Macomber'
p1511
tp1512
F8
s(S'us'
p1513
S'with'
tp1514
F2
s(S'am'
S'an'
tp1515
F2.9999999999999996
s(g1336
S'as'
tp1516
F2
s(S'to'
S'my'
tp1517
F2
s(S'big'
S'one'
p1518
tp1519
F2.9999999999999996
s(S'be'
p1520
S'the'
tp1521
F2
s(S'when'
S'she'
p1522
tp1523
F5.9999999999999991
s(S'very'
p1524
S'sleepy.\x94'
p1525
tp1526
F2
s(S'had'
p1527
S'seen'
p1528
tp1529
F2.9999999999999996
s(S'put'
p1530
S'the'
p1531
tp1532
F7
s(S'them'
p1533
S'on'
tp1534
F2
s(S'as'
p1535
S'you'
p1536
tp1537
F7
s(S'the'
S'valley'
p1538
tp1539
F2
s(S'door.'
p1540
S'The'
tp1541
F2.9999999999999996
s(S'"That'
p1542
S'is'
p1543
tp1544
F11.999999999999998
s(S'into'
p1545
S'the'
p1546
tp1547
F49
s(S'his'
S'wife'
p1548
tp1549
F15
s(S'the'
S'hell'
p1550
tp1551
F2.9999999999999996
s(S'one'
S'thing'
tp1552
F2.9999999999999996
s(S'I'
S'watched'
tp1553
F2
s(S'valley'
S'and'
tp1554
F2
s(S'the'
S'shade'
p1555
tp1556
F2.9999999999999996
s(S'oars'
p1557
S'and'
p1558
tp1559
F2
s(S'it'
p1560
S'made'
p1561
tp1562
F4
s(S'with'
p1563
S'us.'
p1564
tp1565
F2.9999999999999996
s(S'opened'
p1566
S'it'
tp1567
F2
s(S'the'
S'bar.'
p1568
tp1569
F8
s(S'you?"'
p1570
S'Robert'
tp1571
F2
s(S'she'
p1572
S'sat'
tp1573
F2
s(S'like'
p1574
S'white'
p1575
tp1576
F4
s(S'her.'
p1577
S'She'
tp1578
F2
s(S'the'
p1579
S'people'
p1580
tp1581
F2
s(S'with'
p1582
S'her,'
p1583
tp1584
F2
s(S'and'
S'started'
p1585
tp1586
F5
s(S'"For'
p1587
S"God's"
p1588
tp1589
F2
s(S'that'
p1590
S'looked'
tp1591
F2
s(S'Georgette'
S'was'
p1592
tp1593
F2
s(S'a'
S'rather'
p1594
tp1595
F2
s(S'been'
S'hooked'
p1596
tp1597
F2
s(S'hidden'
p1598
S'in'
p1599
tp1600
F2
s(S'it'
p1601
S'drops'
p1602
tp1603
F2
s(S'get'
p1604
S'it'
p1605
tp1606
F2.9999999999999996
s(S'"Did'
p1607
S'you'
p1608
tp1609
F2.9999999999999996
s(S'a'
S'fool."'
p1610
tp1611
F2
s(S'off'
p1612
S'the'
p1613
tp1614
F10
s(S'me'
p1615
S'help'
p1616
tp1617
F2
s(S'and'
p1618
S'in'
p1619
tp1620
F5.9999999999999991
s(S'be'
p1621
S'a'
tp1622
F10
s(S'never'
p1623
S'seen'
p1624
tp1625
F5.9999999999999991
s(S'have'
p1626
S'nice'
p1627
tp1628
F2
s(S'from'
p1629
S'Mencken.'
p1630
tp1631
F2
s(S'to'
p1632
S'one'
p1633
tp1634
F4
s(S'sun'
S'and'
p1635
tp1636
F4
s(S'she'
S'cooks'
p1637
tp1638
F2
s(S'made'
p1639
S'an'
p1640
tp1641
F2
s(S'was'
p1642
S'down.'
p1643
tp1644
F2.9999999999999996
s(S'wind'
p1645
S'blew'
p1646
tp1647
F2
s(S'to'
S'read'
p1648
tp1649
F2
s(S'keep'
p1650
S'on'
p1651
tp1652
F2
s(S'love'
p1653
g587
tp1654
F2
s(S'"What'
p1655
S'did'
tp1656
F5
s(S'was'
S'cold'
p1657
tp1658
F2
s(S'whatever'
p1659
S'he'
tp1660
F2
s(S'he'
S'galloped'
p1661
tp1662
F2
s(S'shoulder.'
p1663
S'He'
tp1664
F2
s(S'flannel'
p1665
S'shirt,'
p1666
tp1667
F2
s(S'he'
S'can'
tp1668
F2
s(S'is'
S'not'
p1669
tp1670
F8
s(S'come'
p1671
S'in'
p1672
tp1673
F5
s(S'the'
S'land'
p1674
tp1675
F5
s(S'makes'
p1676
S'me'
p1677
tp1678
F2
s(S'at'
p1679
S'all.'
p1680
tp1681
F5
s(S'her'
S'eyes'
tp1682
F2.9999999999999996
s(S'in'
p1683
S'Swahili'
p1684
tp1685
F2
s(S'he'
S'were'
p1686
tp1687
F4
s(S'not'
p1688
S'in'
tp1689
F2.9999999999999996
s(S'maybe'
S'he'
tp1690
F2.9999999999999996
s(S'you'
p1691
S'will'
p1692
tp1693
F2
s(g1097
S'of'
tp1694
F2
s(S'make'
p1695
S'trouble'
p1696
tp1697
F2
s(S'attitude'
p1698
S'toward'
p1699
tp1700
F2
s(S'sitting'
p1701
S'in'
tp1702
F2
s(S'there'
p1703
S'would'
tp1704
F2.9999999999999996
s(S'Braddocks'
p1705
S'asked.'
p1706
tp1707
F2
s(S'under'
p1708
S'a'
tp1709
F2
s(S'or'
p1710
g1688
tp1711
F2
s(S'almost'
S'comfortable.'
p1712
tp1713
F2
s(S'not'
p1714
S'just'
p1715
tp1716
F2
s(S'waited'
p1717
S'for'
p1718
tp1719
F2
s(g16
S'to'
p1720
tp1721
F2.9999999999999996
s(S'and'
p1722
S'how'
p1723
tp1724
F4
s(S'can'
S'always'
p1725
tp1726
F2.9999999999999996
s(S'Cohn'
S'had'
tp1727
F4
s(S'on'
S'her'
p1728
tp1729
F2.9999999999999996
s(S'spread'
p1730
S'it'
p1731
tp1732
F2
s(S'the'
S'matter'
p1733
tp1734
F2.9999999999999996
s(S'the'
S'gun'
p1735
tp1736
F2
s(S'we'
p1737
S'would'
p1738
tp1739
F2.9999999999999996
s(S'of'
S'us."'
p1740
tp1741
F2.9999999999999996
s(S'the'
S'bead'
p1742
tp1743
F4
s(S'say,'
p1744
S'you'
tp1745
F2.9999999999999996
s(S'name'
p1746
S'I'
tp1747
F2
s(S'and'
S'at'
tp1748
F7
s(S'put'
p1749
S'in.'
p1750
tp1751
F2
s(S'along'
p1752
S'the'
p1753
tp1754
F8
s(S'well'
p1755
S'enough'
tp1756
F2
s(S'that'
p1757
S'perhaps'
p1758
tp1759
F2
s(S'on'
p1760
S'him.'
p1761
tp1762
F2
s(S'to'
p1763
S'sit'
p1764
tp1765
F2.9999999999999996
s(S'looked'
S'across'
p1766
tp1767
F2.9999999999999996
s(S'will'
S'we'
tp1768
F2
s(S'do'
S'it."'
p1769
tp1770
F2
s(S'the'
S'reserve'
tp1771
F2
s(S'Carlo.'
p1772
S'Told'
tp1773
F2
s(S'do'
S'and'
tp1774
F2
s(S'him.'
p1775
S'The'
tp1776
F5.9999999999999991
s(S'the'
p1777
S'shack'
tp1778
F2
s(S'knew'
g384
tp1779
F5
s(S'not'
p1780
S'be'
p1781
tp1782
F4
s(S'he'
p1783
S'made'
p1784
tp1785
F5
s(S'with'
p1786
S'it.\x94'
p1787
tp1788
F2
s(S'Then'
p1789
S'he'
p1790
tp1791
F21
s(S'born'
p1792
S'for.'
p1793
tp1794
F2
s(S'I'
S'said'
tp1795
F7
s(S'\x93We\x92re'
p1796
S'going'
tp1797
F2
s(S'more'
S'about'
p1798
tp1799
F2
s(S'tired'
p1800
S'of'
p1801
tp1802
F2
s(S'was'
p1803
S'in'
tp1804
F11.999999999999998
s(S'Golz'
p1805
S'had'
p1806
tp1807
F4
s(S'himself.'
p1808
S'The'
tp1809
F2
s(S'the'
p1810
S'buffalo'
p1811
tp1812
F2
s(S'wife'
p1813
S'said.'
tp1814
F2.9999999999999996
s(S'afraid'
p1815
S'of'
p1816
tp1817
F2.9999999999999996
s(S'night'
p1818
S'and'
tp1819
F5
s(S'are'
S'lots'
tp1820
F2
s(S'do'
S'it.'
p1821
tp1822
F2.9999999999999996
s(S'line'
p1823
S'had'
p1824
tp1825
F2
s(S'all'
p1826
g1752
tp1827
F2
s(S'better'
p1828
S'to'
p1829
tp1830
F2.9999999999999996
s(S'his'
S'face'
p1831
tp1832
F8
s(S'\x93You'
p1833
S'mean'
p1834
tp1835
F2.9999999999999996
s(S'they'
S'all'
p1836
tp1837
F2.9999999999999996
s(S'get'
S'rid'
p1838
tp1839
F2
s(S'the'
S'tuna'
p1840
tp1841
F2.9999999999999996
s(g1838
S'of'
tp1842
F2
s(S'something'
p1843
S'of'
p1844
tp1845
F2
s(S'turned'
p1846
S'off'
tp1847
F2
s(S'a'
S'yard'
p1848
tp1849
F2
s(S'with'
p1850
S'the'
p1851
tp1852
F76
s(S'knees'
p1853
S'and'
tp1854
F2.9999999999999996
s(S'the'
S'office'
p1855
tp1856
F2
s(S'the'
S'table'
p1857
tp1858
F11.999999999999998
s(S'to'
S'say'
p1859
tp1860
F4
s(S'moving'
p1861
S'steadily'
p1862
tp1863
F2.9999999999999996
s(S'me'
p1864
S'a'
tp1865
F4
s(S'and'
p1866
S'take'
p1867
tp1868
F7
s(S'that'
p1869
S'damned'
p1870
tp1871
F2
s(S'know'
S'in'
p1872
tp1873
F2
s(S'thought.'
S'There'
tp1874
F2
s(S'too'
p1875
S'far'
p1876
tp1877
F2.9999999999999996
s(S'him,'
p1878
S'the'
tp1879
F4
s(S"wouldn't"
p1880
S'like'
p1881
tp1882
F2
s(S'the'
p1883
S'gear'
p1884
tp1885
F2
s(S'\x93He'
p1886
S'is'
p1887
tp1888
F2
s(S'could'
S'hear'
tp1889
F2.9999999999999996
s(S'have'
p1890
S'killed'
p1891
tp1892
F2
s(S'That\x92s'
p1893
S'all'
p1894
tp1895
F2
s(S'bring'
p1896
S'the'
p1897
tp1898
F2
s(S'and'
S'finger'
p1899
tp1900
F2
s(S'saw'
S'that'
tp1901
F4
s(S'her'
p1902
S'hands'
p1903
tp1904
F2.9999999999999996
s(S'lines'
p1905
S'of'
p1906
tp1907
F2
s(S'I\x92ll'
p1908
S'do'
tp1909
F4
s(S'you'
p1910
S'know'
tp1911
F10
s(S'may'
p1912
g1780
tp1913
F2
s(S'bow.'
S'He'
p1914
tp1915
F2
s(S'this'
p1916
S'time'
p1917
tp1918
F2.9999999999999996
s(S'wound'
p1919
S'through'
tp1920
F2
s(S'said.'
S'"How'
tp1921
F2.9999999999999996
s(g1189
S'in'
tp1922
F2.9999999999999996
s(S'man'
S'drank'
p1923
tp1924
F2
s(S'strong'
g1535
tp1925
F2
s(S'have'
p1926
S'you'
p1927
tp1928
F11
s(S'The'
p1929
S'car'
p1930
tp1931
F2.9999999999999996
s(S'he'
p1932
S'still'
p1933
tp1934
F2.9999999999999996
s(S'wanted'
p1935
S'to'
tp1936
F13
s(S'fish'
p1937
S'on'
tp1938
F2
s(S'the'
p1939
S'boy\x92s'
p1940
tp1941
F2
s(S'the'
S'corral,'
p1942
tp1943
F2
s(S'Jordan.'
S'He'
tp1944
F2
s(S'as'
p1945
S'Mademoiselle'
tp1946
F2
s(S'was'
S'waiting'
p1947
tp1948
F2
s(S'his'
S'shoulders'
p1949
tp1950
F7
s(S'that'
p1951
S'girl'
tp1952
F2
s(S'they'
p1953
S'had'
p1954
tp1955
F15
s(S'that'
p1956
S'for'
p1957
tp1958
F2
s(S'some'
p1959
S'one'
p1960
tp1961
F5.9999999999999991
s(S'and'
p1962
S'turned'
p1963
tp1964
F5
s(S'said'
S'Macomber.'
p1965
tp1966
F9
s(S'said.'
S'\x93It\x92s'
p1967
tp1968
F2
s(S'\x93Come'
p1969
S'on,\x94'
p1970
tp1971
F2
s(S'Jordan'
S'did'
tp1972
F2
s(S'the'
S'Terrace.'
p1973
tp1974
F2
s(S'you'
p1975
S'would'
tp1976
F2
s(S'Anselmo'
p1977
S'said,'
p1978
tp1979
F2
s(S'very'
S'good'
p1980
tp1981
F4
s(S'off'
p1982
g1786
tp1983
F2.9999999999999996
s(S'only'
p1984
S'thing'
tp1985
F2
s(S'one'
S'side,'
p1986
tp1987
F2
s(g1963
S'and'
p1988
tp1989
F4
s(S'is'
p1990
S'that'
p1991
tp1992
F5.9999999999999991
s(S'would'
p1993
S'make'
tp1994
F2
s(S'would'
p1995
g1093
tp1996
F2
s(S'hit'
p1997
S'him'
p1998
tp1999
F2.9999999999999996
s(S'Where'
p2000
S'did'
p2001
tp2002
F2
s(S'want'
S'the'
tp2003
F2
s(S'of'
S'great'
p2004
tp2005
F2.9999999999999996
s(S'not'
p2006
S'his'
p2007
tp2008
F2
s(S'this'
S'I'
tp2009
F2
s(S'Get'
p2010
S'out'
tp2011
F2
s(S'the'
p2012
S'ledge.'
p2013
tp2014
F2
s(S'she'
p2015
S'knew'
p2016
tp2017
F2.9999999999999996
s(S'good'
p2018
S'chance'
p2019
tp2020
F2
s(S'exactly'
p2021
S'as'
tp2022
F2
s(S'"A'
p2023
S'very'
tp2024
F2
s(S'Brett.'
p2025
S'She'
tp2026
F2.9999999999999996
s(S'thing'
S'as'
p2027
tp2028
F2
s(S'baits'
S'were'
p2029
tp2030
F2
s(S'is'
p2031
S'nothing,"'
p2032
tp2033
F2
s(S'of'
p2034
S'them'
p2035
tp2036
F11.999999999999998
s(S'dip'
S'of'
tp2037
F2
s(S'like'
p2038
g650
tp2039
F5
s(S'as'
S'it'
p2040
tp2041
F11
s(S'life'
S'is'
tp2042
F2
s(S'let'
p2043
S'him'
p2044
tp2045
F4
s(S'was'
S'on'
tp2046
F5
s(S'the'
p2047
S'matter?"'
p2048
tp2049
F5
s(S'\x93It'
p2050
S'is'
p2051
tp2052
F2.9999999999999996
s(S'was'
p2053
S'and'
tp2054
F2.9999999999999996
s(g864
S'of'
p2055
tp2056
F5.9999999999999991
s(S'to'
S'cross'
p2057
tp2058
F2
s(S'no'
S'way'
tp2059
F2
s(S'in'
p2060
S'front'
p2061
tp2062
F7
s(g2001
S'you'
p2063
tp2064
F9
s(S'man'
p2065
S'is'
tp2066
F2
s(S'Pablo'
p2067
S'told'
tp2068
F2.9999999999999996
s(S'he'
p2069
S'said,'
tp2070
F13
s(S'said.'
g645
tp2071
F2
s(S'he'
S'rowed'
p2072
tp2073
F2.9999999999999996
s(S'thing'
p2074
S'that'
tp2075
F2.9999999999999996
s(S'you'
p2076
S'in'
tp2077
F2.9999999999999996
s(S'the'
S'part'
p2078
tp2079
F2
s(S'the'
S'bird'
p2080
tp2081
F5
s(S'of'
p2082
S'my'
tp2083
F5
s(S'let\x92s'
p2084
S'not'
p2085
tp2086
F2.9999999999999996
s(S'the'
S'plankton'
p2087
tp2088
F2
s(S'the'
S'felt'
p2089
tp2090
F2
s(S'for'
p2091
S'me?"'
p2092
tp2093
F2
s(S'a'
S'double'
p2094
tp2095
F2.9999999999999996
s(S'more'
p2096
S'difficult'
p2097
tp2098
F2
s(S'he'
S'could'
tp2099
F27
s(S'the'
S'lion'
p2100
tp2101
F17
s(S'the'
S'north-west.'
p2102
tp2103
F2
s(S'the'
S'upper'
p2104
tp2105
F2
s(S'I'
S'had'
tp2106
F22
s(S'good'
p2107
S'and'
tp2108
F2
s(S'this'
p2109
g2053
tp2110
F2
s(S'brought'
p2111
S'me'
p2112
tp2113
F2
s(S'the'
S'noise'
p2114
tp2115
F2.9999999999999996
s(S'for'
p2116
S'me,'
p2117
tp2118
F2
s(S'or'
p2119
S'a'
tp2120
F4
s(S'thirty-five'
p2121
S'years'
p2122
tp2123
F2
s(S'that'
S'road."'
p2124
tp2125
F2
s(S'"How'
p2126
S'about'
tp2127
F2
s(S'on'
S'being'
p2128
tp2129
F2
s(S'Macomber'
p2130
S'could'
p2131
tp2132
F2
s(S'And'
p2133
S'if'
tp2134
F2
s(S'I'
S'saw'
p2135
tp2136
F7
s(S'"I'
p2137
S"can't"
p2138
tp2139
F2.9999999999999996
s(S'when'
p2140
S'is'
tp2141
F2
s(S'in'
p2142
S'that'
p2143
tp2144
F7
s(S'her'
p2145
S'lips'
p2146
tp2147
F2
s(S'fast.'
p2148
S'He'
p2149
tp2150
F2.9999999999999996
s(S'net'
p2151
S'and'
p2152
tp2153
F2.9999999999999996
s(S'"Where'
p2154
S'did'
tp2155
F2
s(S'light'
S'of'
p2156
tp2157
F2
s(S'"And'
p2158
S'if'
tp2159
F2
s(S'under'
p2160
S'his'
p2161
tp2162
F2.9999999999999996
s(S'for'
p2163
S'them'
p2164
tp2165
F2.9999999999999996
s(S'make'
p2166
S'you'
p2167
tp2168
F2
s(S'himself'
p2169
S'against'
tp2170
F2
s(S'to'
S'trust'
p2171
tp2172
F2
s(S'Gulf'
S'weed'
p2173
tp2174
F2
s(S'you'
S'please'
p2175
tp2176
F2
s(S'a'
S'fine'
p2177
tp2178
F8
s(S'foot'
p2179
S'of'
tp2180
F2
s(S'want'
p2181
S'to.'
p2182
tp2183
F2.9999999999999996
s(S'was'
S'more'
p2184
tp2185
F2
s(S'have'
S'it'
p2186
tp2187
F4
s(S'was'
p2188
S'looking'
p2189
tp2190
F2.9999999999999996
s(S'with'
p2191
S'him'
tp2192
F5.9999999999999991
s(S'she'
S'weighs'
p2193
tp2194
F2
s(S'with'
p2195
S'a'
tp2196
F30
s(S'Wilson'
p2197
S'thought,'
p2198
tp2199
F2.9999999999999996
s(S'the'
S'little'
p2200
tp2201
F5.9999999999999991
s(S'The'
S'waiter'
tp2202
F5.9999999999999991
s(S'go'
S'and'
p2203
tp2204
F2.9999999999999996
s(S'said.'
S'\x93He'
p2205
tp2206
F2
s(S'and'
p2207
S'be'
p2208
tp2209
F2.9999999999999996
s(S'He'
p2210
S'never'
p2211
tp2212
F2.9999999999999996
s(S'on'
p2213
S'his'
p2214
tp2215
F32
s(S'shot'
p2216
S'again,'
p2217
tp2218
F2.9999999999999996
s(S'to'
S'where'
p2219
tp2220
F7
s(S'has'
p2221
S'no'
p2222
tp2223
F2
s(S'a'
S'hell'
p2224
tp2225
F4
s(S'except'
p2226
S'that'
p2227
tp2228
F2
s(S'to?"'
p2229
S'"I'
p2230
tp2231
F2
s(S'one'
p2232
S'on'
tp2233
F2
s(S'arm'
S'through'
p2234
tp2235
F2
s(S'boy.'
g2210
tp2236
F2.9999999999999996
s(S'too.'
p2237
S'I'
tp2238
F2
s(S'Wilson'
S'said'
tp2239
F4
s(S'out'
p2240
S'into'
tp2241
F2.9999999999999996
s(S'"have'
p2242
S'a'
tp2243
F2
s(S'was'
S'considered'
p2244
tp2245
F2
s(g972
S'of'
tp2246
F4
s(S'the'
S'point'
p2247
tp2248
F2
s(S'much'
S'better.'
p2249
tp2250
F2.9999999999999996
s(S'for'
p2251
S'many'
p2252
tp2253
F2
s(S'made'
p2254
S'some'
p2255
tp2256
F2
s(S'I'
S'felt'
p2257
tp2258
F4
s(S'passed'
p2259
S'the'
p2260
tp2261
F5.9999999999999991
s(S'"It'
p2262
g1350
tp2263
F5.9999999999999991
s(S'I'
S'told'
p2264
tp2265
F4
s(S'one'
p2266
S'was'
p2267
tp2268
F2
s(S'young'
p2269
S'man,'
p2270
tp2271
F2.9999999999999996
s(S'his'
p2272
S'own'
p2273
tp2274
F4
s(S'trees'
p2275
S'and'
tp2276
F2.9999999999999996
s(S'will'
p2277
S'see.'
p2278
tp2279
F2
s(S'moved'
p2280
S'steadily'
tp2281
F2.9999999999999996
s(S'"In'
p2282
S'this'
p2283
tp2284
F2
s(S'told'
g1808
tp2285
F2
s(S'eyes'
p2286
S'with'
p2287
tp2288
F2
s(S'delicate'
p2289
S'pulling'
p2290
tp2291
F2
s(S'other'
S'things'
p2292
tp2293
F2
s(S'were'
p2294
S'you'
p2295
tp2296
F2
s(S'his'
g1283
tp2297
F5
s(g657
S'breeze'
p2298
tp2299
F2
s(S'want'
p2300
S'to'
tp2301
F20
s(S'We'
p2302
S'saw'
p2303
tp2304
F2
s(S'hand'
p2305
S'on'
p2306
tp2307
F4
s(S'life'
p2308
S'in'
p2309
tp2310
F2
s(S'up'
S'with'
tp2311
F2.9999999999999996
s(S'and'
p2312
S'make'
p2313
tp2314
F5
s(S'opened'
p2315
S'the'
p2316
tp2317
F2.9999999999999996
s(S'line'
p2318
S'showed'
p2319
tp2320
F2
s(S'leaned'
p2321
S'back'
tp2322
F2.9999999999999996
s(S'"How'
p2323
g7
tp2324
F2
s(S'To'
p2325
S'hell'
tp2326
F2.9999999999999996
s(S'have'
S'his'
tp2327
F2
s(S'when'
p2328
S'we'
p2329
tp2330
F8
s(S'love'
S'with'
tp2331
F2.9999999999999996
s(S'\x93No,\x94'
p2332
S'the'
tp2333
F2.9999999999999996
s(S'a'
S'black'
p2334
tp2335
F2
s(S'line'
p2336
S'and'
p2337
tp2338
F8
s(S'worry'
p2339
S'about'
p2340
tp2341
F7
s(S'in'
p2342
S'Paris'
p2343
tp2344
F2.9999999999999996
s(S'Jordan'
S'asked.'
p2345
tp2346
F4
s(S'he'
S'lowered'
p2347
tp2348
F2
s(S'whole'
S'thing.'
p2349
tp2350
F2
s(S'be'
S'gay'
p2351
tp2352
F2
s(S'crossed'
p2353
S'the'
tp2354
F2.9999999999999996
s(S'me,'
p2355
S'he'
tp2356
F2.9999999999999996
s(S'street'
S'and'
tp2357
F2
s(S'But'
p2358
S'what'
tp2359
F2.9999999999999996
s(S'at'
S'it'
p2360
tp2361
F4
s(S'hell'
p2362
S'with'
tp2363
F5.9999999999999991
s(S'the'
g2179
tp2364
F2
s(S'me'
p2365
S'and'
tp2366
F9
s(g1304
g1453
tp2367
F5
s(g731
g18
tp2368
F19
s(g96
g1621
tp2369
F55
s(S'the'
S'look'
p2370
tp2371
F2.9999999999999996
s(S'I'
S'feel'
p2372
tp2373
F2.9999999999999996
s(S'it'
S'up.'
p2374
tp2375
F2
s(S'\x93Of'
p2376
S'course'
p2377
tp2378
F2
s(S'over'
p2379
S'and'
p2380
tp2381
F8
s(S'irregular'
p2382
S'the'
p2383
tp2384
F2
s(S'They'
p2385
S'sat'
p2386
tp2387
F4
s(S'is'
p2388
S'my'
tp2389
F5
s(S'all'
p2390
S'their'
p2391
tp2392
F2
s(S'out'
S'on'
tp2393
F4
s(S'a'
S'lot'
p2394
tp2395
F5
s(S'take'
p2396
S'you'
p2397
tp2398
F2
s(S'talk'
S'like'
tp2399
F2
s(S'I'
S'try'
p2400
tp2401
F2
s(S'we'
p2402
S'see'
p2403
tp2404
F2
s(S'way'
S'to'
tp2405
F9
s(S'said.'
p2406
S'"There\'s'
p2407
tp2408
F2
s(S'and'
p2409
S'two'
p2410
tp2411
F2.9999999999999996
s(S'to'
p2412
S'pull'
p2413
tp2414
F2.9999999999999996
s(g269
S'is'
tp2415
F7
s(S"peasant's"
p2416
S'smock'
p2417
tp2418
F2
s(S'how'
p2419
S'I'
tp2420
F2
s(S'in'
p2421
S'a'
tp2422
F35
s(S'coils'
S'of'
tp2423
F2.9999999999999996
s(S'between'
p2424
S'the'
p2425
tp2426
F4
s(S'this'
p2427
g348
tp2428
F2
s(S'interests'
p2429
S'of'
p2430
tp2431
F2
s(S'was'
S'sorry'
p2432
tp2433
F2.9999999999999996
s(S'He'
p2434
S'leaned'
tp2435
F2.9999999999999996
s(S'"I'
p2436
S'can'
p2437
tp2438
F2.9999999999999996
s(g1076
S'and'
tp2439
F2.9999999999999996
s(S'never'
p2440
g1604
tp2441
F2.9999999999999996
s(S'left'
p2442
S'him'
p2443
tp2444
F2.9999999999999996
s(S'thing'
p2445
S'he'
tp2446
F2
s(S'the'
S'water.'
p2447
tp2448
F9
s(S'to'
p2449
S'eat'
tp2450
F4
s(S'better'
p2451
S'not'
p2452
tp2453
F2
s(S'know'
p2454
S'what'
p2455
tp2456
F2.9999999999999996
s(S'he'
S'should'
p2457
tp2458
F4
s(S'He'
p2459
S'had'
p2460
tp2461
F27
s(S'him.'
p2462
S'They'
p2463
tp2464
F2.9999999999999996
s(S'took'
p2465
S'my'
p2466
tp2467
F2
s(S'soon'
p2468
S'as'
tp2469
F5.9999999999999991
s(S'still'
S'there'
p2470
tp2471
F2
s(S'the'
S'curtain.'
p2472
tp2473
F2
s(S'he'
S"hadn't"
p2474
tp2475
F2
s(S'The'
p2476
g2269
tp2477
F2.9999999999999996
s(S'that'
p2478
S'I'
tp2479
F9
s(S'cot'
p2480
S'in'
tp2481
F2
s(S'man'
S'loved'
p2482
tp2483
F2
s(S'had'
S'leaned'
tp2484
F2
s(g2227
S'his'
p2485
tp2486
F2.9999999999999996
s(S'wouldn\x92t'
S'think'
tp2487
F2
s(S'cave,"'
p2488
S'the'
p2489
tp2490
F2
s(S'them'
p2491
S'was'
tp2492
F2.9999999999999996
s(S'be'
S'able'
tp2493
F2
s(S'was'
p2494
S'playing'
p2495
tp2496
F2
s(S'great'
p2497
S'head'
p2498
tp2499
F2
s(S'bow'
S'and'
tp2500
F2
s(S'clearly'
p2501
S'and'
tp2502
F2
s(S'sadness'
p2503
S'that'
tp2504
F2
s(S'you,\x94'
p2505
S'the'
tp2506
F2.9999999999999996
s(S'We'
p2507
S'would'
tp2508
F2
s(S'down'
p2509
S'at'
tp2510
F8
s(S'the'
S'sidewalk'
p2511
tp2512
F2
s(S'He'
p2513
S'raised'
p2514
tp2515
F2
s(S'look'
p2516
S'on'
tp2517
F2
s(S'and'
p2518
S'when'
tp2519
F11
s(S'not'
S'too'
p2520
tp2521
F2
s(S'times'
p2522
S'in'
tp2523
F2
s(S'the'
S'next'
p2524
tp2525
F5
s(S'we'
p2526
S'will'
p2527
tp2528
F7
s(S'the'
S'trees'
p2529
tp2530
F7
s(S'an'
S'unbelievable'
p2531
tp2532
F2
s(S'for'
S'an'
p2533
tp2534
F2
s(S'mother'
p2535
S'had'
tp2536
F2
s(S'leader'
p2537
S'and'
tp2538
F2
s(S'will'
p2539
S'come'
p2540
tp2541
F5.9999999999999991
s(S'You'
p2542
S'must'
p2543
tp2544
F4
s(S'there'
S'in'
tp2545
F2.9999999999999996
s(S'ocean.'
p2546
S'He'
p2547
tp2548
F2
s(S'they'
S'get'
tp2549
F2
s(S'"Do'
p2550
S'you'
tp2551
F16
s(S'his'
S'pocket'
p2552
tp2553
F4
s(S'\x93You'
S'shoot'
p2554
tp2555
F2
s(S'in'
p2556
S'New'
p2557
tp2558
F2
s(S'called'
p2559
S'to'
tp2560
F2
s(S'his'
p2561
S'eyes'
p2562
tp2563
F10
s(S'\x93How'
p2564
S'old'
p2565
tp2566
F2
s(S'great'
p2567
S'DiMaggio'
p2568
tp2569
F2
s(S'one'
p2570
S'has'
p2571
tp2572
F2
s(S'careful'
p2573
S'not'
tp2574
F2.9999999999999996
s(S'The'
p2575
S'horses'
p2576
tp2577
F2.9999999999999996
s(S'panic'
p2578
S'in'
p2579
tp2580
F2
s(S'take'
S'him'
p2581
tp2582
F2
s(S'a'
S'drink."'
p2583
tp2584
F7
s(S'his'
S'big'
p2585
tp2586
F4
s(S'carried'
p2587
S'the'
p2588
tp2589
F2.9999999999999996
s(S'the'
p2590
S'early'
p2591
tp2592
F2.9999999999999996
s(S'with'
p2593
S'some'
p2594
tp2595
F2.9999999999999996
s(S'about'
p2596
S'the'
p2597
tp2598
F16
s(S'the'
S'morning'
p2599
tp2600
F7
s(g866
S'him'
p2601
tp2602
F2.9999999999999996
s(S'her.'
S'He'
p2603
tp2604
F2
s(S'so'
S'they'
tp2605
F2.9999999999999996
s(S'now'
S'she'
p2606
tp2607
F2
s(S'roar'
p2608
S'and'
p2609
tp2610
F2.9999999999999996
s(S'I'
S'wouldn\x92t'
p2611
tp2612
F2
s(S'There'
p2613
S'were'
p2614
tp2615
F14
s(S'small'
p2616
S'and'
tp2617
F2
s(S'could'
p2618
g402
tp2619
F2
s(S'out'
S'through'
tp2620
F4
s(S'the'
p2621
S'war.'
p2622
tp2623
F2
s(S'"I'
S'suppose'
p2624
tp2625
F2
s(S'"I'
p2626
S'know'
tp2627
F5.9999999999999991
s(S'he'
S'loved'
p2628
tp2629
F4
s(S'of'
p2630
S'the'
p2631
tp2632
F271
s(S'take'
g1068
tp2633
F2
s(S'where'
p2634
S'all'
p2635
tp2636
F2
s(S'come'
p2637
S'to'
p2638
tp2639
F8
s(S'went'
p2640
S'through'
p2641
tp2642
F2
s(S'looking'
p2643
S'for'
tp2644
F2.9999999999999996
s(S'red-faced'
p2645
S'Mr.'
p2646
tp2647
F2
s(S'told'
S'the'
tp2648
F2
s(S'and'
S'stop'
p2649
tp2650
F2
s(g27
S'the'
p2651
tp2652
F4
s(S'and'
p2653
S'there'
tp2654
F5.9999999999999991
s(S'breast'
p2655
S'pocket'
p2656
tp2657
F2
s(S'thought'
p2658
g939
tp2659
F2
s(S'finished'
p2660
S'the'
p2661
tp2662
F2
s(S'She'
p2663
S'had'
tp2664
F7
s(S'thing'
p2665
S'I'
tp2666
F2
s(S'said.'
S'\x93They'
p2667
tp2668
F2
s(S'down'
p2669
S'into'
tp2670
F7
s(S'it'
p2671
S'hadn\x92t'
p2672
tp2673
F2
s(S'close'
p2674
g533
tp2675
F2
s(S'and'
S'walked'
p2676
tp2677
F5
s(S'know'
p2678
S'where'
p2679
tp2680
F2
s(S'the'
S'baits'
p2681
tp2682
F2.9999999999999996
s(S'missed'
p2683
S'and'
tp2684
F2
s(S'was'
p2685
S'his'
tp2686
F4
s(S'him.'
S'\x93You'
tp2687
F2
s(S'any'
S'difference.'
p2688
tp2689
F2
s(S'head'
S'and'
tp2690
F7
s(S'from'
p2691
S'each'
p2692
tp2693
F2
s(S'until'
p2694
S'it'
tp2695
F4
s(S'he'
S'liked'
p2696
tp2697
F2.9999999999999996
s(S'started'
p2698
S'to'
p2699
tp2700
F10
s(S'do'
p2701
S'that,\x94'
p2702
tp2703
F2
s(S'up,'
p2704
S'the'
tp2705
F2
s(S'up'
S'over'
tp2706
F2.9999999999999996
s(S'not'
S'so'
p2707
tp2708
F5
s(S'he'
p2709
S'knew'
p2710
tp2711
F17
s(S'the'
p2712
S'belly'
p2713
tp2714
F2
s(S'she'
p2715
S'were'
p2716
tp2717
F2
s(S'their'
p2718
S'lines'
p2719
tp2720
F2
s(S'am'
p2721
S'a'
tp2722
F4
s(S'since'
p2723
S'I'
tp2724
F2
s(S'When'
p2725
S'the'
p2726
tp2727
F7
s(S'long'
p2728
S'as'
tp2729
F5.9999999999999991
s(S'And'
p2730
S'when'
tp2731
F2
s(S'do'
p2732
S'I,\x94'
p2733
tp2734
F2
s(S'Brett'
p2735
S'was'
p2736
tp2737
F2
s(S'"What\'s'
p2738
g21
tp2739
F2
s(S'prisms'
p2740
S'in'
tp2741
F2
s(S'stream'
p2742
S'bed.'
p2743
tp2744
F2
s(S'Cohn'
p2745
S'said.'
tp2746
F2.9999999999999996
s(S'it'
p2747
S'there'
tp2748
F2
s(S'from'
p2749
S'it'
tp2750
F2
s(g25
S'they'
p2751
tp2752
F2.9999999999999996
s(S'I'
S'were'
p2753
tp2754
F2.9999999999999996
s(S'minutes'
p2755
S'and'
tp2756
F2
s(S'climbing'
p2757
S'up'
p2758
tp2759
F2
s(S'She'
p2760
S'was'
p2761
tp2762
F14
s(S'and'
S'green'
p2763
tp2764
F2
s(S'and'
S'it'
p2765
tp2766
F23
s(S'I'
S"didn't"
p2767
tp2768
F2
s(S'Macomber'
p2769
S'would'
tp2770
F2
s(S'motor'
p2771
S'car'
p2772
tp2773
F5
s(S'be'
S'going'
p2774
tp2775
F2
s(S'Wilson'
p2776
g1527
tp2777
F2.9999999999999996
s(S'you'
S'make'
tp2778
F2
s(S'This'
p2779
S'was'
tp2780
F2
s(S'"The'
p2781
S'Purple'
p2782
tp2783
F2.9999999999999996
s(S'"But'
S'he'
tp2784
F2
s(S'else'
S'to'
tp2785
F2
s(S'"I'
p2786
S'come'
p2787
tp2788
F2
s(S'himself.'
p2789
S'He'
tp2790
F2.9999999999999996
s(S'Anselmo'
p2791
S'and'
tp2792
F2
s(S'it'
S'away."'
p2793
tp2794
F2
s(S'it\x92s'
p2795
S'going'
tp2796
F2
s(S'know."'
p2797
S'"I'
p2798
tp2799
F2
s(S'know'
S'we'
p2800
tp2801
F2
s(S'every'
p2802
S'day'
p2803
tp2804
F2
s(S'his'
S'first'
p2805
tp2806
F2
s(S'was'
p2807
S'an'
p2808
tp2809
F7
s(S'a'
S'name'
tp2810
F2
s(S'a'
S'slight'
p2811
tp2812
F2
s(S'the'
p2813
S'gypsy'
p2814
tp2815
F30
s(S'you'
p2816
S'get'
p2817
tp2818
F2
s(S'said.'
S'"Do'
tp2819
F2
s(S'work'
p2820
S'back'
tp2821
F2
s(S'"I'
p2822
S'want'
tp2823
F2
s(S'him'
p2824
S'was'
p2825
tp2826
F4
s(S'Macomber'
S'and'
tp2827
F4
s(S'had'
S'three'
p2828
tp2829
F2
s(S'row."'
p2830
S'"What'
tp2831
F2
s(S'not'
S'afraid,'
p2832
tp2833
F2
s(S'yourself'
p2834
S'and'
tp2835
F2.9999999999999996
s(S'Macomber\x92s'
p2836
g1813
tp2837
F2.9999999999999996
s(S'great'
S'fish'
p2838
tp2839
F5
s(S'red'
p2840
S'face'
tp2841
F2
s(S'the'
p2842
S'best'
p2843
tp2844
F5
s(S'by'
S'himself'
tp2845
F2.9999999999999996
s(S'"I'
p2846
S'wish'
tp2847
F5
s(S'was'
S'that'
p2848
tp2849
F2.9999999999999996
s(S'the'
S'edge'
tp2850
F10
s(S'no'
S'time'
tp2851
F2.9999999999999996
s(S'leaned'
p2852
S'forward'
p2853
tp2854
F4
s(S'long'
p2855
S'and'
p2856
tp2857
F2
s(S'horse'
p2858
S'that'
tp2859
F2
s(S'de'
S'la'
p2860
tp2861
F2.9999999999999996
s(S'"I'
S'am'
p2862
tp2863
F5.9999999999999991
s(S'no'
S'idea'
p2864
tp2865
F2
s(S'of'
S'us'
p2866
tp2867
F2.9999999999999996
s(S'the'
S'lights'
p2868
tp2869
F2
s(g1733
S'with'
p2870
tp2871
F2.9999999999999996
s(S'not'
p2872
S'talk'
tp2873
F2.9999999999999996
s(g188
S'her.'
p2874
tp2875
F2
s(S'no'
S'one.'
p2876
tp2877
F2
s(S'heavy'
S'packs'
p2878
tp2879
F2
s(S'the'
S'sauce'
p2880
tp2881
F2
s(S'them'
S'a'
tp2882
F2
s(S'we'
p2883
S'do,'
p2884
tp2885
F2
s(S'shirt'
p2886
S'and'
tp2887
F2
s(S'a'
S'foreigner,'
p2888
tp2889
F2
s(S'know'
g2419
tp2890
F9
s(S'lines'
p2891
S'in'
tp2892
F2
s(S'here,'
p2893
S'we'
tp2894
F2
s(S'Wilson'
g2658
tp2895
F2
s(S'edge'
p2896
S'of'
tp2897
F14
s(S'the'
S'bags'
p2898
tp2899
F2
s(S'a'
S'horse'
p2900
tp2901
F2
s(S'low'
p2902
S'on'
tp2903
F2
s(S'who'
p2904
S'was'
p2905
tp2906
F7
s(S'He'
p2907
S'smiled'
tp2908
F2
s(S'and'
p2909
S'no'
p2910
tp2911
F2
s(S'how'
p2912
S'to'
tp2913
F2
s(S'the'
S'tent'
p2914
tp2915
F2.9999999999999996
s(S'buy'
p2916
S'a'
tp2917
F2
s(S'road'
S'to'
p2918
tp2919
F2.9999999999999996
s(S'I'
S'did'
tp2920
F2.9999999999999996
s(S'me'
p2921
S'into'
tp2922
F2
s(S'a'
S'deep'
p2923
tp2924
F2
s(S'"What'
p2925
S'is'
tp2926
F2.9999999999999996
s(S'know'
p2927
S'that'
tp2928
F7
s(S'here'
p2929
S'in'
tp2930
F2.9999999999999996
s(S'thing'
p2931
S'to'
p2932
tp2933
F5
s(g2340
S'that'
tp2934
F5
s(S'let'
p2935
S'you'
p2936
tp2937
F2.9999999999999996
s(S'had'
p2938
S'an'
p2939
tp2940
F2.9999999999999996
s(S'talk'
S'and'
tp2941
F2
s(S'what'
p2942
S'will'
p2943
tp2944
F2.9999999999999996
s(S'raising'
p2945
S'his'
p2946
tp2947
F2
s(S'had'
p2948
S'become'
tp2949
F2
s(S'your'
p2950
S'right'
tp2951
F2
s(S'wet'
p2952
S'and'
p2953
tp2954
F2
s(S'about'
S'Brett'
p2955
tp2956
F2.9999999999999996
s(S'the'
S'gentle'
p2957
tp2958
F2
s(S'sign'
p2959
S'of'
p2960
tp2961
F2
s(S'dancing'
p2962
S'with'
tp2963
F2
s(S'was'
p2964
S'no'
p2965
tp2966
F16
s(S'all'
S'sitting'
p2967
tp2968
F2
s(S'lay'
S'awake'
p2969
tp2970
F2
s(S'the'
p2971
S'feeling'
p2972
tp2973
F2
s(S'looked'
p2974
S'away'
tp2975
F2.9999999999999996
s(S'"Don\'t'
p2976
g290
tp2977
F5
s(S'"They'
p2978
S'look'
p2979
tp2980
F2
s(S'that'
p2981
S'had'
tp2982
F2.9999999999999996
s(S'the'
S'lines.'
p2983
tp2984
F2
s(S'had'
S'that'
p2985
tp2986
F2
s(S'and'
p2987
S'only'
p2988
tp2989
F2.9999999999999996
s(S'the'
S'house'
tp2990
F4
s(S'thought.'
S'Now'
tp2991
F2
s(S'Do'
p2992
S'you'
p2993
tp2994
F5.9999999999999991
s(S'statue'
p2995
S'of'
p2996
tp2997
F2
s(S'full'
p2998
S'of'
p2999
tp3000
F5.9999999999999991
s(S'looking'
p3001
S'at'
tp3002
F11
s(S'the'
p3003
S'old'
tp3004
F123
s(S'We'
p3005
S'got'
p3006
tp3007
F2.9999999999999996
s(S'remember'
p3008
g2449
tp3009
F2
s(S'his'
p3010
S'shoulders.'
tp3011
F2.9999999999999996
s(S'said.'
S'"You'
p3012
tp3013
F2.9999999999999996
s(S'different'
p3014
S'from'
p3015
tp3016
F2
s(S'that.'
p3017
S'You'
p3018
tp3019
F2.9999999999999996
s(S'it'
p3020
S'on'
tp3021
F4
s(S'from'
p3022
S'where'
p3023
tp3024
F2.9999999999999996
s(S'it'
S'all'
p3025
tp3026
F2.9999999999999996
s(S'Robert'
p3027
S'Wilson,'
p3028
tp3029
F2
s(S'cloud'
p3030
S'of'
p3031
tp3032
F2
s(S'the'
g2546
tp3033
F2.9999999999999996
s(S'about'
S'going'
tp3034
F2
s(S'fool,"'
p3035
S'I'
tp3036
F2
s(S'what'
p3037
S'could'
p3038
tp3039
F2
s(S'reached'
p3040
S'the'
tp3041
F2.9999999999999996
s(S'to'
p3042
g2454
tp3043
F7
s(S'against'
p3044
S'the'
p3045
tp3046
F27
s(S'does.'
p3047
S'But'
tp3048
F2
s(S'the'
S'bed.'
p3049
tp3050
F4
s(S'while'
p3051
S'the'
tp3052
F7
s(S'talking'
p3053
S'to'
tp3054
F4
s(S'that'
p3055
S'Wilson'
p3056
tp3057
F2
s(S'Braddocks'
S'called'
p3058
tp3059
F2
s(S'behind'
p3060
S'it.'
tp3061
F2
s(S'asleep'
p3062
S'in'
tp3063
F2.9999999999999996
s(S'at'
p3064
g733
tp3065
F2
s(S'the'
p3066
S'boy'
tp3067
F47.999999999999993
s(S'known'
p3068
S'her'
p3069
tp3070
F2
s(S'the'
S'surface.'
p3071
tp3072
F2
s(S'a'
S'moment'
p3073
tp3074
F2
s(S'I'
S'think,\x94'
p3075
tp3076
F2
s(S'was'
p3077
S'very'
p3078
tp3079
F16
s(S'put'
p3080
S'his'
p3081
tp3082
F5
s(S'to'
S'his'
p3083
tp3084
F13
s(S'and'
S'heavy,'
tp3085
F2
s(S'like'
p3086
S'a'
tp3087
F15
s(S'we'
p3088
S'went'
p3089
tp3090
F2.9999999999999996
s(S'were'
S'not'
p3091
tp3092
F7
s(S'are'
p3093
S'you?\x94'
p3094
tp3095
F2
s(g2547
S'saw'
tp3096
F2
s(S'schools'
p3097
S'of'
p3098
tp3099
F2
s(S'the'
g1419
tp3100
F2
s(g2078
S'of'
tp3101
F9
s(S'do'
p3102
S'this'
p3103
tp3104
F2
s(S'and'
p3105
g3066
tp3106
F144
s(S'hunter'
p3107
S'and'
tp3108
F2
s(g1742
S'curtain.'
p3109
tp3110
F2
s(S'a'
S'professional'
p3111
tp3112
F2
s(S'are'
S'all'
p3113
tp3114
F2.9999999999999996
s(g2482
S'to'
tp3115
F2.9999999999999996
s(S'outside'
p3116
g1777
tp3117
F5.9999999999999991
s(S'the'
S'sail'
p3118
tp3119
F2.9999999999999996
s(S'now'
p3120
S'for'
p3121
tp3122
F2.9999999999999996
s(S'No,'
p3123
S'he'
tp3124
F2
s(S'"Leave'
p3125
S'it'
tp3126
F2
s(S'Every'
p3127
S'one'
tp3128
F2
s(S'and'
p3129
S'through'
tp3130
F2
s(S'to'
S'bring'
p3131
tp3132
F5.9999999999999991
s(S'stood'
p3133
S'there'
p3134
tp3135
F2
s(S'country'
p3136
S'on'
tp3137
F2
s(S'The'
S'water'
p3138
tp3139
F2
s(S'his'
p3140
g2497
tp3141
F2
s(S'sat'
p3142
S'at'
tp3143
F2.9999999999999996
s(S'before'
p3144
S'daylight'
p3145
tp3146
F4
s(g2460
S'a'
tp3147
F31
s(S'and'
S'took'
tp3148
F7
s(S'what'
g2795
tp3149
F2
s(S'me'
p3150
S'to'
p3151
tp3152
F5
s(S'said.'
S'\x93You'
p3153
tp3154
F5.9999999999999991
s(S'it\x92s'
p3155
S'the'
tp3156
F2
s(S'can'
S'make'
p3157
tp3158
F2.9999999999999996
s(S'a'
S'woman'
p3159
tp3160
F2.9999999999999996
s(S'the'
S'time.'
p3161
tp3162
F2
s(S'\x93I'
p3163
S'must'
p3164
tp3165
F2
s(S'can\x92t."'
p3166
S'"We'
tp3167
F2
s(S'when'
p3168
S'Wilson'
p3169
tp3170
F2
s(S'harm'
p3171
S'than'
p3172
tp3173
F2
s(S'Comrade'
p3174
S'General?"'
p3175
tp3176
F2
s(S'get'
S'a'
tp3177
F5.9999999999999991
s(S'looking'
p3178
S'into'
p3179
tp3180
F4
s(S'read'
p3181
S'in'
tp3182
F2
s(S'it.'
S'They'
p3183
tp3184
F2
s(S'to'
S'tell'
p3185
tp3186
F5
s(S'her'
S'brown'
p3187
tp3188
F2
s(S'by'
p3189
S'and'
p3190
tp3191
F2
s(S'watched'
p3192
S'the'
tp3193
F9
s(S'of'
S'wine'
p3194
tp3195
F5
s(S'touch'
p3196
S'on'
tp3197
F2
s(S'man'
S'said.'
p3198
tp3199
F45
s(S'"Come'
p3200
S'in'
tp3201
F2.9999999999999996
s(S'up'
p3202
S'and'
p3203
tp3204
F23
s(S'pick'
p3205
S'out'
p3206
tp3207
F2
s(S'came'
p3208
S'toward'
tp3209
F2.9999999999999996
s(S'the'
S'surface'
p3210
tp3211
F5.9999999999999991
s(S'she'
p3212
S'asked.'
p3213
tp3214
F2.9999999999999996
s(S'right.'
p3215
S'I'
tp3216
F2
s(S'people'
p3217
S'were'
p3218
tp3219
F2
s(S'not'
p3220
S'bad."'
p3221
tp3222
F2
s(S'sail'
S'and'
tp3223
F2.9999999999999996
s(S'went'
p3224
S'in'
p3225
tp3226
F2
s(S'after'
p3227
S'the'
p3228
tp3229
F8
s(S'sides'
p3230
S'of'
tp3231
F2
s(S'blue'
p3232
S'hills'
p3233
tp3234
F2
s(S'mast'
p3235
S'on'
tp3236
F2
s(S'they'
p3237
S'are'
p3238
tp3239
F11
s(S'heavy'
p3240
g1937
tp3241
F2
s(S'he'
S'was'
p3242
tp3243
F68
s(S'winked'
p3244
S'at'
p3245
tp3246
F2
s(S'about'
p3247
S'turtles'
p3248
tp3249
F2
s(S'bed'
p3250
S'before'
p3251
tp3252
F2
s(S'Memsahib'
p3253
S'while'
p3254
tp3255
F2
s(S'love'
p3256
S'me?"'
p3257
tp3258
F2
s(S'waiting'
p3259
S'for'
tp3260
F4
s(S'into'
p3261
S'a'
tp3262
F4
s(S'against'
p3263
S'his'
tp3264
F4
s(S'do'
S'something'
p3265
tp3266
F2
s(S'back'
p3267
S'at'
p3268
tp3269
F4
s(S'took'
S'a'
tp3270
F5.9999999999999991
s(S'wakened'
p3271
S'and'
p3272
tp3273
F2
s(S'take'
p3274
S'it.'
p3275
tp3276
F2.9999999999999996
s(S'to'
p3277
S'give'
p3278
tp3279
F5
s(S'"That\'s'
p3280
S'not'
p3281
tp3282
F2
s(S'a'
S'grain'
p3283
tp3284
F2
s(g1635
S'after'
tp3285
F2
s(S'now.'
p3286
S'It'
p3287
tp3288
F2
s(S'always'
S'had'
tp3289
F2
s(S'Cohn.'
p3290
S'He'
p3291
tp3292
F2.9999999999999996
s(S'Well,'
p3293
S'it'
tp3294
F2
s(S'if'
p3295
S'he'
tp3296
F15
s(S'the'
p3297
S'second'
p3298
tp3299
F4
s(S'a'
S'male'
p3300
tp3301
F2
s(S'it'
S'when'
tp3302
F4
s(S'far'
S'back'
tp3303
F2
s(S'away'
p3304
S'from'
p3305
tp3306
F11.999999999999998
s(g1197
S'against'
tp3307
F4
s(S'he'
S'looked'
tp3308
F2.9999999999999996
s(S'am'
g1800
tp3309
F2
s(g235
S'leave'
p3310
tp3311
F2.9999999999999996
s(S'still'
p3312
S'had'
tp3313
F2
s(S'the'
S'dip'
p3314
tp3315
F2.9999999999999996
s(S'black'
p3316
S'men'
p3317
tp3318
F2
s(S'from'
S'me'
p3319
tp3320
F2
s(S'If'
p3321
S'they'
p3322
tp3323
F4
s(S'all'
p3324
S'right'
p3325
tp3326
F5
s(S'high'
p3327
S'in'
tp3328
F2
s(g614
S'still'
p3329
tp3330
F14
s(g3314
S'and'
p3331
tp3332
F2
s(S'the'
S'packs'
p3333
tp3334
F2.9999999999999996
s(S'blow'
p3335
S'them?"'
p3336
tp3337
F2
s(S'thought'
p3338
S'it'
p3339
tp3340
F2
s(S'the'
S'driver'
tp3341
F8
s(S'He'
S'grinned.'
p3342
tp3343
F2
s(S'the'
S'bow'
p3344
tp3345
F5.9999999999999991
s(S'was'
S'funny.'
p3346
tp3347
F2.9999999999999996
s(S'said'
S'Anselmo'
p3348
tp3349
F2
s(g678
S'clock,\x94'
p3350
tp3351
F2
s(S'nor'
p3352
S'in'
p3353
tp3354
F2
s(S'gone'
S'to'
p3355
tp3356
F4
s(S'to'
p3357
S'let'
tp3358
F2
s(S'better'
p3359
S'with'
tp3360
F2
s(S'could'
p3361
S'walk'
p3362
tp3363
F2.9999999999999996
s(S'one'
p3364
S'place'
p3365
tp3366
F2
s(S'here'
p3367
S'the'
p3368
tp3369
F2
s(g3245
S'Robert'
tp3370
F2
s(S'down'
p3371
S'the'
p3372
tp3373
F22
s(S'"No,'
p3374
S'I'
tp3375
F2
s(S'it'
p3376
S'came'
p3377
tp3378
F4
s(S'him'
S'off'
p3379
tp3380
F2
s(S'is'
p3381
g934
tp3382
F2
s(S'it'
p3383
S'away'
p3384
tp3385
F4
s(S'Once'
p3386
S'he'
p3387
tp3388
F2
s(S'"Nobody'
p3389
S'ever'
p3390
tp3391
F2
s(S'and'
S'smiled'
tp3392
F4
s(S'now."'
p3393
S'She'
p3394
tp3395
F2
s(S'to'
S'think'
tp3396
F7
s(S'Just'
p3397
S'then'
tp3398
F5
s(S'wiped'
p3399
S'the'
p3400
tp3401
F2
s(S'in'
p3402
S'five'
p3403
tp3404
F2
s(g3198
S'\x93You\x92re'
p3405
tp3406
F5
s(S'had'
p3407
S'told'
p3408
tp3409
F2
s(S'come'
S'up'
p3410
tp3411
F5.9999999999999991
s(S'that'
p3412
S'we'
tp3413
F2.9999999999999996
s(S'was'
S'good'
p3414
tp3415
F2
s(S'Frances'
p3416
S'was'
tp3417
F2
s(S'beyond'
p3418
g993
tp3419
F2
s(S'the'
S'safety'
p3420
tp3421
F2
s(S'with'
p3422
S'it,'
p3423
tp3424
F2
s(g2710
S'he'
tp3425
F5.9999999999999991
s(S'him'
p3426
S'down'
tp3427
F2
s(S'a'
S'chap'
p3428
tp3429
F2
s(S'I'
S'wish'
tp3430
F7
s(S'to'
S'her'
p3431
tp3432
F2.9999999999999996
s(S'showed'
p3433
S'in'
p3434
tp3435
F2
s(S'One'
p3436
S'of'
tp3437
F2
s(S'Mademoiselle'
p3438
S'Georgette'
p3439
tp3440
F2
s(g140
S'years'
p3441
tp3442
F2
s(S'a'
S'friendly'
p3443
tp3444
F2
s(S'for'
S'him.'
p3445
tp3446
F2
s(S'covered'
p3447
S'with'
p3448
tp3449
F2
s(S'feel'
p3450
S'that'
p3451
tp3452
F2
s(S'"Pablo'
p3453
S'was'
p3454
tp3455
F2
s(S'and'
p3456
S'every'
tp3457
F2
s(g1790
S'smiled.'
p3458
tp3459
F2
s(S'the'
S'stick'
p3460
tp3461
F2
s(S'don\x92t'
p3462
S'you'
p3463
tp3464
F2.9999999999999996
s(S'him'
p3465
S'in'
tp3466
F7
s(S'time'
p3467
g1866
tp3468
F5
s(S'We'
p3469
S'had'
tp3470
F5
s(S'shape'
p3471
S'of'
tp3472
F2
s(S'bad'
p3473
S'as'
tp3474
F2
s(S'bring'
p3475
S'you'
p3476
tp3477
F2
s(g2437
S'bring'
p3478
tp3479
F2
s(S'cut'
p3480
S'the'
tp3481
F4
s(g2914
S'and'
p3482
tp3483
F2
s(S'not'
p3484
S'really'
tp3485
F5
s(S'what'
S'you'
tp3486
F4
s(S'be'
p3487
g3324
tp3488
F2
s(S'skiff'
S'and'
tp3489
F5
s(S'"And'
S'I'
tp3490
F2
s(S'not'
S'remember.'
p3491
tp3492
F2
s(S'considered'
p3493
S'it'
p3494
tp3495
F2
s(S'what'
S'she'
p3496
tp3497
F2.9999999999999996
s(S'it'
p3498
S'the'
p3499
tp3500
F2
s(S'the'
S'bowl'
p3501
tp3502
F2
s(S'glass'
S'of'
p3503
tp3504
F2
s(S'then'
p3505
S'I'
tp3506
F2.9999999999999996
s(S'gypsy'
S'said'
tp3507
F4
s(S'came'
p3508
S'out'
p3509
tp3510
F11
s(S'said.'
S'"He'
tp3511
F5
s(g256
S'the'
p3512
tp3513
F31
s(S'more'
p3514
g623
tp3515
F2
s(S'not'
S'know'
p3516
tp3517
F8
s(S'his'
S'hand.'
tp3518
F2
s(S'and'
p3519
S'each'
p3520
tp3521
F2.9999999999999996
s(S"don't"
S'care'
p3522
tp3523
F2
s(S'it.'
p3524
S'Then'
tp3525
F4
s(g2955
S'and'
tp3526
F2
s(S'girl'
p3527
S'in'
p3528
tp3529
F2
s(S"don't"
S'believe'
p3530
tp3531
F4
s(S'heard'
S'a'
tp3532
F2
s(S'me,"'
p3533
S'the'
tp3534
F2
s(S'not'
S'care.'
p3535
tp3536
F2
s(S'you'
S'if'
tp3537
F2
s(S'about'
p3538
S'it.'
p3539
tp3540
F8
s(S'\x93Eat'
p3541
S'it'
p3542
tp3543
F2
s(S'don\x92t'
p3544
S'have'
tp3545
F5
s(S'Now'
p3546
S'is'
tp3547
F2
s(S'anything'
p3548
S'to'
p3549
tp3550
F5
s(S'"Well,'
p3551
S"I'll"
p3552
tp3553
F2
s(S'Macomber'
S'was'
tp3554
F5
s(S'"Would'
p3555
S'you'
tp3556
F4
s(S'"We'
p3557
S'can'
p3558
tp3559
F5
s(S'"Yes,"'
p3560
S'I'
tp3561
F2.9999999999999996
s(S'be'
S'too'
p3562
tp3563
F2
s(S'Can'
p3564
S'you'
p3565
tp3566
F2
s(S'would'
S'rather'
p3567
tp3568
F4
s(S'at'
S'Macomber'
p3569
tp3570
F2
s(S'could'
S'make'
tp3571
F2.9999999999999996
s(S'leaning'
p3572
S'forward'
p3573
tp3574
F2
s(S'Wilson'
S'said.'
tp3575
F15
s(S'the'
S'left'
p3576
tp3577
F2
s(g1829
S'take'
tp3578
F10
s(S'thousand'
p3579
S'dollars'
p3580
tp3581
F2.9999999999999996
s(S'at'
S'her.'
p3582
tp3583
F2
s(S'shoes'
p3584
S'and'
tp3585
F2
s(S'were'
p3586
S'down'
p3587
tp3588
F2
s(S'go'
S'there'
p3589
tp3590
F2
s(S'before'
p3591
S'and'
tp3592
F2
s(S'have'
S'heard'
p3593
tp3594
F2
s(S'lifted'
p3595
S'the'
tp3596
F2
s(S'said'
S'aloud'
p3597
tp3598
F2
s(S'ahead'
p3599
S'of'
p3600
tp3601
F5
s(S'where'
p3602
S'Cohn'
p3603
tp3604
F2
s(S'that'
p3605
g3003
tp3606
F23
s(S'himself'
S'and'
p3607
tp3608
F4
s(S'will'
S'eat'
p3609
tp3610
F2
s(S'far'
S'side.'
p3611
tp3612
F2
s(S'the'
S'current.'
p3613
tp3614
F4
s(S'said.'
S'We'
p3615
tp3616
F4
s(S'down'
S'again'
p3617
tp3618
F2
s(S'smiled'
S'again.'
p3619
tp3620
F2
s(S'girl'
S'said.'
p3621
tp3622
F5
s(S'that'
p3623
S'he'
p3624
tp3625
F34
s(g2149
S'watched'
tp3626
F2
s(S'of'
p3627
S'him,'
p3628
tp3629
F2.9999999999999996
s(S'road'
p3630
S'on'
p3631
tp3632
F2
s(g2380
S'ran'
tp3633
F2
s(S'and'
S'come'
tp3634
F2.9999999999999996
s(S'her.'
p3635
S'But'
p3636
tp3637
F2
s(S'not'
S'going'
p3638
tp3639
F4
s(S'You'
p3640
S'understand'
p3641
tp3642
F2
s(S'the'
S'thickness'
p3643
tp3644
F2
s(S'been'
S'very'
p3645
tp3646
F2
s(S'Then'
p3647
S'when'
p3648
tp3649
F2
s(S'it'
p3650
S'went'
p3651
tp3652
F2.9999999999999996
s(S'will'
S'all'
p3653
tp3654
F2
s(S'by'
p3655
S'a'
tp3656
F5.9999999999999991
s(S'man'
S'to'
tp3657
F2
s(S'after'
p3658
S'a'
tp3659
F2.9999999999999996
s(S'should'
S'think'
p3660
tp3661
F2
s(S'should'
p3662
S'I'
tp3663
F4
s(S'the'
S'cast'
p3664
tp3665
F2.9999999999999996
s(S'over'
p3666
S'the'
tp3667
F20
s(g1140
S'make'
tp3668
F4
s(S'he'
p3669
S'said'
tp3670
F23
s(S'men'
p3671
S'as'
tp3672
F4
s(S'it'
p3673
S'seemed'
p3674
tp3675
F2.9999999999999996
s(g1531
g879
tp3676
F2
s(S'the'
S'Parc'
p3677
tp3678
F2
s(S'to'
p3679
S'see'
p3680
tp3681
F21
s(g2751
S'call'
p3682
tp3683
F2
s(S'was'
g1792
tp3684
F2
s(S'had'
S'only'
tp3685
F2
s(S'many'
p3686
S'books,'
p3687
tp3688
F2.9999999999999996
s(S'the'
S'Boulevard'
p3689
tp3690
F7
s(S'you'
p3691
S'start'
p3692
tp3693
F2
s(S'woman'
S'came'
tp3694
F2
s(S"She's"
p3695
S'a'
tp3696
F2
s(S'one'
p3697
S'of'
tp3698
F28
s(S'not'
S'a'
tp3699
F2.9999999999999996
s(S'pack'
p3700
S'and'
tp3701
F2
s(S'looked'
S'as'
tp3702
F2
s(S'he'
S'is'
p3703
tp3704
F10
s(S'"I\'ve'
p3705
g834
tp3706
F2
s(S'By'
p3707
S'that'
tp3708
F2
s(S'Robert'
p3709
S'Cohn'
p3710
tp3711
F11
s(S'You'
p3712
S'do'
p3713
tp3714
F2.9999999999999996
s(S'the'
S'gun-bearer'
p3715
tp3716
F2.9999999999999996
s(S'the'
p3717
S'others'
p3718
tp3719
F2
s(S'York,'
p3720
g3129
tp3721
F2
s(S'you'
p3722
S'think'
p3723
tp3724
F9
s(S'shadow'
p3725
S'of'
tp3726
F2.9999999999999996
s(S'got'
p3727
S'the'
p3728
tp3729
F2.9999999999999996
s(g3573
S'against'
tp3730
F2
s(S'She'
p3731
S'is'
p3732
tp3733
F2.9999999999999996
s(S'\x93I'
p3734
S'wish'
p3735
tp3736
F5
s(S'by'
p3737
S'his'
p3738
tp3739
F2
s(S'fish'
p3740
S'and'
tp3741
F13
s(S'Anselmo'
p3742
S'said'
tp3743
F2
s(S'me'
S'feel'
tp3744
F2
s(S'with'
S'water?"'
p3745
tp3746
F2.9999999999999996
s(g962
S'newspaper'
p3747
tp3748
F2.9999999999999996
s(S'it'
p3749
S'go'
p3750
tp3751
F2
s(S'watching'
p3752
S'his'
p3753
tp3754
F2
s(S'and'
p3755
g1730
tp3756
F2.9999999999999996
s(S'what'
S'the'
tp3757
F2
s(S'near'
p3758
S'the'
tp3759
F2
s(S'there'
p3760
S'were'
p3761
tp3762
F7
s(S'always'
p3763
S'thought'
p3764
tp3765
F2
s(S'on'
p3766
S'ahead'
tp3767
F2
s(S'dance'
p3768
S'with'
tp3769
F2
s(S'is'
p3770
S'in'
p3771
tp3772
F2.9999999999999996
s(S'away'
S'and'
p3773
tp3774
F5
s(S'a'
S'short'
p3775
tp3776
F2.9999999999999996
s(S'they'
S'could'
p3777
tp3778
F4
s(S'place'
p3779
S'to'
tp3780
F2
s(S'floor'
p3781
S'of'
tp3782
F2.9999999999999996
s(S'"And'
p3783
S'we'
p3784
tp3785
F2
s(S'at'
p3786
S'an'
p3787
tp3788
F2
s(S'looked'
p3789
S'straight'
p3790
tp3791
F2
s(S'They'
p3792
g1468
tp3793
F5.9999999999999991
s(S'loop'
p3794
S'of'
tp3795
F2
s(S'something'
p3796
S'about'
tp3797
F2
s(S'you?"'
p3798
S'"I'
tp3799
F2
s(S'could'
p3800
S'not'
p3801
tp3802
F16
s(S'Georgette'
p3803
S'turned'
tp3804
F2
s(S'\x93I'
p3805
g121
tp3806
F2
s(S'mountains.'
p3807
S'It'
tp3808
F2
s(S'man'
S'said'
p3809
tp3810
F9
s(S'kept'
p3811
S'on'
p3812
tp3813
F2
s(S'but'
p3814
S'I'
tp3815
F9
s(S'in'
p3816
S'such'
tp3817
F2
s(S'He'
p3818
S'remembered'
p3819
tp3820
F2
s(S'you'
S'hear'
p3821
tp3822
F2.9999999999999996
s(S'the'
S'mountains'
p3823
tp3824
F2.9999999999999996
s(S'"I'
p3825
S'must'
p3826
tp3827
F2
s(S'his'
S'feet.'
p3828
tp3829
F2
s(S'the'
S'car,\x94'
p3830
tp3831
F2
s(S'sudden'
p3832
S'hot'
p3833
tp3834
F2
s(S'of'
p3835
S'horses'
p3836
tp3837
F2
s(S'"No,"'
p3838
S'she'
tp3839
F2
s(S'bottle'
p3840
S'of'
p3841
tp3842
F2
s(S'water'
S'and'
tp3843
F11.999999999999998
s(S'the'
S'rare'
p3844
tp3845
F2.9999999999999996
s(S'for'
S'it'
tp3846
F2.9999999999999996
s(S'"All'
p3847
g3215
tp3848
F2.9999999999999996
s(S'said.'
g2050
tp3849
F2
s(S'one'
p3850
S'time'
p3851
tp3852
F2
s(S'go'
p3853
g1167
tp3854
F2
s(S'come'
S'from'
p3855
tp3856
F2
s(S'are'
g399
tp3857
F2.9999999999999996
s(S'out'
p3858
S'of'
tp3859
F25
s(S'the'
S'bull'
p3860
tp3861
F4
s(S'done'
p3862
S'it'
p3863
tp3864
F2
s(S'from'
p3865
S'under'
tp3866
F2
s(S'was'
S'too'
p3867
tp3868
F5.9999999999999991
s(g2562
S'and'
p3869
tp3870
F4
s(S'before;'
p3871
S'but'
tp3872
F2
s(S'had'
p3873
S'their'
tp3874
F2
s(S'them'
p3875
S'when'
tp3876
F2
s(S'"Isn\'t'
p3877
S'she?"'
p3878
tp3879
F2
s(S'saw'
p3880
S'the'
p3881
tp3882
F17
s(S'It'
p3883
S'is'
p3884
tp3885
F15
s(S'she'
p3886
S'was'
tp3887
F16
s(S'Wilson'
p3888
S'to'
tp3889
F2
s(S'Jordan'
S'looked'
tp3890
F2.9999999999999996
s(S'well,"'
p3891
S'I'
tp3892
F2
s(S'not?"'
S'"I'
tp3893
F2
s(S'The'
p3894
S'boy'
p3895
tp3896
F10
s(g3463
S'go'
tp3897
F4
s(S'the'
S'time'
tp3898
F10
s(S'said'
p3899
S'Robert'
p3900
tp3901
F5
s(S'in'
S'any'
p3902
tp3903
F2
s(S'you'
p3904
S'ever'
p3905
tp3906
F2.9999999999999996
s(g3881
S'native'
p3907
tp3908
F2.9999999999999996
s(S'\x93Should'
p3909
S'we'
p3910
tp3911
F2
s(S'"She\'s'
p3912
S'a'
tp3913
F2
s(S'as'
p3914
S'many'
tp3915
F2
s(S'said'
S'proudly.'
p3916
tp3917
F2
s(S'lion'
S'roared'
p3918
tp3919
F2.9999999999999996
s(g2347
S'the'
tp3920
F2
s(S'I'
g967
tp3921
F2.9999999999999996
s(S'the'
S'pass'
p3922
tp3923
F2.9999999999999996
s(S'you'
S'called?"'
p3924
tp3925
F2
s(S'I'
S'can'
p3926
tp3927
F21
s(S'He'
S'heard'
tp3928
F2
s(S'those'
p3929
S'who'
p3930
tp3931
F4
s(S'good'
p3932
S'with'
tp3933
F2
s(S'blue'
p3934
S'water'
p3935
tp3936
F2
s(S'the'
S'New'
tp3937
F2
s(S'the'
S'older'
p3938
tp3939
F2.9999999999999996
s(S'very'
p3940
S'strong'
p3941
tp3942
F2
s(S'became'
p3943
S'too'
p3944
tp3945
F2
s(S'He'
p3946
S'shook'
tp3947
F2.9999999999999996
s(S'the'
S'grass.'
p3948
tp3949
F2
s(S'said.'
S'\x93I\x92m'
p3950
tp3951
F2
s(S'big'
S'gun'
p3952
tp3953
F2
s(S'remember'
p3954
S'that'
p3955
tp3956
F2
s(S'been'
S'here'
p3957
tp3958
F2
s(S'you'
p3959
S'wouldn\x92t'
p3960
tp3961
F5
s(S'you'
S'going'
tp3962
F2.9999999999999996
s(S'is'
S'an'
tp3963
F2.9999999999999996
s(S'him.'
p3964
S'"The'
p3965
tp3966
F2
s(S'"You'
S'know'
p3967
tp3968
F2
s(S'now.'
p3969
S'"He'
tp3970
F2
s(S'name'
p3971
S'and'
tp3972
F2
s(S'across'
p3973
S'his'
p3974
tp3975
F5
s(S'have'
g1623
tp3976
F2.9999999999999996
s(S'speak'
p3977
S'to'
tp3978
F2
s(S'thought,'
p3979
S'and'
p3980
tp3981
F2.9999999999999996
s(S'you'
p3982
S'know.'
p3983
tp3984
F4
s(S'Jordan'
S'had'
tp3985
F2.9999999999999996
s(S'and'
S"I'm"
p3986
tp3987
F2
s(S'remember'
p3988
S'when'
tp3989
F2
s(g1824
S'two'
p3990
tp3991
F2.9999999999999996
s(S'Mrs.'
p3992
S'Braddocks'
p3993
tp3994
F10
s(S'and,'
p3995
g3572
tp3996
F2
s(S'coming'
p3997
S'in'
tp3998
F2
s(S'the'
S'pack'
p3999
tp4000
F5
s(S'asked'
p4001
S'Pablo.'
p4002
tp4003
F2
s(S'the'
g553
tp4004
F4
s(S'the'
p4005
S'problem'
p4006
tp4007
F2
s(S'said.'
S'\x93What'
p4008
tp4009
F2
s(S'glass.'
p4010
S'The'
p4011
tp4012
F2
s(S'tops'
p4013
S'of'
tp4014
F2
s(S'can'
p4015
S'sit'
p4016
tp4017
F2
s(S'his'
p4018
S'coffee'
p4019
tp4020
F2
s(S'the'
S'station.'
p4021
tp4022
F2
s(S'morning'
S'and'
tp4023
F2
s(g3851
S'or'
p4024
tp4025
F2
s(S'people'
p4026
S'that'
p4027
tp4028
F4
s(S'help'
p4029
S'them.'
p4030
tp4031
F2
s(S'look'
p4032
S'too'
p4033
tp4034
F2
s(S'"Is'
p4035
S'there'
p4036
tp4037
F2
s(S'a'
S'table.'
p4038
tp4039
F2
s(S'\x93No,\x94'
p4040
S'said'
p4041
tp4042
F2.9999999999999996
s(S'too'
p4043
S'and'
tp4044
F5
s(g2651
S'line'
p4045
tp4046
F27
s(S'Think'
p4047
S'of'
tp4048
F2
s(S'and'
p4049
S'while'
tp4050
F2
s(S"didn't"
p4051
S'ask'
tp4052
F2
s(S'stay'
p4053
S'with'
tp4054
F2.9999999999999996
s(S'do'
p4055
S'I'
tp4056
F2.9999999999999996
s(S'"Oh,'
p4057
S'cut'
tp4058
F2
s(S'a'
S'little.'
p4059
tp4060
F4
s(S'make'
p4061
S'him'
tp4062
F2
s(S'talk'
S'to'
p4063
tp4064
F2
s(S'boy'
S'asked.'
p4065
tp4066
F4
s(S'\x93And'
p4067
S'I'
tp4068
F2
s(S'the'
S'station'
p4069
tp4070
F2.9999999999999996
s(S'just'
S'brought'
p4071
tp4072
F2
s(S'the'
g716
tp4073
F2
s(g3986
S'not'
tp4074
F2
s(S'and'
S'swung'
p4075
tp4076
F2
s(S'was'
g2025
tp4077
F2
s(S'said.'
g2282
tp4078
F2.9999999999999996
s(S'his'
p4079
S'father'
p4080
tp4081
F2
s(S'them.'
p4082
S'He'
p4083
tp4084
F4
s(S'him'
p4085
g3605
tp4086
F2
s(S'get'
S'to'
tp4087
F2
s(S'were'
p4088
S'coming'
tp4089
F2
s(S'stopped'
S'and'
tp4090
F2
s(S'and'
S'maybe'
p4091
tp4092
F2
s(S'about'
p4093
S'it'
tp4094
F5
s(S'my'
S'mind'
p4095
tp4096
F2
s(S'don\x92t'
p4097
S'want'
tp4098
F13
s(S'would'
p4099
S'show'
p4100
tp4101
F2
s(S'to'
p4102
S'leave'
p4103
tp4104
F8
s(S'had'
S'come'
p4105
tp4106
F2.9999999999999996
s(S'The'
S'other'
p4107
tp4108
F5
s(S'\x93I\x92ll'
p4109
S'get'
tp4110
F2
s(S'they'
g1376
tp4111
F5
s(S'\x93Let\x92s'
p4112
g2872
tp4113
F2
s(S'the'
p4114
S'grass'
p4115
tp4116
F5.9999999999999991
s(g2138
S'stand'
p4117
tp4118
F2.9999999999999996
s(S'the'
S'girl'
p4119
tp4120
F19
s(S'of'
p4121
g3017
tp4122
F4
s(S'two'
p4123
S'glasses'
p4124
tp4125
F2
s(S'the'
g184
tp4126
F2
s(S'"No,"'
p4127
S'said'
p4128
tp4129
F2.9999999999999996
s(S'it.'
p4130
S'We'
tp4131
F2
s(S'bull'
S'was'
tp4132
F2
s(S'trying'
p4133
S'to'
p4134
tp4135
F2.9999999999999996
s(S'Monte'
p4136
g1772
tp4137
F2
s(S'to'
S'cry.'
p4138
tp4139
F2
s(S'went'
p4140
S'back'
tp4141
F2
s(S'her'
p4142
S'hat.'
p4143
tp4144
F2
s(S'it'
p4145
S'by'
p4146
tp4147
F2
s(S'on'
p4148
g1533
tp4149
F2.9999999999999996
s(S'that.'
S'That'
tp4150
F2
s(S'had'
p4151
S'been'
p4152
tp4153
F36
s(S'to'
g3768
tp4154
F2
s(S'Jordan'
S'and'
tp4155
F2.9999999999999996
s(g662
S'of'
tp4156
F2
s(S'"The'
p4157
S'old'
tp4158
F2.9999999999999996
s(S'\x93I'
g1362
tp4159
F2
s(S'all'
p4160
S'through'
p4161
tp4162
F2
s(S'made'
S'one'
p4163
tp4164
F2
s(S'was'
p4165
g3498
tp4166
F2
s(S'though'
S'they'
tp4167
F2
s(S'expensive'
p4168
S'and'
tp4169
F2
s(S'and,'
p4170
S'as'
p4171
tp4172
F2.9999999999999996
s(S'name'
p4173
g368
tp4174
F2
s(S'none'
p4175
g620
tp4176
F2.9999999999999996
s(S'the'
S'sort'
p4177
tp4178
F2
s(S'round'
p4179
S'and'
tp4180
F2
s(S'I'
S"can't"
p4181
tp4182
F2.9999999999999996
s(S'"You'
p4183
g2277
tp4184
F2
s(S'street'
p4185
S'was'
p4186
tp4187
F2.9999999999999996
s(S'the'
S'girl.'
p4188
tp4189
F5.9999999999999991
s(S'sullenly.'
p4190
S'"What'
p4191
tp4192
F2
s(S'stop'
p4193
S'talking?"'
p4194
tp4195
F2
s(S'me,"'
p4196
S'she'
tp4197
F2
s(S'fish'
S'was'
tp4198
F2.9999999999999996
s(g262
S'is'
tp4199
F4
s(S'said,'
g2242
tp4200
F2
s(S'the'
p4201
S'same'
p4202
tp4203
F10
s(S'his'
S'flat,'
p4204
tp4205
F2
s(S'Maybe'
p4206
S'he'
tp4207
F2.9999999999999996
s(S'not'
p4208
S'like'
tp4209
F5
s(S'was'
S'happy'
p4210
tp4211
F2
s(S'thank'
p4212
S'him.\x94'
tp4213
F2
s(S'yellow'
p4214
S'rice'
p4215
tp4216
F2
s(S'it'
p4217
g219
tp4218
F4
s(S'have'
S'enough'
p4219
tp4220
F2
s(S'half'
p4221
S'a'
tp4222
F2
s(S'face'
p4223
S'as'
p4224
tp4225
F2
s(S'I'
S'heard'
p4226
tp4227
F2
s(S'at'
p4228
S'their'
p4229
tp4230
F2
s(S'only'
g3630
tp4231
F2
s(S'and'
p4232
g417
tp4233
F2.9999999999999996
s(S'a'
S'boy'
p4234
tp4235
F4
s(S'the'
S'tent,'
p4236
tp4237
F2
s(S'something'
p4238
S'truly'
p4239
tp4240
F2
s(S'not'
p4241
g3001
tp4242
F2
s(S'went'
S'on'
p4243
tp4244
F2.9999999999999996
s(S'a'
S'table'
p4245
tp4246
F2.9999999999999996
s(S'knew'
p4247
g4093
tp4248
F2.9999999999999996
s(S'lose'
p4249
S'your'
p4250
tp4251
F2
s(S'ask'
S'you'
tp4252
F4
s(S'whose'
p4253
S'name'
p4254
tp4255
F2
s(S'Perhaps'
p4256
S'I'
tp4257
F2.9999999999999996
s(g3169
S'shouted,'
p4258
tp4259
F2
s(g775
S'straight'
p4260
tp4261
F2
s(S'was'
S'watching'
tp4262
F2
s(g1806
S'read'
p4263
tp4264
F2.9999999999999996
s(S'him.'
S'"I'
tp4265
F4
s(S'been'
p4266
S'thinking'
p4267
tp4268
F2.9999999999999996
s(S'angry.'
p4269
S'I'
tp4270
F2
s(S'liked'
S'the'
p4271
tp4272
F2
s(S'he'
S'pulled'
p4273
tp4274
F2
s(S'and'
p4275
S'have'
tp4276
F9
s(g3549
S'you."'
p4277
tp4278
F2
s(g415
S'us,'
p4279
tp4280
F2
s(S'and'
S'watched'
tp4281
F5.9999999999999991
s(S'the'
S'bar,'
p4282
tp4283
F2.9999999999999996
s(S'Have'
p4284
S'you'
p4285
tp4286
F4
s(g227
S'them'
p4287
tp4288
F2
s(S'below'
p4289
S'the'
p4290
tp4291
F4
s(S'guard'
p4292
S'will'
tp4293
F2
s(S'he'
S'baited'
p4294
tp4295
F2
s(S'the'
S'door.'
tp4296
F4
s(S'the'
p4297
S'end'
p4298
tp4299
F7
s(S'taken'
p4300
S'in'
p4301
tp4302
F2
s(g1738
S'have'
p4303
tp4304
F17
s(S'When'
p4305
S'he'
p4306
tp4307
F2
s(S'that'
S'they'
p4308
tp4309
F9
s(S'middleweight'
p4310
S'boxing'
p4311
tp4312
F2.9999999999999996
s(g3589
S'to'
tp4313
F2.9999999999999996
s(S'know'
S'the'
p4314
tp4315
F2.9999999999999996
s(S'she'
S'has'
tp4316
F2
s(S'was'
S'leaning'
tp4317
F2
s(S'man'
S'sat'
tp4318
F2
s(S'the'
p4319
g1108
tp4320
F13
s(S'him'
S'since'
p4321
tp4322
F2
s(S'everything'
p4323
S'is'
p4324
tp4325
F2
s(S'me'
p4326
S'in'
tp4327
F2
s(S'his'
p4328
S'tongue.'
p4329
tp4330
F2.9999999999999996
s(S'bring'
S'up'
p4331
tp4332
F2
s(S'I'
S'wanted'
tp4333
F2
s(S'said.'
g1303
tp4334
F13
s(S'like'
p4335
S'that.'
p4336
tp4337
F5.9999999999999991
s(S'make'
p4338
S'it'
p4339
tp4340
F2.9999999999999996
s(S'said.'
g713
tp4341
F27
s(S'do'
S'about'
p4342
tp4343
F2
s(S'said.'
S'"What'
p4344
tp4345
F5
s(S'started'
p4346
S'and'
tp4347
F2
s(S'for'
p4348
S'him'
tp4349
F10
s(S'funny.'
p4350
S'I'
tp4351
F2
s(S'there'
S'with'
tp4352
F2
s(S'said'
p4353
S'Macomber,'
p4354
tp4355
F2
s(S'enough'
p4356
g3120
tp4357
F2
s(S'Krum.'
p4358
S'"I'
p4359
tp4360
F2
s(S'a'
S'taxi.'
p4361
tp4362
F2
s(S'until'
p4363
S'they'
tp4364
F2
s(S'engine'
p4365
S'rose'
p4366
tp4367
F2
s(S'It'
p4368
S'was'
tp4369
F52
s(S'your'
p4370
S'life'
tp4371
F2
s(S'the'
S'last'
p4372
tp4373
F7
s(S'who'
S'are'
p4374
tp4375
F2
s(S'not'
p4376
g2166
tp4377
F2.9999999999999996
s(S'can'
S'get'
p4378
tp4379
F4
s(S'He'
p4380
S'sat'
tp4381
F5.9999999999999991
s(S'line'
S'he'
tp4382
F2
s(S'not'
p4383
S'to'
p4384
tp4385
F11
s(S'to'
S'hunt'
p4386
tp4387
F2.9999999999999996
s(S'took'
p4388
S'the'
tp4389
F7
s(S'Let'
p4390
S'us'
p4391
tp4392
F2
s(S'took'
p4393
S'her'
p4394
tp4395
F2
s(S'of'
S'him'
p4396
tp4397
F5
s(S'"Oh,'
p4398
g3891
tp4399
F2
s(S'then'
p4400
S'it'
tp4401
F2
s(S'fish,\x94'
p4402
g3669
tp4403
F2
s(S'across'
p4404
g1208
tp4405
F19
s(S'when'
p4406
S'they'
tp4407
F10
s(S'where'
p4408
S'she'
p4409
tp4410
F2
s(S'into'
p4411
S'it'
p4412
tp4413
F2
s(S'"There'
p4414
S'was'
tp4415
F2
s(S'you.'
p4416
S'I'
tp4417
F2
s(S'want'
p4418
g2229
tp4419
F4
s(S'or'
p4420
S'to'
p4421
tp4422
F2
s(S'to'
S'you?"'
p4423
tp4424
F2
s(S'stern'
p4425
S'of'
tp4426
F2
s(S'man'
S'had'
p4427
tp4428
F2.9999999999999996
s(S'again.'
p4429
S'She'
p4430
tp4431
F2
s(S'and'
S'sometimes'
p4432
tp4433
F2
s(S'"There'
p4434
S'is'
tp4435
F5.9999999999999991
s(g38
S'simple."'
p4436
tp4437
F4
s(S'you'
S'been?\x94'
p4438
tp4439
F2
s(S'the'
S'count.'
p4440
tp4441
F2.9999999999999996
s(S'\x93I'
S'won\x92t'
p4442
tp4443
F2
s(g3826
S'know'
tp4444
F2.9999999999999996
s(S'were'
S'working'
p4445
tp4446
F2
s(S'the'
S'proprietor'
p4447
tp4448
F2
s(S'Wilson,'
p4449
S'his'
tp4450
F2
s(S'and'
S'Francis'
p4451
tp4452
F4
s(S'the'
S'rest'
p4453
tp4454
F2.9999999999999996
s(S'"Well,"'
p4455
S'I'
tp4456
F5.9999999999999991
s(S'it'
p4457
g579
tp4458
F4
s(S'pot'
p4459
S'of'
p4460
tp4461
F2
s(S'fathoms'
g1471
tp4462
F2
s(S'I'
S'guess.'
p4463
tp4464
F2
s(S'of'
p4465
S'Africa'
p4466
tp4467
F2
s(S'\x93I'
S'wouldn\x92t'
p4468
tp4469
F2
s(S'I'
g2300
tp4470
F8
s(S'be'
S'afraid.'
p4471
tp4472
F2
s(S'you'
S'say'
p4473
tp4474
F2.9999999999999996
s(S'him.'
p4475
S'It'
tp4476
F2
s(S'I'
S'went'
tp4477
F7
s(S'way'
S'she'
p4478
tp4479
F2
s(S'and'
S'was'
p4480
tp4481
F9
s(S'front'
S'of'
tp4482
F5.9999999999999991
s(g2417
S'and'
p4483
tp4484
F2
s(S'mujer'
p4485
S'of'
p4486
tp4487
F5
s(S'have'
S'not'
p4488
tp4489
F4
s(S'until'
p4490
S'I'
tp4491
F2
s(S'be'
S'hunted'
p4492
tp4493
F2
s(g1831
S'and'
p4494
tp4495
F7
s(S'the'
S'smell'
p4496
tp4497
F4
s(S'at'
p4498
S'this'
p4499
tp4500
F4
s(S'never'
p4501
S'think'
tp4502
F2.9999999999999996
s(S'wounded'
p4503
S'and'
tp4504
F2
s(S'this'
p4505
S'new'
p4506
tp4507
F2
s(S'to'
S'drive'
p4508
tp4509
F2.9999999999999996
s(S'yesterday\x92s'
p4510
S'paper'
p4511
tp4512
F2
s(S'but'
p4513
S'they'
tp4514
F4
s(S'his'
S'foot'
p4515
tp4516
F2.9999999999999996
s(S'a'
S'heavy'
p4517
tp4518
F2
s(S'"If'
p4519
S'it'
tp4520
F2
s(S'one'
p4521
g2142
tp4522
F2.9999999999999996
s(S'the'
S'gray'
p4523
tp4524
F5
s(S'taxi'
S'stopped'
p4525
tp4526
F2
s(S'glass'
p4527
S'and'
p4528
tp4529
F2
s(S'he'
S'smelled'
tp4530
F2
s(g3680
S'the'
tp4531
F20
s(S'today'
p4532
S'there'
p4533
tp4534
F2
s(S'could'
p4535
S'go'
p4536
tp4537
F2
s(g1857
S'and'
tp4538
F5
s(S'said'
p4539
S'Krum.'
p4540
tp4541
F2.9999999999999996
s(S'and'
p4542
S'your'
p4543
tp4544
F2.9999999999999996
s(S'man'
S'could'
p4545
tp4546
F11
s(S'too.'
p4547
g1423
tp4548
F2.9999999999999996
s(S'He'
p4549
S'would'
p4550
tp4551
F5
s(S'the'
S'women'
p4552
tp4553
F2
s(S'not'
S'think'
tp4554
F2
s(S'"You'
p4555
S'should'
tp4556
F2
s(S'"But'
S'she'
tp4557
F2
s(S'the'
S'Caf\xe9'
p4558
tp4559
F2.9999999999999996
s(S'and'
p4560
S'up'
tp4561
F2
s(S'not'
S'mine.'
p4562
tp4563
F2
s(S'said.'
S'\x93Tell'
p4564
tp4565
F2.9999999999999996
s(S'I'
g747
tp4566
F9
s(g1042
S'of'
p4567
tp4568
F4
s(S'eating'
p4569
S'the'
p4570
tp4571
F2
s(S'the'
S'lunch'
p4572
tp4573
F2
s(S'turned'
p4574
S'away'
p4575
tp4576
F2
s(S'people'
p4577
S'than'
tp4578
F2
s(g2611
S'have'
p4579
tp4580
F2
s(S'the'
g4185
tp4581
F5
s(S'of'
p4582
S'that'
p4583
tp4584
F5
s(S'a'
S'living'
p4585
tp4586
F2
s(S"it's"
p4587
S'a'
tp4588
F2
s(S'think'
g2478
tp4589
F4
s(S'so'
p4590
S'close'
p4591
tp4592
F2
s(S'off'
p4593
S'her'
p4594
tp4595
F2
s(S'carry'
p4596
S'her,'
p4597
tp4598
F2
s(S'the'
p4599
S'leaves'
tp4600
F2
s(S'are'
p4601
g1570
tp4602
F2
s(S'\x93What'
p4603
S'to'
tp4604
F2
s(S'it'
S'meant'
p4605
tp4606
F2
s(S'I'
S'must'
p4607
tp4608
F15
s(S'"What'
p4609
S'do'
tp4610
F7
s(S'reserve'
p4611
S'coils.'
p4612
tp4613
F2.9999999999999996
s(S'Lady'
p4614
S'Ashley.'
p4615
tp4616
F2.9999999999999996
s(S'of'
p4617
S'hors'
p4618
tp4619
F2
s(S'I'
S'tell'
tp4620
F2.9999999999999996
s(S'and'
p4621
S'held'
tp4622
F2
s(S'and'
g1826
tp4623
F10
s(S'"At'
p4624
S'the'
p4625
tp4626
F2
s(S'man."'
p4627
S'"I'
tp4628
F2
s(S'of'
p4629
S'his'
p4630
tp4631
F36
s(S'and'
p4632
g3224
tp4633
F15
s(S'time'
p4634
g3144
tp4635
F2
s(S'you'
p4636
S'were'
p4637
tp4638
F8
s(S'could'
S'break'
p4639
tp4640
F2
s(S'the'
S'street.'
p4641
tp4642
F4
s(S'the'
S'other'
p4643
tp4644
F31
s(S'Cohn'
S'looked'
tp4645
F2.9999999999999996
s(S'said'
S'he'
tp4646
F2
s(g1245
S'and'
tp4647
F2.9999999999999996
s(S'trousers'
p4648
S'and'
tp4649
F4
s(S'that'
S'if'
tp4650
F2
s(S'Anselmo'
p4651
S'told'
tp4652
F2.9999999999999996
s(S'about'
p4653
S'all'
p4654
tp4655
F4
s(S'Anselmo'
p4656
S'said.'
p4657
tp4658
F16
s(S'Not'
p4659
S'a'
tp4660
F2
s(S'strong'
g4627
tp4661
F2
s(S'He'
p4662
S'did'
tp4663
F8
s(S'boat'
S'and'
tp4664
F2.9999999999999996
s(S'is'
S'how'
p4665
tp4666
F2.9999999999999996
s(S'they'
S'have'
p4667
tp4668
F2.9999999999999996
s(S'to'
p4669
S'find'
p4670
tp4671
F2.9999999999999996
s(S'they'
g2640
tp4672
F4
s(S'my'
p4673
S'office.'
p4674
tp4675
F2.9999999999999996
s(g4321
S'he'
p4676
tp4677
F2
s(S'out'
p4678
S'the'
p4679
tp4680
F7
s(S'about'
g3850
tp4681
F2
s(g178
S'from'
tp4682
F2
s(S'because'
p4683
S'you'
p4684
tp4685
F2.9999999999999996
s(S"don't"
S'think'
tp4686
F2
s(g314
S'stuff'
p4687
tp4688
F2
s(S'one.'
p4689
S'I'
tp4690
F2
s(S'a'
S'way'
p4691
tp4692
F5
s(S'say'
p4693
S'it'
tp4694
F4
s(g1447
S'not'
p4695
tp4696
F2
s(S'close'
p4697
S'to'
tp4698
F5.9999999999999991
s(S'hundred'
p4699
S'fathoms'
p4700
tp4701
F4
s(S'when'
p4702
S'it'
tp4703
F2
s(g4558
S'de'
p4704
tp4705
F2
s(S'I'
S'lay'
tp4706
F2
s(S'the'
p4707
S'whole'
p4708
tp4709
F7
s(S'white'
p4710
S'man'
p4711
tp4712
F2
s(S'gypsy'
S'and'
tp4713
F2
s(S'mosquito'
p4714
S'bar'
p4715
tp4716
F2
s(S'\x93Santiago,\x94'
p4717
S'the'
tp4718
F2
s(S'he'
S'got'
p4719
tp4720
F5.9999999999999991
s(S'train'
S'was'
p4721
tp4722
F2
s(S'he'
p4723
S'said.'
tp4724
F41
s(S'said.'
p4725
g3200
tp4726
F2
s(S'Now'
p4727
S'we'
tp4728
F2
s(S'thou'
p4729
S'art'
p4730
tp4731
F2
s(g3203
g961
tp4732
F2
s(S'with'
p4733
S'him.'
p4734
tp4735
F4
s(S'tried'
p4736
S'to'
p4737
tp4738
F2.9999999999999996
s(S'sitting'
p4739
S'on'
tp4740
F2.9999999999999996
s(S'it'
p4741
S'can'
tp4742
F2
s(S'of'
p4743
S'its'
p4744
tp4745
F2
s(S'you'
p4746
S'like'
tp4747
F5.9999999999999991
s(S'because'
p4748
S'of'
tp4749
F2
s(S'alone'
p4750
g2421
tp4751
F2
s(S'any'
p4752
g4121
tp4753
F4
s(S'shot'
p4754
S'at'
p4755
tp4756
F2.9999999999999996
s(S'talked'
p4757
S'about'
tp4758
F2
s(S'he'
p4759
S'must'
tp4760
F2.9999999999999996
s(S'Mr.'
p4761
S'Wilson\x92s'
p4762
tp4763
F2
s(S'be'
S'nice'
p4764
tp4765
F2.9999999999999996
s(S'shipped'
p4766
S'his'
p4767
tp4768
F2
s(S'the'
S'greatest'
p4769
tp4770
F2
s(S'at'
p4771
S'night'
p4772
tp4773
F5.9999999999999991
s(S'getting'
p4774
S'a'
tp4775
F2
s(S'very'
p4776
S'well'
p4777
tp4778
F4
s(S'his'
p4779
S'wife,'
p4780
tp4781
F2
s(S'that'
p4782
S'has'
p4783
tp4784
F2
s(g1324
S'and'
p4785
tp4786
F2
s(S'the'
S'bar'
p4787
tp4788
F7
s(S'were'
p4789
g4201
tp4790
F4
s(S'though,'
p4791
S'he'
tp4792
F2
s(S'it,"'
p4793
S'Robert'
tp4794
F2
s(S'the'
S'wine."'
p4795
tp4796
F2
s(g2609
g3880
tp4797
F10
s(S'sat'
S'with'
tp4798
F4
s(S'can\x92t'
p4799
S'have'
p4800
tp4801
F2
s(S'young'
p4802
S'man'
tp4803
F9
s(S'will'
g4338
tp4804
F2
s(S'water'
p4805
S'in'
tp4806
F2
s(S'made'
S'in'
tp4807
F2
s(S'that'
p4808
S'it'
tp4809
F17
s(S'wife'
S'came'
p4810
tp4811
F2
s(S'it.'
S'That'
tp4812
F2
s(S'It'
p4813
S'has'
p4814
tp4815
F2.9999999999999996
s(S'does'
p4816
g4208
tp4817
F2
s(S'at'
g1775
tp4818
F16
s(S'New'
p4819
S'York'
p4820
tp4821
F4
s(S'"That\x92s'
p4822
S'the'
p4823
tp4824
F2
s(S'it'
S'he'
tp4825
F2.9999999999999996
s(S'who'
p4826
S'had'
p4827
tp4828
F7
s(g2520
S'difficult."'
p4829
tp4830
F2
s(S'outside'
p4831
S'of'
tp4832
F2
s(S'them'
p4833
S'as'
tp4834
F4
s(S'to'
S'me.'
tp4835
F2.9999999999999996
s(S'had'
S'probably'
p4836
tp4837
F2
s(g2309
g706
tp4838
F28
s(S'studied'
p4839
S'the'
p4840
tp4841
F2
s(S'was'
S'so'
p4842
tp4843
F2.9999999999999996
s(S'have'
S'no'
p4844
tp4845
F5
s(S'his'
p4846
S'cup'
p4847
tp4848
F2
s(S'go'
S'on'
tp4849
F2.9999999999999996
s(S'General'
p4850
S'Staff."'
p4851
tp4852
F2
s(S'the'
S'four'
p4853
tp4854
F2
s(g428
S'Jordan.'
p4855
tp4856
F11
s(g4080
S'was'
tp4857
F2
s(g4396
S'moving'
p4858
tp4859
F2
s(S'cut'
g3383
tp4860
F2.9999999999999996
s(S'back'
p4861
S'the'
tp4862
F5
s(S'go'
S'into'
p4863
tp4864
F4
s(S'will'
p4865
S'kill'
p4866
tp4867
F2
s(g1451
S'told'
tp4868
F2.9999999999999996
s(S'that'
p4869
S'is'
p4870
tp4871
F2.9999999999999996
s(S'all'
S'his'
p4872
tp4873
F2
s(S'\x93I\x92ll'
p4874
S'have'
tp4875
F2
s(S'the'
p4876
S'Gulf'
p4877
tp4878
F2
s(S'he'
p4879
S'began'
p4880
tp4881
F2
s(S'to'
S'hell."'
p4882
tp4883
F2.9999999999999996
s(S'on'
p4884
S'all'
p4885
tp4886
F2
s(S'watched'
p4887
S'him'
tp4888
F2
s(S'Pablo."'
p4889
S'"And'
p4890
tp4891
F2
s(S'said.'
S'\x93Are'
p4892
tp4893
F2
s(S'a'
S'bit'
p4894
tp4895
F2
s(S'his'
p4896
S'back'
p4897
tp4898
F8
s(S'air'
p4899
S'and'
p4900
tp4901
F4
s(S'by'
S'that'
p4902
tp4903
F2
s(S'put'
S'on'
p4904
tp4905
F2.9999999999999996
s(S'name'
p4906
S'is'
p4907
tp4908
F2
s(S'to'
S'enjoy'
p4909
tp4910
F2
s(S'now'
p4911
S'and'
tp4912
F11.999999999999998
s(S'might'
p4913
S'as'
tp4914
F2
s(S'I'
g1034
tp4915
F5.9999999999999991
s(S'they'
p4916
g4789
tp4917
F32
s(S'been'
S'looking'
tp4918
F2
s(S'at'
S'a'
tp4919
F15
s(S'"I'
p4920
S'got'
p4921
tp4922
F2
s(S'"I'
p4923
S'don\x92t'
tp4924
F5
s(S'rested'
S'on'
tp4925
F2
s(g4342
S'a'
tp4926
F4
s(S'have'
p4927
S'I'
tp4928
F2
s(S'The'
p4929
S'fish'
p4930
tp4931
F2.9999999999999996
s(g1784
S'that'
p4932
tp4933
F2
s(g3528
S'Strasbourg'
p4934
tp4935
F2.9999999999999996
s(S'two'
g4611
tp4936
F4
s(S'that'
S'her'
p4937
tp4938
F2
s(S'was'
p4939
g474
tp4940
F8
s(S'stopped'
p4941
S'in'
tp4942
F4
s(S'the'
S'bed'
p4943
tp4944
F2.9999999999999996
s(S'watching'
p4945
S'the'
p4946
tp4947
F7
s(S'being'
p4948
S'towed'
p4949
tp4950
F2
s(S'Jordan'
S'asked,'
p4951
tp4952
F2.9999999999999996
s(S'he'
S'spoke'
p4953
tp4954
F2
s(S'dreamed'
p4955
g4465
tp4956
F4
s(S'there.'
p4957
S'Then'
tp4958
F2
s(g3410
S'before'
p4959
tp4960
F2
s(S'him'
S'when'
tp4961
F2.9999999999999996
s(S'and'
p4962
S'all."'
p4963
tp4964
F2
s(S'walked'
p4965
S'up'
tp4966
F2
s(S'a'
S'row'
p4967
tp4968
F2
s(g3333
S'and'
tp4969
F2
s(S'"I\'m'
p4970
S'not'
p4971
tp4972
F2
s(S'asked'
p4973
S'him.'
p4974
tp4975
F5
s(S'to'
S'her.'
p4976
tp4977
F5
s(S'should'
p4978
g1890
tp4979
F5.9999999999999991
s(g3747
S'and'
p4980
tp4981
F2
s(S'rather'
p4982
S'liked'
p4983
tp4984
F2.9999999999999996
s(S'night'
S'to'
p4985
tp4986
F2
s(S'not'
g3977
tp4987
F2
s(S'to'
S'a'
tp4988
F2.9999999999999996
s(S'he'
p4989
S'noticed'
p4990
tp4991
F2
s(S'The'
p4992
S'sun'
p4993
tp4994
F2.9999999999999996
s(S'and'
p4995
S'Wilson'
p4996
tp4997
F10
s(S'are'
p4998
S'many'
p4999
tp5000
F5
s(S'sight'
p5001
S'of'
p5002
tp5003
F2
s(S'and'
p5004
S'eat.'
p5005
tp5006
F2
s(S'a'
S'nice'
tp5007
F2
s(S'was'
S'a'
tp5008
F75
s(S'shook'
p5009
S'his'
tp5010
F7
s(S'down'
S'through'
p5011
tp5012
F2
s(S'put'
S'a'
tp5013
F2.9999999999999996
s(S'each'
p5014
S'took'
p5015
tp5016
F2
s(S'out'
p5017
S'onto'
tp5018
F2
s(S'the'
S'skiff,'
p5019
tp5020
F2
s(S'getting'
p5021
g3202
tp5022
F2
s(S'Jordan'
S'said'
tp5023
F9
s(S'Rafael'
p5024
S'said.'
p5025
tp5026
F2.9999999999999996
s(S'a'
S'long'
p5027
tp5028
F11
s(S'lions'
p5029
S'on'
tp5030
F2
s(S'country'
p5031
S'and'
tp5032
F2
s(S'and'
p5033
S'soda.'
p5034
tp5035
F2
s(S'and'
p5036
S'things'
p5037
tp5038
F2
s(g772
S'and'
p5039
tp5040
F4
s(g1766
S'at'
tp5041
F2
s(S'I'
S'come'
p5042
tp5043
F5
s(g4511
S'and'
tp5044
F2
s(S'she'
p5045
S'said'
tp5046
F4
s(S'him'
p5047
g2712
tp5048
F4
s(S'wake'
p5049
S'the'
tp5050
F2
s(S'as'
p5051
g656
tp5052
F2
s(S'the'
S'water,'
p5053
tp5054
F2.9999999999999996
s(g1275
S'for'
p5055
tp5056
F4
s(S'an'
S'awful'
p5057
tp5058
F2
s(S'got'
S'off'
tp5059
F2
s(g374
S'times'
p5060
tp5061
F7
s(g2814
S'asked'
p5062
tp5063
F2
s(S'than'
p5064
S'he'
tp5065
F2.9999999999999996
s(S'read'
p5066
S'too'
tp5067
F2
s(S'had'
p5068
S'taken'
p5069
tp5070
F5.9999999999999991
s(g861
S'as'
p5071
tp5072
F2.9999999999999996
s(S'thought,'
S'I'
tp5073
F2.9999999999999996
s(S'the'
p5074
S'man,'
p5075
tp5076
F2
s(S'boy,'
p5077
S'he'
tp5078
F2
s(S'But'
p5079
S'I\x92m'
p5080
tp5081
F2
s(S'at'
S'her'
tp5082
F14
s(S'he'
p5083
g2321
tp5084
F4
s(S'same'
S'time'
p5085
tp5086
F2
s(S'become'
p5087
S'of'
p5088
tp5089
F2
s(S'carrying'
p5090
S'his'
p5091
tp5092
F2.9999999999999996
s(S'wall'
p5093
S'and'
tp5094
F2
s(S'one'
p5095
S'night'
tp5096
F2
s(S'although'
p5097
S'it'
tp5098
F2.9999999999999996
s(S'in'
S'to'
p5099
tp5100
F2
s(S'fish.'
p5101
S'The'
tp5102
F4
s(S'he'
S'will'
p5103
tp5104
F8
s(g377
S'had'
p5105
tp5106
F70
s(S'I'
S'asked'
p5107
tp5108
F4
s(S'increase'
p5109
S'the'
p5110
tp5111
F2
s(S'days'
S'without'
p5112
tp5113
F2
s(S'\x93I'
p5114
S'don\x92t'
p5115
tp5116
F2.9999999999999996
s(S'over'
p5117
S'his'
tp5118
F5
s(S'to'
p5119
S'it'
p5120
tp5121
F2
s(S'a'
S'marlin'
p5122
tp5123
F2
s(S'the'
p5124
g4425
tp5125
F4
s(S'But'
p5126
g3505
tp5127
F2
s(S'him'
p5128
S'a'
tp5129
F4
s(S'three'
p5130
S'hundred'
tp5131
F2
s(S'How'
p5132
S'are'
tp5133
F2
s(S'but'
p5134
S'the'
tp5135
F7
s(g3058
S'down'
tp5136
F2
s(S'the'
g2074
tp5137
F4
s(g2016
S'she'
tp5138
F2
s(S'the'
S'beautiful'
p5139
tp5140
F2
s(S'one'
S'hand'
tp5141
F2
s(S'up'
p5142
S'a'
tp5143
F7
s(S'his'
p5144
S'wings'
p5145
tp5146
F2
s(S'do'
S'know'
p5147
tp5148
F2
s(S'not'
p5149
S'very'
p5150
tp5151
F2.9999999999999996
s(S'wife'
S'had'
tp5152
F4
s(S'awfully'
p5153
S'good'
p5154
tp5155
F2
s(S'the'
S'bow.'
p5156
tp5157
F2.9999999999999996
s(S'suddenly'
p5158
S'and'
p5159
tp5160
F4
s(S'feeling'
p5161
g4707
tp5162
F2.9999999999999996
s(S'we'
p5163
S'do'
p5164
tp5165
F2.9999999999999996
s(S'to'
p5166
S'ask'
p5167
tp5168
F5
s(S'dollars'
p5169
S'and'
tp5170
F2
s(S'and'
S'set'
p5171
tp5172
F2.9999999999999996
s(S'ate'
p5173
S'the'
tp5174
F2.9999999999999996
s(g4002
S'"I'
tp5175
F2
s(g3615
S'went'
tp5176
F4
s(S'I'
S'got'
tp5177
F4
s(S'a'
S'taxi'
p5178
tp5179
F2.9999999999999996
s(S'the'
S'pass."'
p5180
tp5181
F2
s(S'"Good.'
p5182
S'I'
tp5183
F2
s(S'eyes'
p5184
S'so'
tp5185
F4
s(g3268
S'his'
tp5186
F5
s(g194
S'in'
tp5187
F2
s(S"I've"
p5188
S'tried'
p5189
tp5190
F2
s(S'the'
p5191
S'men'
p5192
tp5193
F5
s(S'the'
S'glare'
p5194
tp5195
F2
s(S'could'
p5196
S'read'
p5197
tp5198
F2
s(S'I'
S'passed'
p5199
tp5200
F2
s(S'watching'
p5201
S'it'
tp5202
F2
s(S'went'
p5203
S'on,'
p5204
tp5205
F2
s(g5107
S'you'
p5206
tp5207
F2.9999999999999996
s(S'are'
S'two'
p5208
tp5209
F2.9999999999999996
s(S'the'
S'mountains.'
p5210
tp5211
F2
s(S'to'
p5212
S'eat?"'
p5213
tp5214
F2
s(S'the'
S'story'
p5215
tp5216
F2
s(S'each'
S'side'
tp5217
F2
s(S'the'
S'bridge."'
p5218
tp5219
F2.9999999999999996
s(S'the'
g1341
tp5220
F2
s(g3558
S'have'
tp5221
F2
s(S'at'
S'them'
p5222
tp5223
F5
s(S'the'
S'day'
p5224
tp5225
F4
s(S'a'
S'pair'
p5226
tp5227
F4
s(S'to'
S'South'
p5228
tp5229
F5.9999999999999991
s(g529
S'Spanish'
p5230
tp5231
F2
s(S'Macomber'
S'had'
tp5232
F2
s(S'said'
p5233
S'the'
p5234
tp5235
F11.999999999999998
s(S'I'
S'will'
p5236
tp5237
F18
s(S'days'
p5238
S'and'
tp5239
F2
s(S'you'
p5240
S'at'
tp5241
F2.9999999999999996
s(S'her'
S'as'
p5242
tp5243
F4
s(S'are'
p5244
S'you'
p5245
tp5246
F10
s(S'went'
S'away.'
p5247
tp5248
F2
s(S'with'
S'it.'
p5249
tp5250
F2
s(S'head.'
p5251
S'He'
p5252
tp5253
F2
s(g1960
S'else'
p5254
tp5255
F2.9999999999999996
s(S'a'
S'thing'
p5256
tp5257
F2.9999999999999996
s(S'got'
S'up'
tp5258
F4
s(S'Mrs.'
p5259
S'Macomber'
p5260
tp5261
F2.9999999999999996
s(S'in'
p5262
g4876
tp5263
F225.99999999999997
s(S'there'
p5264
g4998
tp5265
F2.9999999999999996
s(S'she'
S'is'
p5266
tp5267
F2.9999999999999996
s(S'the'
S'tree'
p5268
tp5269
F5.9999999999999991
s(S'said.'
S'"Why'
p5270
tp5271
F2
s(S'us'
p5272
S'to'
p5273
tp5274
F2
s(S'him'
p5275
S'out.'
p5276
tp5277
F2
s(g4880
S'to'
p5278
tp5279
F5
s(S'them'
S'down'
tp5280
F2
s(S'rather'
S'have'
tp5281
F2
s(S'now,"'
p5282
S'Harvey'
p5283
tp5284
F2
s(g3900
S'Wilson.'
p5285
tp5286
F2
s(g3365
S'and'
p5287
tp5288
F2
s(g780
S'their'
p5289
tp5290
F5.9999999999999991
s(S'Try'
p5291
S'and'
tp5292
F2
s(S'him.\x94'
p5293
S'\x93I'
p5294
tp5295
F2.9999999999999996
s(S'and'
S'you\x92ll'
p5296
tp5297
F4
s(S'thought,'
p5298
S'the'
p5299
tp5300
F2
s(g896
S'a'
tp5301
F2
s(S'in'
S'Paris?"'
p5302
tp5303
F2
s(g4181
S'get'
p5304
tp5305
F2.9999999999999996
s(g2932
S'do.'
p5306
tp5307
F2
s(S'count'
p5308
S'was'
p5309
tp5310
F2
s(S'He'
p5311
g1066
tp5312
F5.9999999999999991
s(S'a'
S'beautiful'
p5313
tp5314
F2.9999999999999996
s(S'be'
S'fine."'
p5315
tp5316
F2
s(S'got'
p5317
S'to'
p5318
tp5319
F7
s(S'at'
S'me'
tp5320
F2
s(S'it.'
p5321
S'But'
tp5322
F4
s(S"she's"
p5323
S'going'
tp5324
F2
s(g1216
S'then'
p5325
tp5326
F2
s(S'first'
p5327
S'one'
tp5328
F2
s(S'had'
S'attained'
p5329
tp5330
F2
s(S'the'
g613
tp5331
F2
s(S'"The'
S'hoof'
p5332
tp5333
F2
s(g1256
S'the'
tp5334
F5
s(S'we'
S'came'
p5335
tp5336
F2
s(S'Pablo'
p5337
S'looked'
p5338
tp5339
F2.9999999999999996
s(S'who'
p5340
S'wore'
p5341
tp5342
F2.9999999999999996
s(S'can'
p5343
g2701
tp5344
F5.9999999999999991
s(S'I'
S'never'
p5345
tp5346
F11.999999999999998
s(S'the'
S'market'
p5347
tp5348
F2.9999999999999996
s(S'said.'
S'\x93But'
p5349
tp5350
F7
s(g4691
S'of'
p5351
tp5352
F4
s(S'or'
S'get'
p5353
tp5354
F2
s(S'"How'
p5355
S'do'
tp5356
F7
s(S'"We'
p5357
S'will'
p5358
tp5359
F2.9999999999999996
s(S'make'
p5360
S'the'
p5361
tp5362
F5
s(S'the'
g2488
tp5363
F2
s(S'number'
p5364
S'of'
p5365
tp5366
F2
s(S'little,"'
p5367
S'said'
tp5368
F2
s(S'the'
p5369
S'wide'
p5370
tp5371
F2
s(S'that'
p5372
S'blew'
p5373
tp5374
F2
s(S'then'
S'he'
tp5375
F7
s(S'stream.'
S'The'
p5376
tp5377
F2
s(S'hand'
S'was'
p5378
tp5379
F2
s(S'daughter'
p5380
S'of'
tp5381
F2
s(S'to'
S'drop'
p5382
tp5383
F2
s(S'All'
p5384
g3627
tp5385
F2
s(S'the'
p5386
S'cup'
p5387
tp5388
F2
s(S'go'
p5389
S'to'
p5390
tp5391
F21
s(S'hear'
p5392
S'them'
p5393
tp5394
F2
s(S'to'
S'me'
p5395
tp5396
F5
s(g4823
S'way'
p5397
tp5398
F17
s(S'said.'
S'"If'
p5399
tp5400
F2.9999999999999996
s(S'a'
S'gallop'
p5401
tp5402
F2
s(S'we'
p5403
S'make'
tp5404
F2
s(S'color'
p5405
S'of'
tp5406
F2
s(g2765
g1293
tp5407
F61.000000000000007
s(g1558
S'brought'
p5408
tp5409
F2
s(S'said.'
S'He'
tp5410
F9
s(S'the'
p5411
S'mujer'
tp5412
F2.9999999999999996
s(S'carried'
p5413
S'a'
tp5414
F2
s(S'been'
p5415
S'long'
p5416
tp5417
F2
s(S'how'
p5418
S'the'
p5419
tp5420
F2.9999999999999996
s(S'and'
S'cut'
tp5421
F2.9999999999999996
s(g686
g4861
tp5422
F4
s(S'including'
p5423
S'the'
tp5424
F2
s(S'light'
p5425
S'and'
p5426
tp5427
F4
s(S'Are'
p5428
S'you'
p5429
tp5430
F2.9999999999999996
s(S'eat'
p5431
S'them.'
p5432
tp5433
F2
s(S'be'
S'in'
tp5434
F5.9999999999999991
s(S'turned'
p5435
S'up'
tp5436
F2
s(S'a'
S'lucky'
p5437
tp5438
F2.9999999999999996
s(S'on'
p5439
S'to'
p5440
tp5441
F2
s(S'doing'
p5442
S'more'
p5443
tp5444
F2
s(S'the'
S'canvas'
p5445
tp5446
F2
s(S'will'
g843
tp5447
F2
s(S'"You\'re'
p5448
S'not'
p5449
tp5450
F2
s(S'think'
p5451
g3538
tp5452
F10
s(g382
S'I'
tp5453
F44
s(g403
S'fast'
p5454
tp5455
F2
s(S'pressure'
p5456
S'of'
tp5457
F2
s(S'was'
S'like'
tp5458
F5
s(S'a'
S'duke,'
p5459
tp5460
F2
s(S'he'
p5461
S'asked'
tp5462
F2
s(S'muzzle,'
p5463
S'and'
tp5464
F2
s(S'with'
p5465
S'me.'
p5466
tp5467
F2.9999999999999996
s(S'It'
p5468
g635
tp5469
F2
s(g1497
g1783
tp5470
F4
s(S'The'
p5471
g5308
tp5472
F2
s(g5197
S'a'
tp5473
F4
s(S'sound'
p5474
S'as'
p5475
tp5476
F2
s(g1781
S'as'
p5477
tp5478
F2
s(g1949
g4232
tp5479
F2.9999999999999996
s(S'about'
p5480
S'three'
p5481
tp5482
F2
s(S'sure'
p5483
S'of'
tp5484
F2
s(S'had'
S'his'
p5485
tp5486
F2
s(S'enough'
p5487
S'of'
tp5488
F2
s(S'had'
S'hunted'
p5489
tp5490
F2
s(S'the'
S'stairs.'
p5491
tp5492
F2
s(S'You'
p5493
S'will'
p5494
tp5495
F2
s(S'Brett,"'
p5496
S'I'
tp5497
F2
s(S'long'
g3467
tp5498
F5
s(S'asked.'
S'Wilson'
tp5499
F2
s(S'table'
S'with'
tp5500
F2
s(S'be'
p5501
S'left'
p5502
tp5503
F2
s(S'let'
p5504
S'the'
tp5505
F5
s(g3179
S'it.'
tp5506
F2
s(S'chance.'
p5507
S'The'
tp5508
F2
s(S'girl'
p5509
S'and'
tp5510
F2
s(S'but'
p5511
S'not'
p5512
tp5513
F2
s(S'rested'
p5514
S'against'
tp5515
F2
s(S'was'
S'thinking'
tp5516
F2
s(S'the'
S'Quarter."'
p5517
tp5518
F2
s(S'a'
S'spout'
p5519
tp5520
F2
s(S'you'
g1220
tp5521
F2
s(S'said.'
S'\x93We\x92ll'
tp5522
F2
s(S'keep'
p5523
g774
tp5524
F2
s(g2864
S'what'
tp5525
F2
s(S'Something'
p5526
S'like'
tp5527
F2
s(g1555
S'of'
tp5528
F2
s(g390
S'fingers'
p5529
tp5530
F4
s(S'wife.'
S'He'
p5531
tp5532
F2
s(g709
S'"That'
tp5533
F2
s(S'I'
S'came'
p5534
tp5535
F2.9999999999999996
s(S'was'
g3062
tp5536
F4
s(S'a'
S'shot,'
p5537
tp5538
F2
s(S'The'
p5539
S'two'
p5540
tp5541
F2.9999999999999996
s(g1816
g98
tp5542
F2.9999999999999996
s(S'and'
S'Georgette'
p5543
tp5544
F2.9999999999999996
s(S'read'
p5545
S'the'
p5546
tp5547
F5
s(S'the'
S'corner'
p5548
tp5549
F2.9999999999999996
s(S'Robert'
p5550
g825
tp5551
F7
s(S'seeing'
p5552
S'that'
p5553
tp5554
F2
s(S'"Oh,'
p5555
S'yes."'
p5556
tp5557
F2
s(g1965
S'\x93I'
tp5558
F4
s(S'bays,'
p5559
S'a'
tp5560
F2
s(g1080
S'to'
tp5561
F2
s(S'worked'
p5562
g166
tp5563
F2
s(S'the'
S'rim-rock'
p5564
tp5565
F2
s(S'we'
p5566
S'were'
p5567
tp5568
F5
s(S'made'
p5569
S'of'
tp5570
F2
s(S'will'
S'take'
tp5571
F4
s(S'no'
p5572
S'more'
p5573
tp5574
F2.9999999999999996
s(S'the'
S'hook'
p5575
tp5576
F5.9999999999999991
s(S'Jordan'
S'got'
tp5577
F2
s(S'the'
p5578
S'train'
p5579
tp5580
F5.9999999999999991
s(g5234
S'boy.'
p5581
tp5582
F5.9999999999999991
s(g155
g3865
tp5583
F2.9999999999999996
s(S'then'
g5435
tp5584
F2
s(S'I'
S'suppose'
p5585
tp5586
F2.9999999999999996
s(g2152
S'go'
p5587
tp5588
F5
s(S'far'
S'as'
tp5589
F2
s(S'is'
p5590
S'on'
tp5591
F2
s(S'so'
p5592
S'I'
tp5593
F2.9999999999999996
s(g3073
S'he'
tp5594
F2
s(S'the'
S'water'
p5595
tp5596
F21
s(S'thin'
p5597
S'lips'
p5598
tp5599
F2
s(S'have'
S'very'
p5600
tp5601
F2
s(S'knife'
p5602
S'and'
tp5603
F2
s(S'I'
S'knew'
p5604
tp5605
F5.9999999999999991
s(S'killed'
p5606
S'more'
p5607
tp5608
F2.9999999999999996
s(S'"How'
p5609
S'many'
tp5610
F5
s(S'really'
p5611
S'an'
p5612
tp5613
F2
s(g2334
g2416
tp5614
F2
s(S'was'
S'rather'
p5615
tp5616
F2
s(S'behind'
p5617
S'him'
tp5618
F2
s(S'Pablo'
p5619
S'and'
p5620
tp5621
F2
s(g1440
S'of'
tp5622
F2
s(S'from'
g3010
tp5623
F5
s(S'three'
p5624
S'of'
tp5625
F2
s(S'give'
p5626
g5047
tp5627
F2.9999999999999996
s(S'on'
p5628
g5004
tp5629
F9
s(S'the'
S'tall'
p5630
tp5631
F5.9999999999999991
s(S'the'
g4899
tp5632
F5.9999999999999991
s(S'had'
S'stopped'
p5633
tp5634
F2
s(S'time'
p5635
S'to'
p5636
tp5637
F4
s(S'the'
S'caf\xe9'
p5638
tp5639
F2
s(S'girl.'
p5640
S'I'
tp5641
F2
s(S'an'
p5642
S'hour'
p5643
tp5644
F2.9999999999999996
s(S'should'
p5645
S'be'
p5646
tp5647
F5.9999999999999991
s(S'him'
S'now.'
p5648
tp5649
F2
s(S'a'
S'fish'
p5650
tp5651
F4
s(S'speed'
p5652
S'and'
tp5653
F2
s(S'as'
p5654
S'he'
p5655
tp5656
F30
s(S'buffalo'
p5657
S'that'
tp5658
F2
s(S'two'
p5659
S'years'
p5660
tp5661
F2
s(S'me'
S'what'
tp5662
F2.9999999999999996
s(S'hoped'
p5663
g4669
tp5664
F2.9999999999999996
s(S'light'
p5665
S'the'
tp5666
F2.9999999999999996
s(S'one'
p5667
S'another\x92s'
p5668
tp5669
F2
s(S'walked'
p5670
S'over'
tp5671
F4
s(S'I'
S'asked.'
tp5672
F5
s(S'a'
S'damned'
p5673
tp5674
F2
s(S'along'
p5675
S'with'
tp5676
F2
s(S'were'
S'all'
p5677
tp5678
F7
s(S'were'
p5679
g2855
tp5680
F2.9999999999999996
s(S'think'
S'we\x92ll'
p5681
tp5682
F2
s(S'with'
p5683
g4416
tp5684
F2
s(g903
g3473
tp5685
F2
s(S'Braddocks'
p5686
S'at'
tp5687
F2
s(S'beyond'
p5688
S'all'
p5689
tp5690
F2
s(S'of'
p5691
S'her'
p5692
tp5693
F8
s(S'that'
S'time'
p5694
tp5695
F2
s(S'made'
S'his'
p5696
tp5697
F2
s(S'to'
S'him,'
p5698
tp5699
F4
s(S'white'
S'elephants.'
p5700
tp5701
F2
s(S'the'
p5702
S'male'
p5703
tp5704
F4
s(S'\x93Yes,\x94'
p5705
S'the'
tp5706
F2
s(g643
S'night'
tp5707
F2.9999999999999996
s(S'and'
S'lowered'
p5708
tp5709
F2
s(S'There'
p5710
g2964
tp5711
F21
s(S'out'
p5712
S'across'
tp5713
F2
s(S'it,'
p5714
S'and'
tp5715
F4
s(S'plenty'
p5716
S'of'
p5717
tp5718
F4
s(S'asked'
p5719
S'in'
tp5720
F2
s(S'"Have'
p5721
S'you'
tp5722
F2.9999999999999996
s(S'I'
S'see'
tp5723
F2
s(S'had'
p5724
S'never'
p5725
tp5726
F7
s(S'things'
S'he'
p5727
tp5728
F2
s(g1616
S'you'
p5729
tp5730
F2.9999999999999996
s(S'and'
p5731
S'ripped'
p5732
tp5733
F2
s(S'and'
S'see'
tp5734
F2
s(S'just'
p5735
S'as'
p5736
tp5737
F2
s(S'this'
p5738
S'bridge.'
p5739
tp5740
F2
s(S'that'
p5741
S'Robert'
tp5742
F2.9999999999999996
s(S'because'
p5743
g1560
tp5744
F4
s(S'leave'
S'him'
p5745
tp5746
F4
s(S'would'
S'be'
p5747
tp5748
F23
s(S'wish'
S'he'
tp5749
F2
s(S'a'
S'rotten'
p5750
tp5751
F2
s(S'He'
p5752
S'turned'
p5753
tp5754
F5
s(S'what'
g757
tp5755
F2
s(S'cheerful'
p5756
S'and'
p5757
tp5758
F2
s(S'That'
p5759
S'is'
p5760
tp5761
F8
s(g1329
S'make'
p5762
tp5763
F2
s(S'I'
S'stopped'
tp5764
F2
s(S'And'
p5765
S'thee?"'
p5766
tp5767
F2
s(S'time'
S'he'
tp5768
F5
s(S'"He'
p5769
S'was'
tp5770
F5
s(S'stay'
p5771
S'in'
tp5772
F5.9999999999999991
s(S'were'
p5773
S'shaking'
p5774
tp5775
F2
s(S'the'
g2429
tp5776
F2
s(g5226
S'of'
p5777
tp5778
F4
s(S'each'
p5779
S'day'
p5780
tp5781
F2
s(S'of'
g5031
tp5782
F2
s(S'side'
S'and'
tp5783
F4
s(S'the'
S'shark'
p5784
tp5785
F2.9999999999999996
s(S'he'
p5786
S'wanted'
tp5787
F2.9999999999999996
s(g42
S'like'
tp5788
F5
s(S'the'
p5789
g310
tp5790
F2
s(S'around'
p5791
S'and'
tp5792
F2
s(S'the'
S'top'
p5793
tp5794
F5
s(S'had'
S'sung'
p5795
tp5796
F2
s(S'the'
S'crushed'
p5797
tp5798
F2
s(S'any'
p5799
S'more.'
p5800
tp5801
F4
s(S'man'
S'knew'
tp5802
F2
s(S'were'
p5803
g2213
tp5804
F2
s(S'Told'
p5805
S'him'
tp5806
F5
s(S'door'
p5807
S'of'
tp5808
F2.9999999999999996
s(S'but'
p5809
S'she'
tp5810
F2
s(S'night'
S'they'
p5811
tp5812
F2
s(S'"Why'
p5813
S'not?"'
p5814
tp5815
F4
s(S'until'
p5816
S'he'
tp5817
F2.9999999999999996
s(S'will'
S'have'
p5818
tp5819
F4
s(S'Robert'
p5820
S'Jordan'
p5821
tp5822
F80
s(S'these'
g3807
tp5823
F2.9999999999999996
s(S'went'
p5824
S'up'
tp5825
F2
s(S'If'
p5826
S'he'
p5827
tp5828
F4
s(S'water'
S'that'
tp5829
F2.9999999999999996
s(S'very'
S'rare'
p5830
tp5831
F5
s(g2432
S'for'
tp5832
F2.9999999999999996
s(S'his'
S'mind'
p5833
tp5834
F2
s(S'we\x92ll'
g3487
tp5835
F2
s(S'is'
p5836
S'to'
p5837
tp5838
F7
s(S'men'
p5839
S'were'
p5840
tp5841
F2.9999999999999996
s(S'the'
S'sardines'
tp5842
F2
s(S'the'
p5843
g3253
tp5844
F2.9999999999999996
s(g684
S'from'
p5845
tp5846
F2.9999999999999996
s(S'now'
p5847
S'from'
p5848
tp5849
F2
s(S'is'
S'too'
p5850
tp5851
F2
s(S'thought.'
S'I'
tp5852
F5
s(S'a'
S'dark'
p5853
tp5854
F2.9999999999999996
s(S'if'
p5855
S'we'
p5856
tp5857
F2
s(S'every'
S'one'
p5858
tp5859
F2
s(S'need'
p5860
S'a'
tp5861
F2
s(S'gave'
p5862
S'me'
p5863
tp5864
F2.9999999999999996
s(S'tell'
p5865
S'it'
p5866
tp5867
F2
s(S'flying'
p5868
S'fish'
p5869
tp5870
F7
s(g2993
S'want'
p5871
tp5872
F14
s(S'won\x92t'
p5873
S'leave'
p5874
tp5875
F2
s(S'said.'
S'"That'
tp5876
F4
s(S'Wilson'
p5877
S'looked'
p5878
tp5879
F5.9999999999999991
s(S'the'
p5880
S'sea'
p5881
tp5882
F5
s(S'the'
S'evening'
p5883
tp5884
F4
s(S'but'
p5885
S'it'
tp5886
F8
s(S'"I'
p5887
S'say,'
p5888
tp5889
F2.9999999999999996
s(S'made'
p5890
S'as'
tp5891
F2
s(S'or'
p5892
S'that'
tp5893
F2
s(S'will'
p5894
S'you'
tp5895
F5
s(S'the'
S'glass'
p5896
tp5897
F5
s(S'several'
p5898
S'women'
p5899
tp5900
F2
s(S'onto'
p5901
S'the'
p5902
tp5903
F7
s(S'Then'
p5904
S'there'
tp5905
F2
s(g1417
g2616
tp5906
F2
s(S'\x93Why'
p5907
S'not?\x94'
p5908
tp5909
F2
s(S'him'
p5910
g857
tp5911
F2.9999999999999996
s(S'not'
g672
tp5912
F2.9999999999999996
s(S'to'
p5913
S'get'
p5914
tp5915
F21
s(S'he'
p5916
S'dipped'
p5917
tp5918
F2.9999999999999996
s(g1127
S'sun.'
p5919
tp5920
F2
s(g2306
g3697
tp5921
F5
s(S'knew'
S'the'
tp5922
F2.9999999999999996
s(g4943
g3755
tp5923
F2
s(S'that'
S'in'
tp5924
F5
s(S'long'
p5925
S'enough."'
p5926
tp5927
F2
s(g3499
S'French'
p5928
tp5929
F2
s(S'But'
p5930
g2709
tp5931
F11
s(S'as'
p5932
S'an'
p5933
tp5934
F2.9999999999999996
s(S'to'
S'worry'
tp5935
F4
s(S'know.'
p5936
S'But'
p5937
tp5938
F4
s(S'red'
p5939
S'wine'
p5940
tp5941
F2
s(S'I'
S'this'
tp5942
F2
s(S'\x93If'
p5943
g4636
tp5944
F2
s(S'the'
S'street,'
p5945
tp5946
F2
s(S'But'
p5947
S'there'
p5948
tp5949
F2
s(S'morning'
S'smell'
tp5950
F2
s(S'about'
p5951
g2824
tp5952
F5
s(g5466
S'I'
tp5953
F4
s(g2061
S'with'
p5954
tp5955
F2
s(S'I'
S'sat'
tp5956
F5.9999999999999991
s(S'funny'
p5957
g4173
tp5958
F2
s(S'on'
p5959
g5738
tp5960
F2
s(S'another,'
p5961
S'and'
tp5962
F2
s(S'She'
p5963
S'looked'
tp5964
F7
s(g1314
S'as'
p5965
tp5966
F2.9999999999999996
s(S'now'
p5967
S'with'
tp5968
F2.9999999999999996
s(S'But'
p5969
S'perhaps'
tp5970
F2.9999999999999996
s(S'remembering'
p5971
S'to'
p5972
tp5973
F2
s(S'clearing'
p5974
S'the'
tp5975
F2
s(S'he'
S'felt'
tp5976
F10
s(S'three'
p5977
S'days'
p5978
tp5979
F2
s(S'and'
p5980
g106
tp5981
F2
s(S'the'
S'stream,'
p5982
tp5983
F2
s(S'that'
p5984
S'would'
p5985
tp5986
F2
s(S'the'
g2771
tp5987
F4
s(S'the'
S'table.'
p5988
tp5989
F9
s(S'except'
p5990
S'for'
tp5991
F4
s(S'drink'
p5992
S'in'
tp5993
F2
s(S'walk'
p5994
S'up'
tp5995
F2
s(S'beside'
p5996
S'his'
tp5997
F2
s(S'I'
g419
tp5998
F8
s(S'not'
S'want'
tp5999
F2.9999999999999996
s(S'and'
S'asked'
p6000
tp6001
F2
s(S'Quai'
p6002
S"d'Orsay"
p6003
tp6004
F2
s(S'Wilson'
S'said,'
p6005
tp6006
F2.9999999999999996
s(S'things."'
p6007
S'"I'
tp6008
F2
s(S'wiped'
p6009
S'his'
p6010
tp6011
F2
s(S'a'
S'small'
p6012
tp6013
F4
s(S"You're"
p6014
S'getting'
p6015
tp6016
F2
s(S'said.'
S'"And'
tp6017
F4
s(S'hair'
p6018
S'was'
tp6019
F2.9999999999999996
s(S'without'
p6020
g3178
tp6021
F2
s(g4344
g1385
tp6022
F2
s(S'together'
p6023
g4275
tp6024
F2.9999999999999996
s(S'some'
S'sort'
p6025
tp6026
F2
s(S'the'
S'pass.'
p6027
tp6028
F2
s(S'to'
p6029
S'the'
p6030
tp6031
F111
s(S'cot'
p6032
S'with'
tp6033
F2
s(S'said'
p6034
S'Mrs.'
tp6035
F2.9999999999999996
s(g4787
S'and'
tp6036
F8
s(S'with'
p6037
S'their'
p6038
tp6039
F2.9999999999999996
s(S'that'
p6040
S'you'
tp6041
F11.999999999999998
s(g4536
S'with'
p6042
tp6043
F5
s(S'you'
p6044
g852
tp6045
F2
s(S'people'
p6046
S'would'
tp6047
F2
s(S'the'
S'ground.'
p6048
tp6049
F2
s(S'and'
p6050
S'carried'
p6051
tp6052
F2
s(g3600
S'him.'
tp6053
F4
s(S'and'
S'down'
tp6054
F5
s(S'of'
S'those'
p6055
tp6056
F2.9999999999999996
s(S'Macomber'
p6057
S'shot'
p6058
tp6059
F2
s(S'were'
S'still'
p6060
tp6061
F2
s(S'down'
S'he'
p6062
tp6063
F2
s(S'after'
p6064
S'he'
p6065
tp6066
F5
s(S'Boulevard'
S'St.'
p6067
tp6068
F2
s(S'tree'
S'tops'
p6069
tp6070
F2
s(S'"Oh,'
p6071
S'go'
tp6072
F2
s(S'Georgette'
p6073
S'said.'
tp6074
F2
s(S'had'
S'seemed'
tp6075
F2
s(S'try'
p6076
S'and'
tp6077
F2.9999999999999996
s(g491
S'bait'
p6078
tp6079
F7
s(S'the'
p6080
S'horses."'
p6081
tp6082
F2.9999999999999996
s(S'sardines'
p6083
S'and'
tp6084
F2
s(S'surface'
S'of'
tp6085
F2
s(S'that'
p6086
g1241
tp6087
F2.9999999999999996
s(S'were'
S'sitting'
p6088
tp6089
F2
s(S'Europe,'
p6090
g3602
tp6091
F2
s(S'the'
p6092
S'small'
p6093
tp6094
F8
s(S'said.'
S'The'
p6095
tp6096
F5.9999999999999991
s(S'that'
p6097
S'a'
tp6098
F2.9999999999999996
s(S'do'
S'with'
tp6099
F2.9999999999999996
s(S'and'
S'five'
p6100
tp6101
F2
s(S'a'
S'paper'
p6102
tp6103
F2
s(S'blond'
p6104
S'one'
tp6105
F2
s(S'slowly'
p6106
S'and'
p6107
tp6108
F2.9999999999999996
s(S'Pablo'
p6109
S'said'
tp6110
F4
s(S'dance'
p6111
S'this'
tp6112
F2
s(g5607
g4577
tp6113
F2
s(S'though'
p6114
S'he'
tp6115
F7
s(S'I'
g237
tp6116
F4
s(S'the'
S'three'
p6117
tp6118
F2
s(g4545
S'see'
p6119
tp6120
F19
s(S'thought.'
S'They'
p6121
tp6122
F2
s(S'was'
S'going'
p6123
tp6124
F5.9999999999999991
s(g5387
S'full'
p6125
tp6126
F2
s(S'It'
p6127
S'had'
tp6128
F2.9999999999999996
s(S'that'
p6129
S'way.'
p6130
tp6131
F2
s(S'\x93All'
p6132
S'right,\x94'
p6133
tp6134
F2
s(S"I'm"
p6135
S'through'
p6136
tp6137
F2
s(S'go'
p6138
S'ahead'
p6139
tp6140
F2
s(S'it,\x94'
p6141
S'the'
tp6142
F2.9999999999999996
s(S'it'
p6143
S'well.\x94'
p6144
tp6145
F2
s(S'him'
p6146
S'too'
p6147
tp6148
F2.9999999999999996
s(S'the'
S'lion\x92s'
p6149
tp6150
F2
s(S'me'
p6151
S'about'
tp6152
F2.9999999999999996
s(S'eyes'
S'in'
tp6153
F2
s(S'very'
S'strange'
p6154
tp6155
F2
s(S'light'
p6156
g1164
tp6157
F2
s(g5085
S'for'
tp6158
F4
s(S'she'
p6159
S'said,'
p6160
tp6161
F2
s(S'He'
p6162
g1050
tp6163
F4
s(S'the'
S'hand'
p6164
tp6165
F2
s(S'You'
p6166
S'know'
p6167
tp6168
F4
s(S'was'
S'where'
p6169
tp6170
F2
s(g5620
g5009
tp6171
F2
s(S'the'
S'Select."'
p6172
tp6173
F2
s(S'stopped'
p6174
S'at'
tp6175
F2
s(S'two'
p6176
g2691
tp6177
F2
s(S'any'
p6178
S'more'
p6179
tp6180
F2.9999999999999996
s(S'years'
p6181
S'old."'
p6182
tp6183
F2
s(g4679
S'open'
p6184
tp6185
F8
s(S'Rue'
S'de'
p6186
tp6187
F2
s(S'and'
S'Robert'
tp6188
F11.999999999999998
s(S'she'
g2974
tp6189
F5
s(S'an'
p6190
S'army?'
p6191
tp6192
F2
s(S'her,'
p6193
S'and'
tp6194
F2
s(g3576
g2655
tp6195
F2
s(S'it'
S'at'
tp6196
F2.9999999999999996
s(S'is'
p6197
S'always'
p6198
tp6199
F2.9999999999999996
s(g5585
S'it'
tp6200
F2
s(S'the'
S'terrace'
p6201
tp6202
F2
s(g4298
S'of'
p6203
tp6204
F8
s(S'made'
p6205
S'it'
p6206
tp6207
F2.9999999999999996
s(g2055
S'what'
p6208
tp6209
F2.9999999999999996
s(S'day'
g5403
tp6210
F2
s(g2972
S'of'
p6211
tp6212
F2
s(S'seen'
p6213
S'and'
tp6214
F2
s(S'the'
p6215
g1338
tp6216
F5.9999999999999991
s(S'and'
p6217
S'who'
p6218
tp6219
F2
s(S'"Oh,'
p6220
S"I'm"
p6221
tp6222
F2
s(S'supposed'
p6223
S'to'
p6224
tp6225
F5
s(S'used'
p6226
S'to'
p6227
tp6228
F5
s(S'take'
p6229
S'it'
p6230
tp6231
F4
s(S'was'
S'not'
p6232
tp6233
F26
s(S'But'
p6234
S'who'
p6235
tp6236
F2
s(S'been'
S'to'
p6237
tp6238
F2
s(S'Barnes'
p6239
S'introduced'
p6240
tp6241
F2
s(S'Wilson'
p6242
S'was'
p6243
tp6244
F2.9999999999999996
s(g2270
S'who'
tp6245
F4
s(S'the'
S'white'
p6246
tp6247
F5.9999999999999991
s(S'them'
p6248
S'for'
p6249
tp6250
F2
s(S'another'
p6251
S'one'
tp6252
F2
s(S'stream'
S'and'
tp6253
F2
s(S'and'
S'driving'
p6254
tp6255
F2
s(S'"I'
p6256
S"don't"
p6257
tp6258
F15
s(S'know.'
p6259
S'What'
p6260
tp6261
F2
s(S'thumb'
p6262
S'and'
p6263
tp6264
F4
s(S'There'
p6265
S'are'
p6266
tp6267
F7
s(S'Mrs.'
S'Braddocks.'
p6268
tp6269
F2
s(g3023
S'the'
p6270
tp6271
F23.999999999999996
s(S'once'
p6272
g3042
tp6273
F2
s(S'with'
p6274
S'them.'
p6275
tp6276
F2.9999999999999996
s(S'he'
S'first'
p6277
tp6278
F2.9999999999999996
s(S'of'
p6279
S'dirt'
p6280
tp6281
F2
s(S'knew'
S'that'
tp6282
F8
s(S'to'
p6283
S'fire'
p6284
tp6285
F2
s(S'the'
p6286
S'sack'
p6287
tp6288
F2
s(S'stepped'
p6289
S'on'
tp6290
F2
s(S'"To'
p6291
S'me,'
p6292
tp6293
F2
s(S'dark'
S'of'
tp6294
F2
s(S'the'
S'horses'
p6295
tp6296
F4
s(S'a'
S'wild'
p6297
tp6298
F2
s(S'see'
p6299
S'you'
tp6300
F5
s(S'the'
S'town.'
p6301
tp6302
F2
s(S'a'
S'good'
p6303
tp6304
F27
s(S'you'
p6305
g2440
tp6306
F2.9999999999999996
s(S'you'
p6307
g4097
tp6308
F7
s(S'the'
S'camp'
p6309
tp6310
F4
s(S'stream'
S'to'
tp6311
F2
s(g3597
S'and'
tp6312
F2
s(S'tell'
S'you'
p6313
tp6314
F2.9999999999999996
s(S'the'
S'line,'
p6315
tp6316
F2
s(S'him.'
S'"You'
tp6317
F2
s(S'confidence'
p6318
g5724
tp6319
F2
s(S'the'
S'sad'
p6320
tp6321
F2
s(g5780
S'with'
p6322
tp6323
F2
s(S'were'
S'behind'
p6324
tp6325
F2
s(S'I'
g2465
tp6326
F4
s(g6184
S'door'
p6327
tp6328
F2
s(g1592
g2962
tp6329
F2
s(S'man'
g2587
tp6330
F2
s(S'down'
p6331
S'on'
tp6332
F5
s(g4840
S'opening'
p6333
tp6334
F2
s(S'the'
p6335
S'ice'
p6336
tp6337
F2
s(S'the'
S'Seine'
p6338
tp6339
F2
s(g5546
S'baseball.\x94'
p6340
tp6341
F2.9999999999999996
s(S'the'
S'wife.'
p6342
tp6343
F4
s(S'that'
p6344
S'brought'
tp6345
F2
s(g946
g4802
tp6346
F9
s(g6270
S'skiff'
p6347
tp6348
F10
s(S'try'
p6349
S'to'
tp6350
F2.9999999999999996
s(S'We'
p6351
S'were'
p6352
tp6353
F5
s(S'have'
S'all'
p6354
tp6355
F2
s(S'knew'
S'from'
p6356
tp6357
F2
s(S'Wilson'
S'came'
p6358
tp6359
F2
s(S'coffee'
p6360
S'and'
p6361
tp6362
F2
s(S'climb'
p6363
S'and'
tp6364
F2
s(S'on'
S'each'
p6365
tp6366
F2.9999999999999996
s(g4496
S'of'
tp6367
F5.9999999999999991
s(S'ought'
p6368
S'to'
p6369
tp6370
F2.9999999999999996
s(S'far'
p6371
S'out'
tp6372
F2.9999999999999996
s(S'once'
p6373
S'more'
p6374
tp6375
F2
s(S'the'
S'accordion'
p6376
tp6377
F2
s(S'trucks;'
p6378
S'the'
p6379
tp6380
F2
s(S'and'
p6381
S'made'
tp6382
F2.9999999999999996
s(S'and'
p6383
S'perhaps'
p6384
tp6385
F2
s(S'very'
S'angry.'
p6386
tp6387
F2
s(S'will'
g296
tp6388
F2.9999999999999996
s(g596
S'nose.'
p6389
tp6390
F2
s(g2370
S'of'
tp6391
F5
s(g6292
S'now,'
p6392
tp6393
F2
s(S'to'
S'rise'
p6394
tp6395
F2
s(S'"I'
p6396
S'guess'
p6397
tp6398
F2
s(S'think'
p6399
S'I'
tp6400
F2.9999999999999996
s(S'in'
p6401
S'their'
p6402
tp6403
F7
s(S'we'
p6404
S'can'
p6405
tp6406
F5
s(S'the'
S'car,'
p6407
tp6408
F2.9999999999999996
s(S'coils'
p6409
S'to'
tp6410
F2
s(S'the'
S'things'
p6411
tp6412
F5
s(S'is'
g5735
tp6413
F2
s(S'and'
S'hunt'
p6414
tp6415
F2
s(S'three'
p6416
S'times'
p6417
tp6418
F2
s(S'as'
S'Wilson'
tp6419
F2
s(S'He'
S'made'
tp6420
F2.9999999999999996
s(S'her'
p6421
S'name'
tp6422
F2
s(S'a'
g5957
tp6423
F2.9999999999999996
s(S'I\x92m'
p6424
S'so'
p6425
tp6426
F2.9999999999999996
s(S'it."'
p6427
S'"Oh,'
p6428
tp6429
F2
s(S'before'
p6430
S'going'
tp6431
F2
s(S'down'
p6432
g4896
tp6433
F2
s(S'man\x92s'
p6434
S'shack'
p6435
tp6436
F2.9999999999999996
s(S'and'
S'sail'
p6437
tp6438
F2
s(S'he'
p6439
g5203
tp6440
F2
s(S'The'
p6441
S'man'
p6442
tp6443
F4
s(S'his'
S'shoulder.'
p6444
tp6445
F2
s(g5408
S'a'
tp6446
F2
s(g4564
S'me'
tp6447
F2
s(S'the'
p6448
S'cigarettes'
p6449
tp6450
F2
s(S'the'
S'poor'
p6451
tp6452
F2
s(S'pointed'
p6453
S'toward'
tp6454
F2
s(S'said.'
S'\x93The'
p6455
tp6456
F2
s(S'some'
p6457
g2034
tp6458
F2
s(S'his'
S'mouth.'
p6459
tp6460
F2
s(S'and'
p6461
S'were'
p6462
tp6463
F2.9999999999999996
s(S'knew'
S'it'
tp6464
F5.9999999999999991
s(S'simple'
p6465
S'to'
p6466
tp6467
F2
s(S'He'
p6468
S'rolled'
p6469
tp6470
F2
s(g5878
S'over'
p6471
tp6472
F2.9999999999999996
s(g3501
S'and'
tp6473
F2.9999999999999996
s(g3624
S'cannot'
p6474
tp6475
F5
s(S'you'
S'say?"'
p6476
tp6477
F2
s(S'early'
p6478
S'in'
tp6479
F2
s(S'into'
p6480
S'an'
p6481
tp6482
F2
s(g2219
S'Wilson'
p6483
tp6484
F2
s(S'The'
p6485
S'boat'
p6486
tp6487
F2
s(g2019
S'of'
tp6488
F2
s(S'said,'
S'"I'
tp6489
F2
s(S'a'
S'table,'
p6490
tp6491
F2
s(S'had'
p6492
S'dismounted'
p6493
tp6494
F2
s(S'I'
S'should'
p6495
tp6496
F5.9999999999999991
s(S'who'
S'will'
p6497
tp6498
F4
s(S'he'
p6499
S'moved'
p6500
tp6501
F2.9999999999999996
s(S'"Sure,"'
p6502
S'said'
tp6503
F2
s(S'"No.'
p6504
S'Not'
p6505
tp6506
F2
s(S'for'
p6507
S'you."'
p6508
tp6509
F4
s(S'him.'
p6510
S'He'
tp6511
F10
s(S'this'
p6512
S'way'
tp6513
F2
s(S'ahead'
p6514
S'and'
p6515
tp6516
F2
s(S'Perhaps'
p6517
S'he'
tp6518
F2.9999999999999996
s(g3784
S'could'
tp6519
F4
s(S'we'
p6520
S'must'
tp6521
F2.9999999999999996
s(g3251
S'three'
p6522
tp6523
F2
s(S'the'
S'dark'
p6524
tp6525
F11
s(g5681
S'find'
p6526
tp6527
F2
s(S'of'
p6528
S'Havana'
p6529
tp6530
F2
s(g3660
S'it'
tp6531
F2.9999999999999996
s(S'"I'
p6532
S'do'
tp6533
F5.9999999999999991
s(g2080
S'was'
p6534
tp6535
F2.9999999999999996
s(S'At'
p6536
S'the'
tp6537
F2
s(g288
S'and'
p6538
tp6539
F4
s(S'all'
p6540
S'right,"'
p6541
tp6542
F2
s(S'can'
p6543
S'be'
tp6544
F7
s(S'wish'
g2671
tp6545
F2
s(S'break.'
p6546
S'Then'
tp6547
F2
s(S'There'
p6548
S'is'
tp6549
F2.9999999999999996
s(S'said'
p6550
S'Pablo.'
p6551
tp6552
F8
s(S'way'
p6553
S'down'
tp6554
F2
s(g1522
S'came'
tp6555
F4
s(S'said'
S'aloud.'
p6556
tp6557
F8
s(S'to'
p6558
S'carry'
p6559
tp6560
F2.9999999999999996
s(S'it.'
p6561
S'Macomber'
tp6562
F2
s(S'not'
p6563
S'have'
tp6564
F5.9999999999999991
s(S'\x93I'
p6565
S'can'
p6566
tp6567
F2.9999999999999996
s(S'all'
p6568
S'over'
p6569
tp6570
F4
s(S'the'
S'paper'
p6571
tp6572
F2
s(S'now'
g5480
tp6573
F2
s(S'"He'
S'spoke'
tp6574
F2.9999999999999996
s(S'\x93Do'
p6575
g3722
tp6576
F7
s(S'that'
g3886
tp6577
F5
s(g5531
S'only'
p6578
tp6579
F2
s(S'lines'
S'and'
tp6580
F2
s(S'to'
p6581
g5910
tp6582
F11
s(g5881
g6461
tp6583
F5.9999999999999991
s(S'the'
S'mill'
p6584
tp6585
F2
s(S'attack'
S'has'
p6586
tp6587
F2.9999999999999996
s(g48
S'five'
p6588
tp6589
F2.9999999999999996
s(g5222
S'both'
p6590
tp6591
F4
s(S'matter'
p6592
S'how'
p6593
tp6594
F2
s(S'because'
p6595
S'he'
tp6596
F7
s(S'I'
g4982
tp6597
F4
s(S'carried'
p6598
S'her.'
p6599
tp6600
F2
s(S'face'
p6601
g5984
tp6602
F2
s(g1412
S'could'
p6603
tp6604
F4
s(S'the'
S'lion,'
p6605
tp6606
F2.9999999999999996
s(S'as'
p6607
S'she'
tp6608
F5
s(g790
g5142
tp6609
F2
s(S'apart'
p6610
S'and'
tp6611
F2
s(S'and'
p6612
g3595
tp6613
F2
s(S'as'
p6614
g2728
tp6615
F5.9999999999999991
s(g6237
g5771
tp6616
F5
s(S'let'
p6617
g3749
tp6618
F2
s(S'nothing'
p6619
S'ever'
p6620
tp6621
F2
s(S'woman'
S'had'
tp6622
F2
s(S'the'
S'gypsy.'
p6623
tp6624
F5
s(S'line'
p6625
S'with'
tp6626
F2
s(S'said.'
S'"It\x92s'
p6627
tp6628
F2.9999999999999996
s(S'his'
S'old'
p6629
tp6630
F2
s(S'will'
S'be'
p6631
tp6632
F11.999999999999998
s(S'male'
p6633
S'fish'
p6634
tp6635
F2.9999999999999996
s(S'the'
S'cave'
p6636
tp6637
F7
s(S'good'
p6638
g863
tp6639
F2
s(S'They'
p6640
S'would'
p6641
tp6642
F2.9999999999999996
s(g5025
g439
tp6643
F5.9999999999999991
s(g4665
S'he'
tp6644
F2.9999999999999996
s(g136
S'hand'
p6645
tp6646
F8
s(S'\x93I'
S'suppose'
p6647
tp6648
F2
s(g1284
S'hands'
p6649
tp6650
F2.9999999999999996
s(S'"That'
p6651
S'was'
p6652
tp6653
F4
s(S'"I'
p6654
S'have'
tp6655
F9
s(g726
S'dust'
p6656
tp6657
F2.9999999999999996
s(g1388
S'of'
tp6658
F5.9999999999999991
s(S'said.'
g1008
tp6659
F2.9999999999999996
s(S'said'
S'and'
p6660
tp6661
F15
s(S'at'
p6662
S'him'
p6663
tp6664
F19
s(S'to'
S'kill'
p6665
tp6666
F2.9999999999999996
s(g2679
S'I'
tp6667
F2
s(S'see'
S'that'
tp6668
F7
s(S'with'
p6669
S'them'
tp6670
F2
s(S'look'
p6671
S'at'
p6672
tp6673
F2.9999999999999996
s(S'go'
p6674
S'in'
tp6675
F5.9999999999999991
s(S'"See'
p6676
S'you'
tp6677
F2
s(S'three'
p6678
S'years,'
p6679
tp6680
F2.9999999999999996
s(S'the'
g1984
tp6681
F4
s(g2588
g3235
tp6682
F4
s(g5612
S'awfully'
p6683
tp6684
F2
s(S'are'
S'not'
p6685
tp6686
F4
s(S'I'
S'love'
p6687
tp6688
F2
s(S'pleasant'
p6689
S'to'
tp6690
F2.9999999999999996
s(S'looked'
S'very'
p6691
tp6692
F2
s(S'no'
S'one'
p6693
tp6694
F7
s(S'you'
p6695
S'went'
p6696
tp6697
F2.9999999999999996
s(S'\x93Two,\x94'
p6698
S'the'
tp6699
F2
s(g3372
g3230
tp6700
F2.9999999999999996
s(S'me'
S'from'
tp6701
F2
s(S'the'
S'muscles'
p6702
tp6703
F2
s(S'where'
p6704
S'he'
p6705
tp6706
F11
s(S'left'
p6707
S'the'
tp6708
F7
s(S'and'
p6709
S'some'
p6710
tp6711
F5.9999999999999991
s(S'the'
S'ground'
p6712
tp6713
F5
s(S'a'
S'cloud'
p6714
tp6715
F2
s(S'while'
p6716
S'he'
p6717
tp6718
F4
s(S'fish.'
p6719
S'Eat'
p6720
tp6721
F2
s(g807
S'difference'
p6722
tp6723
F2.9999999999999996
s(S'the'
S'dew'
p6724
tp6725
F2
s(S'them'
p6726
g4420
tp6727
F2
s(g3006
S'it'
tp6728
F2
s(S'when'
p6729
S'you'
p6730
tp6731
F5.9999999999999991
s(S'you'
p6732
S'know,'
p6733
tp6734
F2
s(S'his'
p6735
S'chin'
p6736
tp6737
F2
s(g4993
S'rose'
p6738
tp6739
F2
s(S'when'
p6740
S'he'
tp6741
F32
s(S'never'
S'been'
p6742
tp6743
F4
s(S'head'
S'at'
tp6744
F2
s(S'say'
p6745
S'he'
tp6746
F2
s(S'I'
S'just'
p6747
tp6748
F7
s(S'a'
S'very'
p6749
tp6750
F20
s(S'He'
p6751
S'walked'
p6752
tp6753
F2
s(S'back'
S'and'
p6754
tp6755
F10
s(g3509
S'in'
tp6756
F7
s(S'the'
S'office.'
p6757
tp6758
F2
s(S'now'
p6759
S'in'
tp6760
F2.9999999999999996
s(g5139
g2645
tp6761
F2
s(S'hear'
g5191
tp6762
F2
s(g3151
g5360
tp6763
F11
s(g3775
S'time'
tp6764
F2
s(g5848
S'one'
tp6765
F2.9999999999999996
s(S'the'
p6766
S'blanket'
p6767
tp6768
F2
s(S'the'
S'right'
tp6769
F2.9999999999999996
s(S'his'
S'wife.'
p6770
tp6771
F4
s(g3045
g5093
tp6772
F5
s(S'himself'
p6773
S'with'
tp6774
F2
s(S'if'
p6775
S'you'
p6776
tp6777
F17
s(S'was'
p6778
S'cut'
p6779
tp6780
F2
s(g1561
g6146
tp6781
F9
s(g1106
S'the'
p6782
tp6783
F10
s(g5760
S'what'
p6784
tp6785
F8
s(S'the'
S'magazine'
p6786
tp6787
F2.9999999999999996
s(S'the'
S'Rue'
p6788
tp6789
F5.9999999999999991
s(S'they'
p6790
g3040
tp6791
F2
s(S'would'
p6792
g4746
tp6793
F2.9999999999999996
s(g5105
S'gone'
p6794
tp6795
F8
s(S'guarantee'
p6796
S'that'
p6797
tp6798
F4
s(g3735
S'I'
tp6799
F8
s(S'heavy.'
p6800
S'It'
tp6801
F2
s(S'I'
S'wonder'
p6802
tp6803
F5.9999999999999991
s(S'could'
S'smell'
p6804
tp6805
F2
s(g1988
S'looked'
tp6806
F16
s(S'had'
S'to'
tp6807
F7
s(S'like'
p6808
S'that,'
p6809
tp6810
F4
s(S'line'
S'that'
tp6811
F2
s(g5845
S'a'
tp6812
F5
s(S'he'
S'never'
p6813
tp6814
F2.9999999999999996
s(g5454
S'to'
tp6815
F2
s(S'right.'
S'But'
p6816
tp6817
F2
s(S'wife'
S'and'
tp6818
F2
s(S'the'
S'bridge'
p6819
tp6820
F8
s(S'of'
p6821
S'all'
tp6822
F2.9999999999999996
s(g4239
S'big'
p6823
tp6824
F2.9999999999999996
s(S'and'
p6825
S'as'
tp6826
F13
s(g3121
S'a'
tp6827
F15
s(S'the'
S'far'
p6828
tp6829
F4
s(S'a'
S'drink'
p6830
tp6831
F2.9999999999999996
s(S'here'
p6832
S'and'
tp6833
F2
s(g3414
S'for'
tp6834
F2.9999999999999996
s(S'drank'
p6835
S'a'
tp6836
F2.9999999999999996
s(S'held'
p6837
S'it'
tp6838
F4
s(S'the'
p6839
S'horses.'
p6840
tp6841
F2
s(S'the'
p6842
S'sun'
p6843
tp6844
F19
s(S'must'
S'get'
tp6845
F2
s(S'picked'
p6846
S'up'
p6847
tp6848
F5
s(S'"Of'
p6849
S'course,'
p6850
tp6851
F2
s(S'over'
p6852
S'that'
p6853
tp6854
F2.9999999999999996
s(S'make'
p6855
S'himself'
p6856
tp6857
F2
s(S'Jordan'
S'sat'
tp6858
F2
s(S'You'
p6859
S'have'
p6860
tp6861
F4
s(S'hand'
p6862
g6381
tp6863
F4
s(S'Macomber,'
p6864
S'standing'
p6865
tp6866
F2
s(S'going'
S'after'
p6867
tp6868
F2
s(S'the'
S'rifle'
p6869
tp6870
F2.9999999999999996
s(S'know'
g37
tp6871
F2.9999999999999996
s(g2177
S'time."'
p6872
tp6873
F2
s(S'to'
p6874
S'break'
p6875
tp6876
F2.9999999999999996
s(S'the'
S'huge,'
p6877
tp6878
F2
s(g4306
S'and'
tp6879
F2
s(S'\x93I\x92m'
p6880
g5149
tp6881
F2
s(S'it.'
p6882
g3321
tp6883
F2
s(S'to'
p6884
S'thank'
tp6885
F2.9999999999999996
s(S'up'
p6886
S'but'
tp6887
F2
s(S'he'
p6888
S'wore'
p6889
tp6890
F2
s(S'was'
S'afraid'
p6891
tp6892
F2
s(S'fish'
S'in'
p6893
tp6894
F2
s(g1914
g4140
tp6895
F2
s(S'boy'
S'said'
p6896
tp6897
F2
s(S'sat'
S'down.'
p6898
tp6899
F2
s(S'a'
S'man'
p6900
tp6901
F11
s(g72
S'down'
p6902
tp6903
F2
s(S'than'
S'the'
tp6904
F5
s(S'the'
S'arms'
tp6905
F2
s(S'\x93I'
p6906
S'have'
p6907
tp6908
F5
s(S'was'
p6909
S'to'
tp6910
F4
s(S'and'
g531
tp6911
F2
s(S'was'
S'your'
p6912
tp6913
F2
s(S'day'
S'he'
tp6914
F2
s(g5660
S'and'
tp6915
F2
s(S'a'
S'hundred.'
p6916
tp6917
F2
s(S'with'
p6918
S'her'
p6919
tp6920
F2.9999999999999996
s(g5866
S'to'
p6921
tp6922
F17
s(S'in'
g6190
tp6923
F4
s(S'half'
p6924
S'the'
tp6925
F2
s(g2808
g1039
tp6926
F10
s(S'out'
p6927
g6050
tp6928
F15
s(g161
S'said'
p6929
tp6930
F4
s(S'toward'
p6931
S'the'
p6932
tp6933
F15
s(S'with'
S'you."'
p6934
tp6935
F2
s(g3764
S'of'
tp6936
F4
s(S'chair'
p6937
S'and'
tp6938
F2
s(S'was'
S'standing'
p6939
tp6940
F2.9999999999999996
s(S'I'
g2678
tp6941
F10
s(S'\x93Can\x92t'
p6942
S'we'
p6943
tp6944
F2
s(S'kill'
p6945
S'him'
tp6946
F2
s(S'"And'
p6947
S'you'
tp6948
F2
s(S'"Well,'
p6949
S'I'
tp6950
F2
s(S'turned'
p6951
S'to'
tp6952
F5.9999999999999991
s(S'my'
S'business.'
p6953
tp6954
F2
s(S'stayed'
p6955
S'in'
tp6956
F2
s(S'But'
S'I'
tp6957
F13
s(S'the'
S'military'
p6958
tp6959
F2.9999999999999996
s(S'are'
S'other'
tp6960
F2
s(S'hand.'
p6961
S'He'
p6962
tp6963
F2.9999999999999996
s(S'to'
p6964
S'help'
p6965
tp6966
F4
s(S'now'
p6967
S'the'
tp6968
F2
s(S'Why'
p6969
S"don't"
p6970
tp6971
F2
s(S'mast'
S'with'
tp6972
F2
s(S'lady'
p6973
S'who'
p6974
tp6975
F2
s(S'turned'
S'toward'
p6976
tp6977
F2
s(g5821
g3361
tp6978
F2
s(S'"What'
p6979
S'the'
p6980
tp6981
F2
s(g2455
S'I'
tp6982
F7
s(S'him.'
S'His'
tp6983
F2
s(S'not'
S'the'
tp6984
F2
s(S'than'
S'a'
tp6985
F2
s(S'the'
p6986
S'waiter'
tp6987
F2
s(S'felt'
S'the'
p6988
tp6989
F9
s(S'pocket'
S'and'
p6990
tp6991
F2
s(g4897
S'as'
tp6992
F2
s(S'for'
S'me.'
tp6993
F2
s(S'her'
p6994
S'up'
p6995
tp6996
F2
s(g5650
g1939
tp6997
F2.9999999999999996
s(S'how'
S'it'
p6998
tp6999
F5
s(S'the'
S'wood'
p7000
tp7001
F2
s(g5793
S'of'
tp7002
F2.9999999999999996
s(g6693
S'that'
tp7003
F2.9999999999999996
s(S'too'
p7004
S'fast'
p7005
tp7006
F2
s(S'floor'
p7007
S'and'
tp7008
F2.9999999999999996
s(S'the'
S'bridge?"'
p7009
tp7010
F2
s(g369
S'Comrade'
p7011
tp7012
F2
s(g4983
S'him'
tp7013
F2
s(S'that'
S'lion'
p7014
tp7015
F2
s(g4767
g1557
tp7016
F4
s(g4063
S'them'
tp7017
F2.9999999999999996
s(S'such'
p7018
S'a'
tp7019
F7
s(g3710
S'was'
p7020
tp7021
F7
s(S'touch'
p7022
S'me."'
p7023
tp7024
F2
s(S'South'
S'America."'
p7025
tp7026
F2.9999999999999996
s(S'in'
p7027
S'some'
p7028
tp7029
F2
s(S'curiously'
p7030
S'at'
tp7031
F2
s(S'get'
S'him'
p7032
tp7033
F2.9999999999999996
s(g6058
S'again'
tp7034
F2
s(S'like'
p7035
S'that,"'
p7036
tp7037
F2
s(S'\x93Are'
S'you'
p7038
tp7039
F2
s(S'holding'
p7040
S'his'
p7041
tp7042
F2
s(S'have'
p7043
S'done'
p7044
tp7045
F2
s(S'and'
S'read'
tp7046
F2
s(S'"No,'
p7047
S'not'
tp7048
F2
s(S'only'
p7049
S'one'
p7050
tp7051
F4
s(S'I\x92ll'
p7052
S'keep'
p7053
tp7054
F2
s(g3841
g4805
tp7055
F2
s(S'should'
p7056
S'I?'
p7057
tp7058
F2
s(g1331
S'and'
tp7059
F2.9999999999999996
s(S'I'
S'say'
p7060
tp7061
F2.9999999999999996
s(S'the'
p7062
S'brown'
p7063
tp7064
F2
s(S'to.'
p7065
S'I'
tp7066
F2
s(S'seen'
S'them'
p7067
tp7068
F2
s(S'the'
S'projecting'
p7069
tp7070
F2.9999999999999996
s(S'tastes'
p7071
S'like'
p7072
tp7073
F2
s(S'I'
S'walked'
p7074
tp7075
F7
s(S'the'
p7076
S'difference.'
p7077
tp7078
F2
s(S'a'
S'thick'
p7079
tp7080
F2
s(S'man'
S'thought,'
tp7081
F2
s(S'"Come'
p7082
S'on'
p7083
tp7084
F2.9999999999999996
s(S'in'
S'my'
p7085
tp7086
F5.9999999999999991
s(S'straight'
p7087
S'down'
tp7088
F2.9999999999999996
s(S'leave'
S'his'
p7089
tp7090
F2
s(S'the'
S'bed,'
p7091
tp7092
F2
s(S'were'
p7093
S'in'
tp7094
F5.9999999999999991
s(S'a'
S'joke.'
p7095
tp7096
F2.9999999999999996
s(S'lots'
p7097
S'of'
p7098
tp7099
F2.9999999999999996
s(S'was'
S'quite'
p7100
tp7101
F5
s(S'would'
S'pick'
p7102
tp7103
F2
s(S'had'
S'shaken'
p7104
tp7105
F2
s(g3368
S'most'
p7106
tp7107
F5
s(S'as'
p7108
S'I'
tp7109
F4
s(g4494
S'his'
p7110
tp7111
F22
s(g6896
g6581
tp7112
F22
s(S'"Thank'
p7113
S'you,"'
p7114
tp7115
F2
s(S'you'
p7116
S'should'
p7117
tp7118
F2.9999999999999996
s(S'her'
S'own'
p7119
tp7120
F2
s(S'the'
S'stream'
p7121
tp7122
F11
s(g5
S'and'
tp7123
F2
s(S'felt'
S'in'
tp7124
F2
s(g5318
S'realize'
p7125
tp7126
F2
s(S'and'
S'so'
p7127
tp7128
F2
s(S'her'
p7129
S'and'
p7130
tp7131
F11
s(S'took'
p7132
g1463
tp7133
F2
s(S'was'
S'putting'
p7134
tp7135
F2
s(S'sit'
p7136
S'in'
tp7137
F2
s(S'down'
p7138
S'and'
tp7139
F5.9999999999999991
s(S'do'
S'anything'
p7140
tp7141
F2.9999999999999996
s(S'on'
p7142
S'my'
p7143
tp7144
F2.9999999999999996
s(S'they'
p7145
S'would'
tp7146
F5
s(S'in'
S'camp?\x94'
p7147
tp7148
F2
s(S'said.'
S'"Don\'t'
p7149
tp7150
F2
s(S'he'
S'did'
tp7151
F7
s(S'he'
p7152
S'realized'
tp7153
F2.9999999999999996
s(S'the'
S'female'
p7154
tp7155
F2
s(S'of'
p7156
S'an'
p7157
tp7158
F4
s(S'now.'
p7159
S'He'
tp7160
F2.9999999999999996
s(S'that'
p7161
S'nothing'
p7162
tp7163
F2
s(S'corral'
S'and'
p7164
tp7165
F2
s(S'been'
g4300
tp7166
F2
s(S'the'
S'double'
p7167
tp7168
F2
s(g4008
S'are'
p7169
tp7170
F2
s(S'I'
S'cannot'
p7171
tp7172
F2.9999999999999996
s(S'which'
p7173
S'they'
tp7174
F2
s(S'what'
S'we'
p7175
tp7176
F2
s(S'shoulders.'
p7177
S'They'
tp7178
F2
s(g1585
g204
tp7179
F2
s(S'up.'
p7180
S'\x93I'
p7181
tp7182
F2
s(S'them'
p7183
S'from'
tp7184
F2.9999999999999996
s(S'two'
S'heavy'
p7185
tp7186
F2.9999999999999996
s(g7098
g4026
tp7187
F2.9999999999999996
s(S'rope'
p7188
S'to'
tp7189
F2
s(g3408
g4085
tp7190
F5.9999999999999991
s(S'the'
g6002
tp7191
F2
s(S'the'
g6937
tp7192
F2.9999999999999996
s(S'the'
S'dark.'
p7193
tp7194
F2.9999999999999996
s(S'the'
S'others,'
p7195
tp7196
F2
s(g2606
S'smiled'
tp7197
F2
s(S'old'
p7198
S'man,\x94'
p7199
tp7200
F2
s(S'went'
S'to'
tp7201
F8
s(S'The'
p7202
S'cab'
p7203
tp7204
F2
s(S'toward'
p7205
g2491
tp7206
F2
s(S'going'
p7207
g4884
tp7208
F2
s(S'know,\x94'
p7209
S'the'
tp7210
F2
s(S'all'
S'the'
p7211
tp7212
F26
s(S'live'
p7213
S'in'
p7214
tp7215
F2
s(S'it'
p7216
S'had'
tp7217
F4
s(S'the'
S'cafe'
p7218
tp7219
F4
s(S'You'
p7220
S'can\x92t'
p7221
tp7222
F2.9999999999999996
s(g2112
S'here."'
p7223
tp7224
F2
s(S'to'
S'marry'
p7225
tp7226
F2
s(g7110
S'hands'
p7227
tp7228
F4
s(S'Jordan'
S'told'
tp7229
F2
s(S'of'
S'town'
p7230
tp7231
F2
s(S'quickly'
p7232
g190
tp7233
F2
s(S'Jordan'
S'said.'
tp7234
F10
s(S'Jordan'
S'knew'
tp7235
F5
s(S'on'
p7236
S'guard'
p7237
tp7238
F2
s(S"I'm"
p7239
S'like'
tp7240
F2
s(S'"No.'
p7241
g264
tp7242
F2
s(S'enough'
S'to'
tp7243
F2
s(S'he'
S'catches'
p7244
tp7245
F2
s(S'He'
p7246
g6617
tp7247
F2
s(S'as'
p7248
S'far'
p7249
tp7250
F5
s(S'the'
S'two'
p7251
tp7252
F22
s(S'my'
p7253
S'fault.'
p7254
tp7255
F2
s(S'boy'
S'said.'
p7256
tp7257
F20
s(S'He'
p7258
S'must'
tp7259
F5.9999999999999991
s(S'shoulder'
p7260
S'and'
tp7261
F2
s(S'he'
g5298
tp7262
F8
s(S'that'
p7263
S'made'
tp7264
F2.9999999999999996
s(g6474
S'see'
p7265
tp7266
F2
s(g750
g2669
tp7267
F2.9999999999999996
s(S'said.'
p7268
S'A'
tp7269
F2
s(S'has'
p7270
S'been'
p7271
tp7272
F5
s(g4643
S'side'
p7273
tp7274
F8
s(S'white'
p7275
S'and'
tp7276
F2.9999999999999996
s(S'in'
p7277
S'this'
p7278
tp7279
F2.9999999999999996
s(g5729
S'with'
p7280
tp7281
F2
s(g4985
S'hear'
p7282
tp7283
F2.9999999999999996
s(g6257
S'know,"'
p7284
tp7285
F2.9999999999999996
s(S'her'
S'head'
p7286
tp7287
F5
s(S'the'
p7288
S'trees,'
p7289
tp7290
F2
s(g1518
g6274
tp7291
F2
s(S'That'
p7292
S'was'
tp7293
F17
s(S'it'
S'if'
tp7294
F5
s(S'be'
S'so'
p7295
tp7296
F2.9999999999999996
s(S'Purple'
S'Land"'
p7297
tp7298
F2
s(g4486
g4889
tp7299
F2
s(S'heavy,'
p7300
S'and'
tp7301
F2
s(S'and'
p7302
S'smiled.'
p7303
tp7304
F4
s(S'would'
g357
tp7305
F2
s(g2407
S'a'
tp7306
F4
s(S'the'
S'light'
p7307
tp7308
F7
s(S'he'
p7309
S'explained.'
p7310
tp7311
F2
s(S'Robert'
p7312
S'Jordan,'
p7313
tp7314
F5
s(S'to'
S'eat."'
p7315
tp7316
F2
s(S'although'
p7317
S'he'
tp7318
F2
s(S'"Yes,"'
p7319
S'Robert'
tp7320
F2
s(S'work.'
S'I'
tp7321
F2
s(S'and'
S'then'
p7322
tp7323
F37
s(S'to'
S'talk.'
p7324
tp7325
F2
s(S'As'
p7326
S'soon'
tp7327
F2
s(S'"Is'
p7328
S'that'
tp7329
F2
s(S'followed'
p7330
g1425
tp7331
F2
s(S'came'
S'up.'
tp7332
F5
s(S'are'
p7333
S'a'
tp7334
F2.9999999999999996
s(S'boat'
p7335
g1850
tp7336
F2
s(S"don't"
g695
tp7337
F4
s(S'Va,\x94'
p7338
S'the'
tp7339
F2
s(S'that'
p7340
g1154
tp7341
F4
s(S'he'
S'swung'
p7342
tp7343
F2
s(g2579
S'it.'
tp7344
F2
s(S'about'
p7345
S'that.'
p7346
tp7347
F2
s(S'finish'
p7348
S'the'
p7349
tp7350
F2.9999999999999996
s(S'He'
p7351
g468
tp7352
F2.9999999999999996
s(S'you'
p7353
g2797
tp7354
F2.9999999999999996
s(S'said.'
S'"But'
p7355
tp7356
F5.9999999999999991
s(S'had'
p7357
S'all'
p7358
tp7359
F2
s(g6354
g561
tp7360
F2.9999999999999996
s(S'him.'
p7361
S'I'
tp7362
F2
s(S'"It\'s'
p7363
S'all'
p7364
tp7365
F2
s(S'made'
p7366
S'a'
tp7367
F13
s(S'man'
S'looked'
tp7368
F7
s(g311
S'Cleveland.\x94'
p7369
tp7370
F2
s(S'the'
S'Avenue'
p7371
tp7372
F4
s(S'The'
g5327
tp7373
F2
s(S'not'
g4266
tp7374
F4
s(S'bar,'
p7375
S'and'
tp7376
F2
s(g5830
S'name."'
p7377
tp7378
F2
s(S'at'
p7379
S'me.'
p7380
tp7381
F2
s(g6025
S'of'
p7382
tp7383
F11.999999999999998
s(S'some'
p7384
S'in'
p7385
tp7386
F2
s(S'him.'
p7387
S'"Yes,"'
p7388
tp7389
F2
s(S'looked'
S'back'
tp7390
F2
s(S'all'
p7391
S'right."'
p7392
tp7393
F2.9999999999999996
s(S'go'
S'through'
p7394
tp7395
F2.9999999999999996
s(g4134
S'use'
p7396
tp7397
F2
s(S'was'
S'out'
tp7398
F2
s(S'his'
p7399
g5251
tp7400
F5.9999999999999991
s(g3631
g7173
tp7401
F2
s(S'hours'
p7402
S'before'
tp7403
F2
s(S'asked.'
S'"No."'
p7404
tp7405
F2
s(S'\x93Can'
p7406
S'I'
tp7407
F2
s(S'too'
S'late'
p7408
tp7409
F2
s(S'necessary'
p7410
S'to'
tp7411
F2
s(S'the'
p7412
S'more'
tp7413
F2
s(S'up'
p7414
S'that'
p7415
tp7416
F2
s(S'looked'
p7417
g6662
tp7418
F55
s(S'"Yes,"'
p7419
S'said'
tp7420
F4
s(S'to'
p7421
S'its'
p7422
tp7423
F2
s(S'the'
S'strange'
p7424
tp7425
F2
s(S'the'
S'head'
p7426
tp7427
F2
s(S'the'
p7428
S'sardines.'
p7429
tp7430
F2
s(S'boat.'
g7351
tp7431
F2
s(S'man\x92s'
S'head'
p7432
tp7433
F2
s(S'"He\'s'
p7434
S'drunk'
p7435
tp7436
F2
s(g2571
S'to'
tp7437
F2
s(g422
S'them'
p7438
tp7439
F5.9999999999999991
s(S'to'
S'sleep.'
p7440
tp7441
F2
s(S'did'
S'he'
p7442
tp7443
F4
s(S'you'
g1650
tp7444
F2
s(S'dark'
p7445
S'and'
tp7446
F5
s(S'court'
p7447
S'games,'
p7448
tp7449
F2
s(S'sun'
g1642
tp7450
F5.9999999999999991
s(S'just'
p7451
S'moved'
p7452
tp7453
F2
s(S'where'
p7454
S'it'
tp7455
F2
s(S'and'
p7456
S'far'
p7457
tp7458
F2
s(g6051
S'them'
p7459
tp7460
F2
s(g6865
S'by'
tp7461
F2
s(S'dark'
p7462
S'one,'
p7463
tp7464
F2
s(S'at'
p7465
g4297
tp7466
F92
s(S'thee?"'
S'"Roberto.'
p7467
tp7468
F2
s(S'talk'
p7469
S'about'
p7470
tp7471
F5.9999999999999991
s(S'told'
S'him.'
p7472
tp7473
F19
s(S'as'
p7474
g5880
tp7475
F19
s(S'matter?"'
S'"I'
tp7476
F2
s(S'the'
S'boat.'
p7477
tp7478
F5
s(g1957
S'all'
p7479
tp7480
F2.9999999999999996
s(S'said.'
S'\x93My'
p7481
tp7482
F2
s(S'"Is'
p7483
S'it'
p7484
tp7485
F2
s(S'much'
p7486
S'and'
p7487
tp7488
F2
s(S'any'
p7489
S'little'
p7490
tp7491
F2
s(S'something'
p7492
g3623
tp7493
F2
s(S'he'
p7494
S'asked.'
p7495
tp7496
F10
s(S'"Every'
p7497
S'one'
tp7498
F2
s(S'got'
p7499
S'in'
p7500
tp7501
F2
s(S'look'
p7502
S'into'
tp7503
F2
s(S'forty'
p7504
S'days'
p7505
tp7506
F2
s(S'\x93He\x92ll'
p7507
S'take'
p7508
tp7509
F2
s(S'So'
p7510
S'he'
tp7511
F2
s(S'had'
S'brought'
p7512
tp7513
F2
s(S'man'
S'thought'
p7514
tp7515
F2
s(S'said.'
S'I'
tp7516
F2.9999999999999996
s(S'is'
p7517
S'only'
p7518
tp7519
F4
s(S'where'
g2526
tp7520
F2.9999999999999996
s(S'lot'
S'of'
p7521
tp7522
F4
s(S'steadily'
p7523
S'and'
tp7524
F2.9999999999999996
s(S'the'
p7525
S'bottles'
p7526
tp7527
F2
s(S'\x93I\x92ll'
p7528
S'be'
p7529
tp7530
F2
s(S'not'
S'realize'
p7531
tp7532
F2
s(S'I'
S'looked'
tp7533
F5
s(g1111
S'is'
p7534
tp7535
F21
s(S'Brett'
p7536
S'laughed.'
p7537
tp7538
F2
s(S'was'
S'much'
p7539
tp7540
F2
s(S'though'
g2715
tp7541
F2.9999999999999996
s(S'must'
S'see'
tp7542
F2
s(S'the'
S'shadow'
p7543
tp7544
F4
s(S'told'
S'me'
p7545
tp7546
F2
s(S'They'
p7547
g4965
tp7548
F2
s(S'"And'
p7549
S'what'
p7550
tp7551
F2
s(S'the'
p7552
S'solid'
p7553
tp7554
F2
s(S'whether'
p7555
S'I'
tp7556
F2
s(S'wish'
p7557
S'to'
p7558
tp7559
F5
s(S'You'
p7560
S'had'
p7561
tp7562
F2
s(S'Jordan.'
S'"What'
tp7563
F2
s(g5042
S'back'
p7564
tp7565
F2.9999999999999996
s(S'so'
S'hot'
p7566
tp7567
F2
s(S'him.'
p7568
S'Then'
p7569
tp7570
F2
s(S'man'
S'and'
tp7571
F5
s(g3682
S'thee?"'
p7572
tp7573
F2
s(S'through'
p7574
S'the'
tp7575
F32
s(g5171
S'close'
p7576
tp7577
F2
s(S'the'
p7578
S'flat'
p7579
tp7580
F2.9999999999999996
s(S'be'
g4498
tp7581
F2
s(g4336
g7258
tp7582
F2.9999999999999996
s(S'do'
S'it'
tp7583
F8
s(g5299
S'birds'
p7584
tp7585
F2
s(S'and'
S'dipped'
p7586
tp7587
F2
s(S'the'
S'country'
p7588
tp7589
F2.9999999999999996
s(S'that'
S'any'
p7590
tp7591
F2
s(g3075
S'the'
tp7592
F2
s(S'saw'
S'a'
tp7593
F4
s(S'two'
p7594
g5169
tp7595
F2
s(S'saw'
p7596
S'her'
p7597
tp7598
F4
s(S'hard'
p7599
S'for'
tp7600
F2
s(S'of'
p7601
S'a'
tp7602
F32
s(S'a'
S'tank,"'
p7603
tp7604
F2.9999999999999996
s(g3329
S'strong'
p7605
tp7606
F2
s(g6921
S'you?\x94'
p7607
tp7608
F2
s(S'"Don\'t'
p7609
S'you'
tp7610
F5.9999999999999991
s(S'now,"'
p7611
S'he'
tp7612
F2.9999999999999996
s(S'carrying'
p7613
S'the'
p7614
tp7615
F4
s(g3281
S'good'
tp7616
F2
s(S'handed'
p7617
S'it'
tp7618
F5
s(g799
S'first'
p7619
tp7620
F11.999999999999998
s(S'to'
S'himself.'
p7621
tp7622
F2.9999999999999996
s(S'Certainly'
p7623
S'it'
tp7624
F2
s(g7214
g3364
tp7625
F2.9999999999999996
s(S'had'
S'discovered'
p7626
tp7627
F2
s(S'today.'
p7628
S'But'
p7629
tp7630
F2
s(S'then'
S'sat'
tp7631
F2
s(S'I'
S'look'
p7632
tp7633
F2
s(g2386
S'on'
tp7634
F4
s(S'turned'
p7635
S'at'
p7636
tp7637
F2
s(S'rose'
p7638
S'and'
tp7639
F2
s(g4124
S'of'
p7640
tp7641
F2
s(g5443
g3171
tp7642
F2
s(S'for'
p7643
S'me'
p7644
tp7645
F2
s(S'the'
S'shade,"'
p7646
tp7647
F2
s(S'tell'
p7648
S'you.'
p7649
tp7650
F2
s(S'\x93Why'
p7651
S'don\x92t'
tp7652
F2
s(S'were'
p7653
S'and'
p7654
tp7655
F2.9999999999999996
s(S'which'
p7656
S'I'
tp7657
F2
s(S'she'
g924
tp7658
F5
s(S'of'
p7659
S'your'
p7660
tp7661
F2
s(S'don\x92t'
g10
tp7662
F4
s(g1731
g3666
tp7663
F5
s(g6121
S'are'
p7664
tp7665
F8
s(g7032
S'to'
p7666
tp7667
F19
s(S'and'
p7668
S'Macomber'
p7669
tp7670
F5.9999999999999991
s(S'if'
S'I'
tp7671
F14
s(S'them'
p7672
S'with'
p7673
tp7674
F2.9999999999999996
s(g4234
g4151
tp7675
F5.9999999999999991
s(S'boy'
g4388
tp7676
F2.9999999999999996
s(S'this'
p7677
S'and'
tp7678
F4
s(S'and'
S'we\x92ll'
p7679
tp7680
F2
s(S'"Sit'
p7681
S'down,"'
p7682
tp7683
F2
s(S'"Yes."'
p7684
g6532
tp7685
F2
s(S'before'
S'they'
p7686
tp7687
F5
s(S'no'
p7688
S'longer'
p7689
tp7690
F2
s(g4303
g1956
tp7691
F2
s(S'went'
S'on.'
p7692
tp7693
F2.9999999999999996
s(S'\x93How'
p7694
S'is'
p7695
tp7696
F2
s(S'them'
g4160
tp7697
F2
s(g5762
S'me'
p7698
tp7699
F4
s(S'down'
p7700
S'with'
tp7701
F2
s(S'the'
p7702
g5456
tp7703
F2
s(S'show'
p7704
S'the'
tp7705
F2
s(S'think'
S'so?"'
p7706
tp7707
F2
s(g3325
g2207
tp7708
F5.9999999999999991
s(S'himself'
p7709
S'in'
tp7710
F4
s(S'or'
p7711
S'if'
tp7712
F2
s(S'at'
p7713
S'all'
p7714
tp7715
F2
s(S'this'
p7716
g3770
tp7717
F4
s(S'the'
S'car'
p7718
tp7719
F14
s(S'up'
p7720
S'now'
p7721
tp7722
F2
s(S'But'
p7723
g1201
tp7724
F2.9999999999999996
s(g858
S'climbed'
p7725
tp7726
F2
s(g2726
S'wind'
p7727
tp7728
F5.9999999999999991
s(S'some'
S'great'
p7729
tp7730
F2
s(S'line'
S'of'
p7731
tp7732
F2.9999999999999996
s(S'walls'
p7733
S'of'
tp7734
F2
s(S'was'
S'the'
p7735
tp7736
F22
s(g3494
S'so'
p7737
tp7738
F5
s(g3138
S'was'
tp7739
F2
s(S'Braddocks'
p7740
g4725
tp7741
F4
s(S'many'
S'people'
p7742
tp7743
F5.9999999999999991
s(S'He'
p7744
g2807
tp7745
F47.999999999999993
s(g4171
S'Macomber'
p7746
tp7747
F2
s(S'and'
p7748
S'almost'
p7749
tp7750
F2.9999999999999996
s(S'are'
S'the'
p7751
tp7752
F2.9999999999999996
s(S'the'
g1919
tp7753
F2
s(S'I'
S'have'
p7754
tp7755
F28
s(g11
S'me."'
p7756
tp7757
F2
s(S'really'
g4418
tp7758
F2
s(S'was'
S'about'
p7759
tp7760
F2.9999999999999996
s(S'made'
p7761
S'us'
p7762
tp7763
F2
s(S'not'
S'taking'
p7764
tp7765
F2
s(S'and'
p7766
S'sent'
p7767
tp7768
F2
s(S'until'
p7769
S'the'
tp7770
F2.9999999999999996
s(g1040
S'who'
p7771
tp7772
F11
s(S'"You'
p7773
S'are'
tp7774
F5
s(S'his'
p7775
S'lines'
tp7776
F2.9999999999999996
s(g1409
g2191
tp7777
F2
s(S'the'
S'night'
p7778
tp7779
F7
s(S'"He'
p7780
S'had'
tp7781
F2
s(S'been'
S'better'
tp7782
F2
s(S'the'
S'stream.'
p7783
tp7784
F2.9999999999999996
s(S'little'
S'in'
p7785
tp7786
F2
s(S'and'
S'her'
p7787
tp7788
F5.9999999999999991
s(S'it,\x94'
p7789
S'Wilson'
tp7790
F2
s(S'the'
g922
tp7791
F2
s(S'could'
S'see,'
p7792
tp7793
F2
s(S'under'
p7794
g5124
tp7795
F19
s(S'wouldn\x92t'
S'like'
tp7796
F2
s(S'the'
g4850
tp7797
F2
s(S'great'
S'beauty'
tp7798
F2
s(S'to'
S'work.'
p7799
tp7800
F4
s(g660
S'the'
tp7801
F5
s(S'have'
g414
tp7802
F2
s(S'and'
p7803
g5323
tp7804
F2
s(S'\x93I'
p7805
g5936
tp7806
F2.9999999999999996
s(S'a'
g814
tp7807
F4
s(g6660
g3080
tp7808
F13
s(S'had'
S'reached'
p7809
tp7810
F2.9999999999999996
s(g2918
S'wake'
tp7811
F2
s(S'Let'
p7812
g1615
tp7813
F2
s(S'the'
S'wooden'
p7814
tp7815
F2
s(S'if'
p7816
S'they'
p7817
tp7818
F2.9999999999999996
s(S'a'
g124
tp7819
F2
s(S'the'
g4365
tp7820
F2
s(S'driver'
S'to'
tp7821
F2
s(g665
S'gone'
p7822
tp7823
F4
s(S'coffee.'
p7824
S'We'
p7825
tp7826
F2
s(S'now.'
p7827
S'The'
p7828
tp7829
F2
s(g5598
S'and'
p7830
tp7831
F2
s(S'sight'
S'in'
tp7832
F2
s(g3257
S'"I'
p7833
tp7834
F2
s(g1464
S'one'
p7835
tp7836
F4
s(S'the'
S'darkness.'
p7837
tp7838
F2
s(S'"I'
p7839
g4051
tp7840
F2
s(S'never'
p7841
S'know'
tp7842
F2
s(g7424
g5665
tp7843
F2
s(g804
S'He'
tp7844
F7
s(S'low'
p7845
S'over'
tp7846
F2
s(S'Golz'
p7847
S'in'
tp7848
F2
s(S'very'
S'brave."'
p7849
tp7850
F2
s(S'they'
p7851
S'lovely?'
p7852
tp7853
F2
s(S'gone'
S'through'
tp7854
F2.9999999999999996
s(S'to'
p7855
g5523
tp7856
F2.9999999999999996
s(S'forty-fathom'
p7857
S'coils'
p7858
tp7859
F2
s(S'him,'
p7860
S'and'
p7861
tp7862
F5
s(S'what'
p7863
S'was'
p7864
tp7865
F2
s(S'carry'
S'her'
tp7866
F2
s(S'said'
g4190
tp7867
F2
s(S'gone'
S'in'
p7868
tp7869
F2
s(S'it.'
S'There'
tp7870
F2
s(g2290
S'and'
tp7871
F2.9999999999999996
s(S'were'
S'his'
p7872
tp7873
F4
s(g2114
S'of'
tp7874
F4
s(g6566
S'remember'
p7875
tp7876
F2.9999999999999996
s(S'the'
g3781
tp7877
F5.9999999999999991
s(g488
S'when'
tp7878
F2
s(g4453
g2082
tp7879
F2.9999999999999996
s(S'things'
p7880
S'that'
tp7881
F2
s(g3750
S'over'
tp7882
F2.9999999999999996
s(S'leaves'
p7883
S'of'
tp7884
F2.9999999999999996
s(S'"Good'
p7885
S'night,'
p7886
tp7887
F2
s(S'do'
S'what'
tp7888
F2
s(S'a'
S'balance'
tp7889
F2
s(S'"What\'s'
p7890
g2047
tp7891
F7
s(S'The'
p7892
S'gypsy'
p7893
tp7894
F2.9999999999999996
s(S'to'
S'you'
tp7895
F2
s(S'\x93May'
p7896
S'I'
tp7897
F2
s(S'Pablo'
p7898
S'who'
p7899
tp7900
F2
s(g1291
S'only'
tp7901
F2
s(S'having'
p7902
S'a'
tp7903
F2
s(S'get'
p7904
S'off'
tp7905
F2
s(S'shiny'
p7906
S'black'
p7907
tp7908
F2
s(S'wrong'
p7909
g5465
tp7910
F2
s(S'like'
S'it.'
tp7911
F2
s(g6030
S'fish'
p7912
tp7913
F17
s(S'He'
p7914
g5173
tp7915
F2
s(g4254
S'was'
p7916
tp7917
F2
s(g4378
S'four'
p7918
tp7919
F2
s(g6358
S'up'
p7920
tp7921
F5.9999999999999991
s(S'Golz'
p7922
S'said.'
tp7923
F4
s(S'kind'
p7924
S'of'
p7925
tp7926
F4
s(S'Then'
p7927
g3376
tp7928
F4
s(S'old'
S'man,"'
p7929
tp7930
F2
s(S'trees'
p7931
S'as'
tp7932
F2
s(S'and'
p7933
S'back'
tp7934
F2
s(S'man'
g711
tp7935
F2
s(g5837
g6796
tp7936
F4
s(S'very'
p7937
S'much'
tp7938
F5.9999999999999991
s(S'the'
p7939
S'bank'
p7940
tp7941
F2.9999999999999996
s(g1148
S'I\x92m'
tp7942
F2
s(S'and'
p7943
S'if'
p7944
tp7945
F4
s(g3664
g2151
tp7946
F2.9999999999999996
s(S'went'
p7947
S'down'
p7948
tp7949
F7
s(g6497
S'go'
tp7950
F2.9999999999999996
s(S'But'
p7951
S'they'
p7952
tp7953
F9
s(S'him'
S'with'
tp7954
F2.9999999999999996
s(S'half'
p7955
g5642
tp7956
F2.9999999999999996
s(S'knew'
S'it.'
p7957
tp7958
F2
s(S'they'
S'go'
p7959
tp7960
F2.9999999999999996
s(g6435
g4632
tp7961
F2.9999999999999996
s(S'the'
p7962
S'rabbit'
p7963
tp7964
F2
s(S'a'
S'decision.'
p7965
tp7966
F2
s(S'Also'
p7967
S'he'
tp7968
F2.9999999999999996
s(S'go'
S'back'
tp7969
F2
s(S'the'
S'clouds'
tp7970
F2
s(S'future'
p7971
S'in'
p7972
tp7973
F2
s(S'his'
S'back.'
p7974
tp7975
F4
s(S'I'
S'would'
tp7976
F9
s(S'"You'
p7977
S'have'
tp7978
F5
s(g4267
S'about'
p7979
tp7980
F4
s(g3451
S'way."'
p7981
tp7982
F2
s(S'beer'
p7983
g2409
tp7984
F2
s(S'were'
S'caught'
p7985
tp7986
F2
s(S'him'
S'I'
tp7987
F5.9999999999999991
s(S'eyes'
p7988
S'only'
p7989
tp7990
F2
s(S'had'
S'always'
p7991
tp7992
F2
s(S'can'
p7993
S'we'
p7994
tp7995
F2
s(S'the'
S'badness."'
p7996
tp7997
F2
s(S'the'
S'glasses'
p7998
tp7999
F2
s(g7005
S'and'
p8000
tp8001
F4
s(S'at'
p8002
S'all,'
p8003
tp8004
F2
s(g7463
S'called'
p8005
tp8006
F2
s(g509
g3166
tp8007
F2
s(g2853
S'and'
p8008
tp8009
F5
s(S'it'
S'could'
tp8010
F2
s(S'before'
p8011
S'he'
tp8012
F7
s(S'am'
p8013
S'I'
tp8014
F2.9999999999999996
s(S'to'
p8015
g7502
tp8016
F5
s(g7479
S'of'
p8017
tp8018
F10
s(S'with'
p8019
S'its'
p8020
tp8021
F4
s(S'night'
S'after'
p8022
tp8023
F2
s(S'herself'
p8024
S'and'
tp8025
F2
s(g1306
S'of'
tp8026
F2
s(S'What'
p8027
g5836
tp8028
F5.9999999999999991
s(S'us.'
p8029
S'It\x92s'
p8030
tp8031
F2
s(S'\x93I'
p8032
S'want'
tp8033
F2
s(S'we'
p8034
S'have'
p8035
tp8036
F5
s(g2614
S'other'
p8037
tp8038
F2
s(S'house'
p8039
S'where'
p8040
tp8041
F2.9999999999999996
s(S'behind'
p8042
S'the'
tp8043
F5
s(S'harpoon'
p8044
S'and'
tp8045
F2
s(S'too'
p8046
g2148
tp8047
F2
s(S'ran'
p8048
S'down'
tp8049
F2
s(g5401
S'and'
tp8050
F2.9999999999999996
s(S'was'
S'married'
p8051
tp8052
F2
s(S'care'
p8053
S'of'
p8054
tp8055
F2
s(S'On'
p8056
g7062
tp8057
F4
s(g5390
S'bed'
p8058
tp8059
F2.9999999999999996
s(S'Wilson.'
S'\x93I'
tp8060
F2
s(S'Jake,"'
p8061
S'he'
tp8062
F5
s(S'past'
p8063
S'the'
tp8064
F2
s(S'make'
S'a'
tp8065
F10
s(S'toward'
S'him'
p8066
tp8067
F2
s(S'asked'
p8068
S'the'
tp8069
F5
s(S'turned'
p8070
S'his'
p8071
tp8072
F2
s(S'went'
p8073
S'off'
p8074
tp8075
F2.9999999999999996
s(g7948
g6964
tp8076
F5
s(S'more'
p8077
g2382
tp8078
F2
s(S'\x93You'
S'don\x92t'
p8079
tp8080
F5
s(S'asked'
S'him'
tp8081
F2
s(S'mar'
p8082
S'which'
tp8083
F2
s(S'a'
S'damn'
p8084
tp8085
F2.9999999999999996
s(S'away'
p8086
S'that'
p8087
tp8088
F2
s(S'bank'
S'of'
tp8089
F5
s(g351
S'up'
tp8090
F2
s(g7686
g1244
tp8091
F2
s(S'had'
S'not'
p8092
tp8093
F11
s(S'the'
S'electric'
p8094
tp8095
F2
s(S'went'
p8096
S'out.'
p8097
tp8098
F4
s(S'time'
S'the'
tp8099
F2
s(S'that'
S'to'
tp8100
F4
s(S'where'
S'you'
p8101
tp8102
F2
s(S'of'
S'Pablo'
p8103
tp8104
F2
s(g5940
S'and'
tp8105
F4
s(S'don\x92t'
p8106
S'really'
p8107
tp8108
F2
s(S'do'
S'it,'
p8109
tp8110
F2
s(S'hot'
p8111
S'and'
tp8112
F5.9999999999999991
s(S'and'
p8113
S'very'
p8114
tp8115
F2
s(S'the'
S'river'
p8116
tp8117
F2.9999999999999996
s(S'asked.'
S'"No.'
p8118
tp8119
F2
s(S'I'
g2721
tp8120
F15
s(S'one'
S'will'
p8121
tp8122
F2
s(g104
S'soon'
p8123
tp8124
F2
s(S'something'
p8125
S'to'
tp8126
F2
s(S'were'
g6176
tp8127
F2.9999999999999996
s(S'stop'
p8128
S'to'
p8129
tp8130
F2
s(g968
g5913
tp8131
F15
s(S'as'
p8132
S'though'
p8133
tp8134
F16
s(S'join'
p8135
g5843
tp8136
F2
s(g6119
S'him'
p8137
tp8138
F4
s(S'had'
p8139
S'felt'
p8140
tp8141
F2
s(S'am'
S'not'
p8142
tp8143
F2
s(g718
S'art'
p8144
tp8145
F2
s(g4953
g1683
tp8146
F4
s(S'the'
g7971
tp8147
F2
s(S'bait'
p8148
S'fish'
tp8149
F2
s(S'Some'
p8150
g2232
tp8151
F2.9999999999999996
s(S'most'
p8152
S'of'
tp8153
F5
s(S'you'
S'do'
tp8154
F5.9999999999999991
s(S'see'
S'all'
tp8155
F2
s(S'gun-bearers'
p8156
S'who'
p8157
tp8158
F2
s(g2870
S'you,'
p8159
tp8160
F2.9999999999999996
s(S'fish'
S'had'
tp8161
F2
s(S'Jordan'
S'asked'
tp8162
F2.9999999999999996
s(S'anything'
p8163
S'about'
p8164
tp8165
F2
s(S'very'
g8111
tp8166
F2
s(g681
S'over'
tp8167
F5
s(S'As'
p8168
g762
tp8169
F5
s(S'to'
S'him.'
p8170
tp8171
F5
s(g7230
S'and'
tp8172
F2
s(S'off'
p8173
S'a'
tp8174
F2
s(S'man'
S'nodded'
p8175
tp8176
F2
s(g964
g592
tp8177
F13
s(S'Macomber'
p8178
S'asked.'
p8179
tp8180
F9
s(S'getting'
p8181
S'the'
p8182
tp8183
F2
s(S'the'
S'gun-bearers'
p8184
tp8185
F2
s(S'so'
p8186
S'great'
p8187
tp8188
F2
s(S'not'
S'show'
p8189
tp8190
F2
s(S'have'
g7428
tp8191
F5.9999999999999991
s(S'sat'
g2509
tp8192
F9
s(S'up.'
S'There'
tp8193
F2
s(S'stood'
p8194
S'now'
p8195
tp8196
F2
s(S'you'
S'had'
p8197
tp8198
F5.9999999999999991
s(S'what'
S'a'
tp8199
F4
s(S'around'
p8200
S'the'
p8201
tp8202
F10
s(S'brought'
p8203
S'the'
tp8204
F4
s(g5341
S'a'
tp8205
F2
s(g2641
S'this'
p8206
tp8207
F2
s(S'again'
p8208
g782
tp8209
F11.999999999999998
s(S'why'
p8210
S'should'
p8211
tp8212
F2.9999999999999996
s(S'and'
p8213
S'soda'
p8214
tp8215
F2
s(S'point'
S'of'
tp8216
F2
s(g8187
S'that'
tp8217
F2
s(S'Pablo'
p8218
S'said.'
p8219
tp8220
F14
s(S'over'
S'her'
tp8221
F4
s(S'was'
S'talking'
tp8222
F2
s(g7432
g3077
tp8223
F4
s(S'I'
S'take'
tp8224
F2
s(S'gay'
p8225
S'and'
tp8226
F2
s(S'tell'
p8227
g6151
tp8228
F5
s(g536
S'who'
p8229
tp8230
F2
s(S'the'
S'wind.'
p8231
tp8232
F2.9999999999999996
s(S'trees'
p8233
S'along'
tp8234
F2
s(S'it,"'
p8235
S'the'
tp8236
F2
s(g1674
S'breeze'
p8237
tp8238
F2.9999999999999996
s(S'early'
p8239
S'morning'
p8240
tp8241
F5
s(g8197
S'better'
p8242
tp8243
F2
s(S'man'
S'thought.'
tp8244
F2.9999999999999996
s(S'really'
p8245
g3335
tp8246
F2
s(g7396
g275
tp8247
F2
s(S'During'
p8248
S'the'
tp8249
F2
s(S'him'
p8250
S'roar'
tp8251
F2
s(g6788
S'des'
p8252
tp8253
F2
s(S'his'
p8254
g2535
tp8255
F2
s(S'and'
S'rested'
tp8256
F2.9999999999999996
s(g8040
S'they'
p8257
tp8258
F7
s(g1456
S'said.'
p8259
tp8260
F2.9999999999999996
s(S'him'
p8261
S'stop'
p8262
tp8263
F2
s(S'don\x92t'
p8264
g6259
tp8265
F2
s(S'we'
S'walked'
p8266
tp8267
F2
s(S'can'
S'see'
p8268
tp8269
F2
s(S'have'
p8270
S'a'
tp8271
F26
s(S'one'
S'to'
tp8272
F2.9999999999999996
s(S'man'
S'with'
tp8273
F8
s(S'them,'
p8274
S'the'
tp8275
F2
s(g3974
g1853
tp8276
F2
s(S'looked'
p8277
g4678
tp8278
F2
s(S'\x93Why'
p8279
S'not'
p8280
tp8281
F4
s(S'"To'
p8282
S'blow'
tp8283
F2
s(g4260
S'up'
tp8284
F2
s(S'onto'
p8285
S'a'
tp8286
F2
s(S'had'
S'just'
p8287
tp8288
F5
s(S'you'
g3450
tp8289
F4
s(S'and'
S'said:'
p8290
tp8291
F2
s(S'with'
S'me'
p8292
tp8293
F2.9999999999999996
s(g1718
g6335
tp8294
F31
s(g2761
S'sitting'
p8295
tp8296
F2.9999999999999996
s(S'He'
p8297
S'could'
tp8298
F7
s(S'are'
S'an'
p8299
tp8300
F2.9999999999999996
s(g2979
g1574
tp8301
F4
s(S'man'
S'of'
tp8302
F2
s(S'was'
S'by'
p8303
tp8304
F2
s(S'the'
S'side'
tp8305
F7
s(g6998
S'should'
tp8306
F4
s(S'car'
S'was'
p8307
tp8308
F2
s(S'two'
p8309
S'hundred'
tp8310
F4
s(g380
g15
tp8311
F2.9999999999999996
s(S'You'
p8312
S"can't"
p8313
tp8314
F2
s(g2230
S'think'
p8315
tp8316
F4
s(g5206
S'to'
tp8317
F14
s(S'away'
p8318
S'in'
tp8319
F2
s(S'And'
p8320
S'I'
tp8321
F2
s(S'up'
S'at'
tp8322
F4
s(S'his'
p8323
S'thumb'
tp8324
F2.9999999999999996
s(S'is'
S'he'
p8325
tp8326
F2
s(S'only'
S'a'
tp8327
F4
s(S'the'
S'long'
p8328
tp8329
F2.9999999999999996
s(S'was'
g1828
tp8330
F2
s(S'going'
S'down'
tp8331
F2
s(S'said.'
S'"I\'m'
p8332
tp8333
F2
s(S'sun'
S'made'
p8334
tp8335
F2
s(g6847
g1883
tp8336
F28
s(S'beauty'
p8337
S'and'
p8338
tp8339
F2
s(S'a'
g1507
tp8340
F2.9999999999999996
s(g1684
S'to'
tp8341
F2.9999999999999996
s(S'him.'
p8342
S'Robert'
tp8343
F2
s(S'putting'
p8344
S'up'
tp8345
F2
s(S'came'
p8346
S'the'
tp8347
F2
s(g3689
S'Raspail,'
p8348
tp8349
F2
s(S'get'
S'out'
tp8350
F2.9999999999999996
s(S'"It'
p8351
S'will'
p8352
tp8353
F2
s(S'is'
p8354
S'a'
tp8355
F21
s(S'boy'
S'told'
tp8356
F2
s(S'balance'
p8357
S'of'
tp8358
F2.9999999999999996
s(S'how'
p8359
S'is'
p8360
tp8361
F2
s(S'\x93I'
p8362
S'am'
tp8363
F2.9999999999999996
s(S'clouds'
p8364
S'over'
tp8365
F2
s(S'more'
p8366
S'than'
p8367
tp8368
F9
s(S'was'
S'there'
p8369
tp8370
F2
s(S'the'
S'wine.'
p8371
tp8372
F2.9999999999999996
s(S'among'
p8373
S'the'
p8374
tp8375
F2
s(S'was'
S'another'
p8376
tp8377
F2
s(S'\x93But'
S'I'
tp8378
F4
s(S'stood'
p8379
S'up'
tp8380
F4
s(S'the'
S'beginning,"'
p8381
tp8382
F2
s(g5236
S'see'
p8383
tp8384
F2
s(S'The'
g5380
tp8385
F2
s(S'the'
S'carbine.'
p8386
tp8387
F2.9999999999999996
s(S'liked'
p8388
g1763
tp8389
F2.9999999999999996
s(S'When'
p8390
S'I'
tp8391
F4
s(g3300
S'and'
tp8392
F2
s(S'He'
p8393
g2216
tp8394
F2
s(S"don't"
p8395
S'know'
p8396
tp8397
F2.9999999999999996
s(S'"Where'
p8398
S'do'
tp8399
F2
s(S'the'
g3934
tp8400
F4
s(S'a'
S'sudden'
p8401
tp8402
F2
s(S'\x93No.'
p8403
S'I'
tp8404
F2.9999999999999996
s(g6322
S'his'
p8405
tp8406
F33
s(S'for'
p8407
S'Macomber'
p8408
tp8409
F2
s(g4030
S'The'
p8410
tp8411
F4
s(g6369
g5389
tp8412
F28.999999999999996
s(S'Wilson'
p8413
S'thought.'
tp8414
F2.9999999999999996
s(S'you'
g7557
tp8415
F2
s(S'went'
p8416
g3261
tp8417
F5
s(S'he'
g2698
tp8418
F2
s(S'become'
p8419
S'so'
p8420
tp8421
F2
s(S'long'
S'in'
tp8422
F2
s(S'blue'
p8423
g2286
tp8424
F2
s(S'down'
p8425
g5117
tp8426
F2
s(S'the'
S'corral'
p8427
tp8428
F2
s(S'a'
S'broken'
p8429
tp8430
F2
s(S'even'
p8431
S'the'
p8432
tp8433
F2
s(S'just'
p8434
S'a'
tp8435
F2.9999999999999996
s(S'it'
S'would'
tp8436
F11
s(S'be'
S'much'
p8437
tp8438
F2.9999999999999996
s(g2716
S'a'
tp8439
F4
s(g2713
S'meat'
p8440
tp8441
F2
s(g3482
S'sat'
tp8442
F4
s(S'"Rather,"'
p8443
S'said'
tp8444
F2
s(S'is'
g2950
tp8445
F4
s(S'let'
p8446
S'us'
tp8447
F2
s(g633
S'she'
tp8448
F2
s(S'not'
S'many'
tp8449
F2
s(S'line'
S'slip'
p8450
tp8451
F2
s(S'know.'
S'You'
p8452
tp8453
F2
s(S'one,"'
p8454
S'the'
tp8455
F2
s(S'table'
S'that'
tp8456
F2
s(S'since'
p8457
S'a'
tp8458
F2
s(S'I'
S'said.'
p8459
tp8460
F43
s(S'much'
p8461
S'about'
p8462
tp8463
F2
s(S'"Kashkin,"'
p8464
S'Robert'
tp8465
F2
s(S'then'
S'we\x92ll'
p8466
tp8467
F2
s(S'we'
p8468
S'should'
p8469
tp8470
F2
s(g1472
g1090
tp8471
F2
s(S'in'
p8472
S'for'
tp8473
F2
s(S'said'
p8474
S'Wilson.'
p8475
tp8476
F11
s(g2719
S'at'
p8477
tp8478
F2
s(g6962
S'felt'
p8479
tp8480
F4
s(S'As'
p8481
S'they'
p8482
tp8483
F2.9999999999999996
s(S'waiter'
S'took'
tp8484
F2
s(S'worked'
p8485
g127
tp8486
F2.9999999999999996
s(g1923
g4018
tp8487
F2
s(S'his'
S'mouth'
p8488
tp8489
F5
s(g5717
g138
tp8490
F2
s(S'know'
S'it'
tp8491
F2
s(g7199
S'the'
tp8492
F2
s(S'not'
S'mind'
p8493
tp8494
F2
s(S'so'
p8495
g6040
tp8496
F18
s(S'the'
S'stern.'
p8497
tp8498
F2
s(S'able'
p8499
S'to'
tp8500
F5
s(S'old'
S'woman'
p8501
tp8502
F7
s(S'in'
S'on'
tp8503
F2
s(S'Now'
p8504
S'he'
tp8505
F4
s(S'the'
p8506
S'sacks'
p8507
tp8508
F2
s(S'into'
g4673
tp8509
F2.9999999999999996
s(S'the'
p8510
g3471
tp8511
F2
s(S'fish'
p8512
S'if'
tp8513
F2
s(S'the'
S'fishermen'
p8514
tp8515
F5
s(S'as'
p8516
S'soon'
tp8517
F2.9999999999999996
s(S'said.'
S'\x93Yes,\x94'
tp8518
F2
s(S'took'
p8519
S'it'
p8520
tp8521
F2
s(S'"Hello,'
p8522
S'you'
p8523
tp8524
F2
s(S'in'
p8525
S'English.'
p8526
tp8527
F2
s(S'willing'
p8528
S'to'
tp8529
F2.9999999999999996
s(S'like'
p8530
S'an'
p8531
tp8532
F2.9999999999999996
s(S'came'
p8533
g4404
tp8534
F2
s(S'have'
S'been'
p8535
tp8536
F11
s(g2557
g3720
tp8537
F2
s(S'way'
S'I'
tp8538
F2
s(g7404
S'"Why'
tp8539
F2
s(g4290
S'hills.'
p8540
tp8541
F2
s(g7280
S'that'
p8542
tp8543
F4
s(S'the'
S'bullet'
p8544
tp8545
F2.9999999999999996
s(S'you'
S'must'
p8546
tp8547
F2
s(S'when'
p8548
S'I'
tp8549
F8
s(S'his'
S'standards'
p8550
tp8551
F2
s(S'it'
p8552
S'in'
tp8553
F8
s(S'it'
p8554
S'now'
tp8555
F2
s(S'"I'
p8556
S'know.'
tp8557
F2.9999999999999996
s(S'her'
p8558
S'with'
tp8559
F2
s(S'and'
S'nothing'
p8560
tp8561
F2
s(S'This'
p8562
S'is'
tp8563
F2
s(S'"I'
S'just'
p8564
tp8565
F2.9999999999999996
s(S'and'
S'felt'
p8566
tp8567
F4
s(g461
g4223
tp8568
F5.9999999999999991
s(S'said'
p8569
S'Brett.'
p8570
tp8571
F4
s(S'no'
p8572
g6592
tp8573
F2.9999999999999996
s(S'was'
p8574
g6619
tp8575
F2
s(S'"It\x92s'
p8576
g7391
tp8577
F2
s(S'"How'
p8578
S'did'
tp8579
F2
s(S'and'
p8580
S'did'
p8581
tp8582
F2.9999999999999996
s(S'or'
p8583
g287
tp8584
F2
s(g6965
S'him'
p8585
tp8586
F2
s(S'spoke'
p8587
S'of'
tp8588
F2
s(g8116
S'through'
tp8589
F2
s(S'asked.'
S'\x93A'
p8590
tp8591
F2
s(g673
g6595
tp8592
F2
s(S'have'
S'had'
tp8593
F2
s(S'\x93We\x92ll'
p8594
S'put'
tp8595
F2.9999999999999996
s(S'to'
S'drink'
p8596
tp8597
F4
s(S'and'
p8598
S'now'
p8599
tp8600
F5.9999999999999991
s(S'a'
S'harder'
p8601
tp8602
F2
s(S'you'
p8603
S'really'
p8604
tp8605
F2
s(g6065
g7270
tp8606
F7
s(S'high'
p8607
S'grass'
p8608
tp8609
F2.9999999999999996
s(S'wildly'
p8610
S'and'
p8611
tp8612
F2
s(S'The'
p8613
S'old'
tp8614
F27
s(S'"It'
p8615
S'is'
p8616
tp8617
F9
s(S'them'
S'through'
tp8618
F2
s(S'we'
S'go'
p8619
tp8620
F2
s(g2224
S'of'
tp8621
F4
s(S'reserve'
g6409
tp8622
F4
s(S'all'
p8623
g639
tp8624
F4
s(S'he'
g8070
tp8625
F2
s(S'he'
g174
tp8626
F17
s(S'wonder'
S'if'
tp8627
F2.9999999999999996
s(g3539
S'You'
tp8628
F2
s(S'at'
p8629
S'each'
p8630
tp8631
F2.9999999999999996
s(S'know'
S'about'
tp8632
F2.9999999999999996
s(S'"I'
p8633
g284
tp8634
F2
s(S'if'
p8635
S'the'
p8636
tp8637
F4
s(S'asleep'
S'and'
tp8638
F2
s(S'it'
S'against'
tp8639
F2.9999999999999996
s(g7394
S'with'
p8640
tp8641
F5.9999999999999991
s(S'when'
p8642
S'a'
tp8643
F2
s(g122
g914
tp8644
F14
s(S'bridge'
g2031
tp8645
F2.9999999999999996
s(S'not'
S'even'
p8646
tp8647
F2
s(g5519
g6279
tp8648
F2
s(S'enough'
p8649
S'at'
p8650
tp8651
F2
s(S'you'
p8652
S'can'
p8653
tp8654
F7
s(g1160
S'made'
tp8655
F4
s(g568
S'men'
p8656
tp8657
F2.9999999999999996
s(S'he'
g4955
tp8658
F2
s(S'looked'
S'him'
p8659
tp8660
F2
s(S'went'
p8661
S'by'
p8662
tp8663
F5
s(S'old'
g6434
tp8664
F10
s(S'keep'
p8665
S'away'
tp8666
F2
s(S'good'
S'at'
p8667
tp8668
F2
s(g8452
S'told'
p8669
tp8670
F2
s(S'up'
p8671
S'to'
tp8672
F16
s(g7569
S'I'
tp8673
F2.9999999999999996
s(S'the'
S'red'
p8674
tp8675
F2.9999999999999996
s(S'sitting'
p8676
S'down'
tp8677
F2
s(S'have'
S'any'
p8678
tp8679
F2.9999999999999996
s(S'off'
p8680
S'at'
tp8681
F2
s(S'get'
S'your'
p8682
tp8683
F2
s(g3283
S'field'
p8684
tp8685
F2
s(S'he'
g6707
tp8686
F2.9999999999999996
s(S'see'
S'you.'
p8687
tp8688
F2.9999999999999996
s(S'the'
S'beer'
p8689
tp8690
F2
s(S'said'
p8691
g3888
tp8692
F2
s(S'a'
S'week'
p8693
tp8694
F2.9999999999999996
s(S'make'
p8695
S'his'
p8696
tp8697
F2
s(S'for'
p8698
S'three'
p8699
tp8700
F2
s(S'his'
p8701
g4648
tp8702
F4
s(S'is'
p8703
g95
tp8704
F5.9999999999999991
s(S'the'
g6378
tp8705
F2
s(S'Margot'
p8706
S'said'
p8707
tp8708
F2
s(g2576
g3873
tp8709
F2.9999999999999996
s(S'thing'
p8710
S'about'
p8711
tp8712
F2.9999999999999996
s(S'from'
p8713
S'the'
tp8714
F57
s(S'Her'
p8715
S'head'
tp8716
F2
s(S'in'
p8717
g669
tp8718
F9
s(S'to'
g6090
tp8719
F2
s(g707
S'The'
p8720
tp8721
F2
s(S'had'
S'put'
tp8722
F2
s(S'the'
S'high'
p8723
tp8724
F5.9999999999999991
s(S'felt'
p8725
S'as'
tp8726
F2
s(S'They'
p8727
S'could'
p8728
tp8729
F2
s(S'them'
p8730
S'to'
tp8731
F4
s(S'the'
S'brandy'
p8732
tp8733
F2
s(S'the'
S'one'
p8734
tp8735
F4
s(S'sat'
p8736
S'by'
p8737
tp8738
F2
s(g3869
g4916
tp8739
F18
s(g3350
S'the'
tp8740
F2
s(S'have'
S'everything."'
p8741
tp8742
F2
s(S'will'
S'find'
p8743
tp8744
F4
s(S'a'
S'bad'
p8745
tp8746
F4
s(g1605
S'back."'
p8747
tp8748
F2
s(S'the'
S'Yankees'
p8749
tp8750
F2
s(S'Mrs.'
p8751
S'Braddocks,'
p8752
tp8753
F2
s(S'handed'
p8754
S'the'
tp8755
F2
s(S'that,"'
p8756
S'she'
tp8757
F2
s(S'"He'
p8758
S'is'
tp8759
F5.9999999999999991
s(S'It'
p8760
S'must'
p8761
tp8762
F2
s(S'a'
S'drink.'
p8763
tp8764
F4
s(S'man'
S'felt'
p8765
tp8766
F2
s(g7640
g7983
tp8767
F2
s(S'had'
S'said,'
p8768
tp8769
F2
s(g4460
g4214
tp8770
F2
s(S'would'
p8771
S'think'
p8772
tp8773
F2
s(g6749
g2840
tp8774
F2
s(g4676
S'kept'
p8775
tp8776
F2
s(S'of'
S'thy'
p8777
tp8778
F2
s(S'it'
p8779
S'from'
tp8780
F2.9999999999999996
s(S'before'
p8781
S'the'
tp8782
F5.9999999999999991
s(S'seemed'
p8783
S'to'
p8784
tp8785
F8
s(S'my'
S'eyes'
tp8786
F2
s(S'The'
S'taxi'
p8787
tp8788
F2.9999999999999996
s(g6042
S'you'
p8789
tp8790
F5
s(S'fishermen'
S'called'
p8791
tp8792
F2
s(S'and'
S'shoulders'
p8793
tp8794
F2
s(S'said.'
S'\x93Now'
p8795
tp8796
F2.9999999999999996
s(S'Braddocks'
p8797
S'and'
p8798
tp8799
F2
s(S'and'
p8800
S'seeing'
p8801
tp8802
F2
s(g5948
g7517
tp8803
F10
s(g4285
g5415
tp8804
F2.9999999999999996
s(S'and'
p8805
S'you'
p8806
tp8807
F11
s(S'first'
S'of'
tp8808
F2
s(S'this'
S'with'
tp8809
F2.9999999999999996
s(S'made'
p8810
S'me'
p8811
tp8812
F2.9999999999999996
s(S'was'
S'all'
p8813
tp8814
F9
s(S'another'
p8815
S'cup'
tp8816
F2.9999999999999996
s(g132
S'are'
p8817
tp8818
F8
s(S'me.'
p8819
g3883
tp8820
F2
s(S'the'
p8821
S'rope'
p8822
tp8823
F5
s(S'the'
S'thread'
p8824
tp8825
F2
s(S'they'
p8826
g1434
tp8827
F2
s(g3542
S'a'
tp8828
F2.9999999999999996
s(S'You'
p8829
S'see'
p8830
tp8831
F2
s(S'has'
S'a'
tp8832
F5.9999999999999991
s(S'the'
p8833
S'bolt'
p8834
tp8835
F2
s(S'said.'
S'"It'
tp8836
F4
s(S'the'
S'green'
p8837
tp8838
F2
s(g8035
S'another'
p8839
tp8840
F2
s(S'fish'
p8841
S'that'
p8842
tp8843
F4
s(S'and'
S'I\x92ll'
p8844
tp8845
F2
s(S'are'
p8846
S'very'
p8847
tp8848
F2.9999999999999996
s(S'he'
S'needed'
p8849
tp8850
F2
s(S'pocket'
p8851
S'of'
tp8852
F2
s(S'forehead'
p8853
S'and'
p8854
tp8855
F2
s(S'"No.'
p8856
S'I'
tp8857
F2
s(S'nice'
p8858
S'about'
tp8859
F2
s(g2040
S'does'
p8860
tp8861
F2
s(S'going'
p8862
S'straight'
tp8863
F2
s(S'I'
g8264
tp8864
F11
s(S'a'
S'little'
p8865
tp8866
F23
s(S'that'
p8867
S'rose'
p8868
tp8869
F2.9999999999999996
s(g734
g816
tp8870
F4
s(g3081
g2305
tp8871
F5
s(S'the'
g4013
tp8872
F2
s(S'the'
S'car.'
p8873
tp8874
F2
s(S'take'
p8875
S'a'
tp8876
F5
s(S'as'
p8877
S'we'
tp8878
F2.9999999999999996
s(g8813
S'he'
tp8879
F2
s(S'did'
p8880
S'they'
p8881
tp8882
F2
s(S'a'
g3035
tp8883
F2.9999999999999996
s(g4533
g4939
tp8884
F19
s(g1588
S'sake,"'
p8885
tp8886
F2
s(S'now'
p8887
S'it'
tp8888
F2
s(S'his'
g6318
tp8889
F2
s(S'my'
S'hand'
tp8890
F2
s(S'a'
S'machine'
p8891
tp8892
F2.9999999999999996
s(S'and'
S'into'
tp8893
F2
s(S'\x93Not'
p8894
g632
tp8895
F2
s(g2597
g760
tp8896
F7
s(S'said.'
g3705
tp8897
F2
s(S'smelled'
p8898
S'the'
p8899
tp8900
F2.9999999999999996
s(S'the'
S'front'
p8901
tp8902
F4
s(S'but'
p8903
S'he'
tp8904
F9
s(S'over'
p8905
S'to'
tp8906
F8
s(S'is'
p8907
S'it?"'
p8908
tp8909
F2
s(g7666
S'work'
p8910
tp8911
F2.9999999999999996
s(S'\x93It\x92s'
p8912
S'been'
tp8913
F2
s(S'found'
p8914
S'a'
tp8915
F2
s(g3621
g7483
tp8916
F2
s(S'the'
S'coffee'
p8917
tp8918
F2
s(S'she'
p8919
S'said.'
p8920
tp8921
F35
s(S'I'
S'read'
p8922
tp8923
F4
s(S'hands'
p8924
S'and'
tp8925
F4
s(S'Macomber'
p8926
S'said.'
tp8927
F10
s(g4810
S'in.'
p8928
tp8929
F2
s(S'people'
p8930
S'in'
tp8931
F5.9999999999999991
s(g8229
g8519
tp8932
F2
s(g8608
S'and'
p8933
tp8934
F2.9999999999999996
s(S'"She'
p8935
S'is'
p8936
tp8937
F2
s(g1844
S'it.'
tp8938
F5.9999999999999991
s(g6970
g3691
tp8939
F4
s(S'a'
S'place'
p8940
tp8941
F2
s(S'on'
p8942
S'the'
p8943
tp8944
F110
s(g7273
S'of'
tp8945
F17
s(S'up'
p8946
S'from'
tp8947
F2.9999999999999996
s(S'to'
S'move'
p8948
tp8949
F5
s(S'he'
S'thought'
tp8950
F2.9999999999999996
s(g6663
S'and'
tp8951
F31
s(S'her'
p8952
S'husband'
p8953
tp8954
F2
s(S'\x93Fish,\x94'
p8955
S'he'
tp8956
F2
s(g1998
S'on'
tp8957
F4
s(S'perhaps'
p8958
S'I'
tp8959
F2.9999999999999996
s(g58
S'the'
p8960
tp8961
F11.999999999999998
s(S'for'
g4196
tp8962
F2.9999999999999996
s(S'knew'
g2912
tp8963
F2
s(S'a'
S'certain'
p8964
tp8965
F7
s(g996
g4629
tp8966
F7
s(S'a'
g505
tp8967
F2
s(S'finish'
p8968
S'off'
tp8969
F2
s(S'the'
S'morning.'
p8970
tp8971
F4
s(S'they'
p8972
S'can'
p8973
tp8974
F2.9999999999999996
s(S'his'
S'throat'
p8975
tp8976
F4
s(S'after'
S'that'
p8977
tp8978
F2
s(S'and'
S'a'
tp8979
F27
s(S'rose'
p8980
S'in'
tp8981
F2
s(S'it.'
p8982
S'The'
p8983
tp8984
F2.9999999999999996
s(S'then'
g5824
tp8985
F2.9999999999999996
s(S'and'
p8986
g7617
tp8987
F5
s(g1801
S'being'
p8988
tp8989
F2
s(S'"That\'s'
p8990
S'a'
tp8991
F2
s(S'were'
p8992
S'almost'
p8993
tp8994
F2.9999999999999996
s(g4152
g4733
tp8995
F2
s(S'the'
S'darkness'
p8996
tp8997
F2.9999999999999996
s(S'He'
p8998
g7132
tp8999
F2.9999999999999996
s(S'might'
p9000
S'be'
tp9001
F2
s(S'of'
p9002
S'their'
p9003
tp9004
F5
s(S'I'
S'was'
tp9005
F28.999999999999996
s(g8164
S'it."'
p9006
tp9007
F2.9999999999999996
s(S'she'
p9008
S'had'
tp9009
F7
s(g7944
S'she'
p9010
tp9011
F2.9999999999999996
s(S'\x93In'
p9012
S'the'
p9013
tp9014
F4
s.