(dp1
(S'"Happy'
p2
S'birthday,'
p3
tp4
F2
s(S'across'
p5
S'my'
tp6
F2.9999999999999996
s(S'to'
p7
S'watch'
p8
tp9
F2.9999999999999996
s(S'surprised'
S'at'
tp10
F2
s(S'myself'
p11
S'into'
tp12
F2
s(S'you'
p13
S'have'
tp14
F5
s(S'the'
S'already'
p15
tp16
F2
s(S'for'
p17
S'many'
p18
tp19
F2
s(S'themselves.'
p20
S'I'
tp21
F2
s(S'he'
S'held'
tp22
F2.9999999999999996
s(S'before'
p23
S'had'
p24
tp25
F2.9999999999999996
s(S'me'
p26
S'again,'
p27
tp28
F4
s(S'my'
p29
S'truck'
p30
tp31
F8
s(S'I'
S"don't"
p32
tp33
F5
s(S'on'
p34
S'a'
tp35
F9
s(S'could'
S'have'
p36
tp37
F7
s(S'box'
p38
S'were'
p39
tp40
F2
s(S'from'
p41
S'me'
tp42
F2.9999999999999996
s(S'to'
p43
S'live'
p44
tp45
F4
s(S'a'
S'few'
p46
tp47
F20
s(S'was'
S'used'
p48
tp49
F2
s(S'looked'
p50
S'like'
tp51
F11
s(S'next'
p52
S'class,'
p53
tp54
F2
s(S'nothing'
p55
S'but'
p56
tp57
F2
s(S"couldn't"
S'stop'
p58
tp59
F2
s(S'want'
S'you'
tp60
F5.9999999999999991
s(S'an'
p61
S'emotion'
p62
tp63
F2
s(S'for'
p64
S'it.'
tp65
F2
s(S'But'
p66
S'it'
tp67
F4
s(S'\x97'
S'and'
p68
tp69
F5
s(S'more.'
p70
S'I'
tp71
F2
s(S'lucky'
p72
S'that'
tp73
F2
s(S'was'
S'going'
tp74
F11
s(S'be'
S'Bella'
p75
tp76
F2
s(S'Phil\x92s'
p77
S'cast'
p78
tp79
F2
s(S'Forks'
p80
S'High'
p81
tp82
F2.9999999999999996
s(S'looked'
p83
S'up'
tp84
F5.9999999999999991
s(S'the'
S'bright'
p85
tp86
F2.9999999999999996
s(S'still'
S'in'
tp87
F2.9999999999999996
s(S'dressed'
p88
S'and'
tp89
F2
s(S'The'
p90
S'way'
p91
tp92
F2.9999999999999996
s(S'They'
p93
S'were'
p94
tp95
F11
s(S'going'
p96
S'to'
tp97
F26
s(S'second,'
p98
S'I'
tp99
F2.9999999999999996
s(S'was'
S'easy'
p100
tp101
F2
s(S'and'
p102
S'that'
p103
tp104
F2.9999999999999996
s(S'let'
p105
S'me'
tp106
F7
s(S'\x93Even'
p107
S'a'
tp108
F2
s(S'here,'
p109
S'and'
tp110
F2.9999999999999996
s(S'beside'
p111
S'the'
p112
tp113
F5
s(S'much.'
p114
S'But'
p115
tp116
F2
s(S'I'
S'thought'
p117
tp118
F11
s(S'he'
p119
S'continued'
tp120
F2.9999999999999996
s(S'the'
S'blood'
p121
tp122
F2
s(S'not'
S'as'
p123
tp124
F5.9999999999999991
s(S'the'
S'living'
p125
tp126
F2
s(S'then'
S'the'
p127
tp128
F2
s(S'put'
p129
S'her'
p130
tp131
F2
s(S'the'
S'Healer\x92s'
p132
tp133
F2
s(S'the'
S'kids'
p134
tp135
F2
s(S"didn't"
S'really'
p136
tp137
F2
s(S'the'
S'familiar'
p138
tp139
F2.9999999999999996
s(S'with'
S'this'
p140
tp141
F2
s(S'those'
p142
S'things'
p143
tp144
F2
s(S'now'
S'that'
tp145
F2.9999999999999996
s(S'"If'
p146
S"I'd"
tp147
F2
s(S'the'
p148
S'Seekers'
p149
tp150
F4
s(S'Will'
p151
S'you'
p152
tp153
F2
s(S'reminded'
p154
S'me.'
p155
tp156
F2
s(S'the'
S'flow'
p157
tp158
F2
s(S'my'
p159
S'answer.'
p160
tp161
F2
s(S'if'
p162
S'my'
tp163
F2
s(S'really'
p164
S'was'
tp165
F2
s(S'my'
p166
S'best'
p167
tp168
F4
s(S'was'
S'me.'
p169
tp170
F2.9999999999999996
s(S'a'
S'dime,"'
p171
tp172
F2
s(S'I'
S'dropped'
p173
tp174
F2
s(S'the'
p175
S'Healing'
p176
tp177
F2
s(S'admit'
S'that'
tp178
F4
s(S'the'
p179
S'host\x92s'
p180
tp181
F2
s(S'I\x92d'
p182
S'been'
p183
tp184
F5
s(S'moment'
p185
S'of'
p186
tp187
F4
s(S'on'
p188
S'that'
p189
tp190
F2.9999999999999996
s(S'The'
p191
S'voice'
p192
tp193
F2
s(S"I'd"
p194
S'never'
p195
tp196
F4
s(S'box'
p197
S'was'
tp198
F2.9999999999999996
s(S'he'
S'saw'
p199
tp200
F2
s(S'you'
p201
S'need'
p202
tp203
F5.9999999999999991
s(S'while'
p204
S'they'
p205
tp206
F2
s(S'was'
S'also'
p207
tp208
F2
s(S'No'
p209
S'one'
p210
tp211
F9
s(S'had'
p212
S'the'
p213
tp214
F13
s(S'though'
p215
S'it'
p216
tp217
F2.9999999999999996
s(S'The'
p218
S'woman'
p219
tp220
F5.9999999999999991
s(S'Was'
p221
S'this'
p222
tp223
F2
s(S'to'
p224
S'protect'
p225
tp226
F2.9999999999999996
s(S'with'
p227
S'one'
tp228
F2.9999999999999996
s(S'we'
p229
S'had'
tp230
F2
s(S'to'
p231
S'visit'
p232
tp233
F2.9999999999999996
s(S'his'
S'arm'
tp234
F5
s(S'I'
S'listened'
p235
tp236
F2.9999999999999996
s(S'say'
p237
S'anything'
p238
tp239
F2
s(S'to'
S'distract'
p240
tp241
F2
s(S'me.'
p242
S'Plane'
p243
tp244
F2
s(S'have'
p245
S'made'
p246
tp247
F2
s(S'see'
p248
S'it'
tp249
F2
s(S'did'
p250
S'not'
p251
tp252
F9
s(S'get'
p253
S'the'
p254
tp255
F8
s(S'and'
p256
S'reached'
p257
tp258
F4
s(S'the'
S'ceremony'
p259
tp260
F2
s(S'better'
p261
S'because'
tp262
F2
s(S'loud'
p263
S'guffaws.'
p264
tp265
F2
s(S'"No,"'
p266
S'I'
tp267
F2
s(S'to'
p268
S'focus'
p269
tp270
F2
s(S'over'
p271
S'in'
tp272
F2
s(S'me.'
S'\x93I\x92m'
tp273
F2
s(S'her'
S'pixie'
p274
tp275
F2
s(S'"Will'
p276
S'you'
p277
tp278
F2
s(S'When'
p279
S'we'
p280
tp281
F5
s(S'my'
S'tone'
p282
tp283
F2
s(S'another'
p284
S'human'
p285
tp286
F2
s(S'the'
S'parking'
p287
tp288
F5
s(S'screaming'
p289
S'in'
p290
tp291
F2
s(S'like'
p292
S'it'
p293
tp294
F2.9999999999999996
s(S'hand'
S'caught'
p295
tp296
F2
s(S'was'
S'relieved'
p297
tp298
F2
s(S'commitment'
p299
S'was'
tp300
F2
s(S'I'
S'started'
p301
tp302
F5
s(S'to'
S'force'
p303
tp304
F2
s(S'my'
p305
S'voice'
p306
tp307
F5.9999999999999991
s(S'I'
S'might'
p308
tp309
F2.9999999999999996
s(S'take'
S'advantage'
p310
tp311
F2
s(S'for'
p312
S'some'
p313
tp314
F5.9999999999999991
s(S'giggled.'
p315
S'\x93Of'
p316
tp317
F2
s(S'I'
S'opened'
p318
tp319
F2.9999999999999996
s(S'was'
S'being'
p320
tp321
F2
s(S'which'
p322
S'I'
tp323
F2.9999999999999996
s(S'to'
S'say'
p324
tp325
F5
s(S'a'
S'hundred'
p326
tp327
F5.9999999999999991
s(S'hard'
p328
S'to'
p329
tp330
F11.999999999999998
s(S'take'
p331
S'the'
tp332
F2
s(S'heard'
S'of'
tp333
F2
s(S'lived'
p334
S'in'
tp335
F5.9999999999999991
s(S'so'
p336
S'dark.'
p337
tp338
F2
s(S'or'
p339
S'even'
p340
tp341
F4
s(S'mother'
S'had'
p342
tp343
F2
s(S'She\x92d'
p344
S'sighed,'
p345
tp346
F2
s(S'At'
p347
S'that'
p348
tp349
F2
s(S'that'
p350
S'you\x92re'
p351
tp352
F2
s(S'that'
p353
S'were'
p354
tp355
F5
s(S'her'
p356
S'slender'
p357
tp358
F2
s(S'you'
p359
S'didn\x92t'
p360
tp361
F2
s(S'she\x92d'
p362
S'fretted.'
p363
tp364
F2
s(g316
S'what'
p365
tp366
F2
s(S'makes'
p367
S'him'
p368
tp369
F2
s(S'"That\'s'
p370
S'the'
p371
tp372
F2
s(g365
S'I\x92m'
tp373
F2.9999999999999996
s(S'explained'
p374
S'the'
p375
tp376
F2
s(S'my'
p377
S'dad,'
p378
tp379
F2
s(S'\x93You'
p380
S'know'
p381
tp382
F2
s(S'you\x92re'
S'not'
p383
tp384
F2
s(S'so'
p385
S'many'
p386
tp387
F5
s(S'Charlie'
p388
S'had'
p389
tp390
F5
s(S'and'
p391
S'he'
p392
tp393
F15
s(S'I'
S'needed'
p394
tp395
F2
s(S'I'
S'assured'
p396
tp397
F2
s(S'good'
p398
S'to'
tp399
F2
s(S'feeling'
p400
S'was'
tp401
F2
s(S'a'
S'year'
p402
tp403
F2
s(S'too'
p404
S'much'
p405
tp406
F8
s(S'much'
p407
S'as'
p408
tp409
F4
s(S'were'
p410
S'more'
p411
tp412
F2
s(S'through'
p413
S'his'
p414
tp415
F2.9999999999999996
s(S'eyes'
S'as'
p416
tp417
F2
s(S'started'
p418
S'on'
tp419
F2
s(S'moment,'
S'I'
tp420
F2
s(S'one'
p421
S'is'
tp422
F4
s(S'it'
p423
S'just'
tp424
F2
s(S"hadn't"
p425
S'been'
p426
tp427
F2.9999999999999996
s(S'the'
p428
S'empty'
p429
tp430
F2
s(S'waiting'
p431
S'to'
p432
tp433
F2
s(S'hundreds'
p434
S'of'
p435
tp436
F2.9999999999999996
s(S'over'
S'his'
p437
tp438
F2
s(S'highway.'
p439
S'It'
tp440
F2
s(S'work'
p441
S'than'
p442
tp443
F2
s(S'He'
p444
S'and'
p445
tp446
F2
s(S'reached'
p447
S'over'
tp448
F2
s(S'you'
p449
S'preferred'
p450
tp451
F2
s(S"wasn't"
S'in'
tp452
F2
s(S'Mrs.'
p453
S'Cullen'
p454
tp455
F2
s(S'his'
S'hand.'
p456
tp457
F4
s(S'little'
S'miffed'
p458
tp459
F2
s(S'wait'
p460
S'till'
p461
tp462
F2
s(S'face'
S'was'
tp463
F11.999999999999998
s(S'up'
p464
S'together'
p465
tp466
F2
s(S'her'
p467
S'new'
p468
tp469
F2.9999999999999996
s(S'didn\x92t'
S'think'
tp470
F2
s(S'the'
S'conversation'
p471
tp472
F2
s(S'like'
S'Charlie.\x94'
p473
tp474
F2
s(S'elbow'
p475
S'and'
p476
tp477
F2
s(S'eyes'
S'still'
p478
tp479
F2.9999999999999996
s(S'the'
p480
S'job.'
p481
tp482
F2
s(S'off'
p483
S'by'
p484
tp485
F2
s(S'of'
p486
S'white'
p487
tp488
F2
s(S'of'
p489
S'course,'
p490
tp491
F2.9999999999999996
s(S'\x93You\x92re'
p492
S'not'
p493
tp494
F2.9999999999999996
s(S'met'
p495
S'my'
p496
tp497
F2
s(S'a'
S'pile'
tp498
F2.9999999999999996
s(S'came'
S'in'
p499
tp500
F2
s(S'their'
p501
S'mother'
p502
tp503
F2
s(S'saw'
S'his'
p504
tp505
F2
s(S'only'
p506
S'the'
p507
tp508
F5
s(S'for'
S'his'
p509
tp510
F5
s(S'all'
S'a'
tp511
F2
s(S'I'
S'did'
tp512
F10
s(S'sound'
p513
S'like'
p514
tp515
F2.9999999999999996
s(S'to'
p516
S'let'
p517
tp518
F5.9999999999999991
s(S'so'
p519
S'much'
p520
tp521
F5
s(S'inside'
p522
S'the'
p523
tp524
F5
s(S'and'
p525
S'she'
p526
tp527
F5
s(S'thought.'
p528
S'The'
p529
tp530
F2.9999999999999996
s(S'tell'
g242
tp531
F2
s(S'Before'
p532
S'he'
tp533
F2
s(S'though'
S'we'
tp534
F2
s(S'must'
p535
S'be'
p536
tp537
F5
s(S'\x93What'
p538
S'is'
p539
tp540
F2
s(S'the'
S'boy'
tp541
F2.9999999999999996
s(S'the'
S'wedding'
p542
tp543
F4
s(S'I\x92d'
S'ever'
tp544
F2
s(S'\x93I'
p545
S'don\x92t'
p546
tp547
F10
s(S'in'
p548
S'all'
p549
tp550
F5
s(S'on'
p551
S'me'
tp552
F2
s(S'dream,'
p553
S'I'
tp554
F2
s(S'to'
S'buy'
p555
tp556
F4
s(g235
S'to'
tp557
F2.9999999999999996
s(S'Which'
p558
S'is'
p559
tp560
F2
s(S'my'
p561
S'head.'
p562
tp563
F9
s(S'In'
p564
S'that'
p565
tp566
F2.9999999999999996
s(S'in'
p567
S'its'
p568
tp569
F2.9999999999999996
s(S'About'
p570
S'my'
tp571
F2
s(S'But'
p572
S'that'
p573
tp574
F2
s(S'the'
S'room.'
p575
tp576
F5
s(S'for'
p577
S'anything'
p578
tp579
F2
s(S'he'
S'spoke.'
p580
tp581
F2
s(S"don't"
p582
S'have'
tp583
F2.9999999999999996
s(S'let'
p584
S'the'
tp585
F2
s(S'Victoria'
p586
S'had'
p587
tp588
F2
s(S'up'
p589
S'on'
p590
tp591
F10
s(S'could'
S'describe'
p592
tp593
F2
s(S'of'
p594
S'Forks.'
p595
tp596
F2
s(S'my'
S'mother'
p597
tp598
F5
s(S'was'
p599
S'my'
tp600
F5
s(S'since'
p601
S"I'd"
tp602
F2
s(S'felt'
p603
S'a'
tp604
F2.9999999999999996
s(S'again.'
p605
S'The'
p606
tp607
F2.9999999999999996
s(S'the'
S'bell'
p608
tp609
F2.9999999999999996
s(S'the'
S'world,'
p610
tp611
F5
s(S'pile'
p612
S'of'
p613
tp614
F5
s(S'holding'
p615
S'my'
p616
tp617
F2
s(S'the'
g439
tp618
F2
s(S'just'
p619
S'the'
tp620
F7
s(S'had'
p621
S'she'
p622
tp623
F2
s(S'for'
S'him,'
p624
tp625
F2.9999999999999996
s(S'door'
S'for'
tp626
F2.9999999999999996
s(S'to'
p627
S'come'
p628
tp629
F4
s(S'been'
p630
S'unable'
tp631
F2
s(S'of'
p632
S'these'
p633
tp634
F2
s(S'shorter'
p635
S'than'
p636
tp637
F2
s(S'had'
S'decided'
tp638
F2
s(S'with'
p639
S'which'
p640
tp641
F2
s(S'he'
p642
S'gets'
p643
tp644
F2.9999999999999996
s(S'too.\x94'
p645
S'And'
tp646
F2
s(S'a'
S'big'
p647
tp648
F2.9999999999999996
s(S'made'
p649
S'the'
p650
tp651
F2
s(S'I'
S'mean.'
p652
tp653
F2.9999999999999996
s(S'of'
p654
S'revulsion.'
p655
tp656
F2
s(S'"It\'s'
p657
S'a'
tp658
F2
s(S'I'
S'set'
p659
tp660
F2
s(S'exchanged'
p661
S'a'
tp662
F2
s(S'could'
p663
S'never'
p664
tp665
F2.9999999999999996
s(S'I'
S'stumbled'
p666
tp667
F2
s(S'students'
S'were'
p668
tp669
F2
s(S'the'
S'ring'
p670
tp671
F2
s(S'under'
p672
S'my'
p673
tp674
F10
s(S'when'
p675
g148
tp676
F7
s(S'felt'
S'about'
tp677
F2
s(S'might'
p678
S'have'
tp679
F5.9999999999999991
s(S'and'
p680
S'had'
tp681
F2
s(S'choked'
p682
S'out.'
p683
tp684
F2
s(S'Inside'
p685
S'the'
p686
tp687
F2.9999999999999996
s(S"didn't"
p688
S'spend'
p689
tp690
F2
s(S'your'
p691
S'next'
p692
tp693
F2
s(S'it'
S"wouldn't"
tp694
F2
s(S'away'
p695
S'quickly,'
p696
tp697
F2
s(S'around'
p698
S'my'
tp699
F5.9999999999999991
s(S'for'
p700
S'your'
p701
tp702
F4
s(S'my'
S'side'
p703
tp704
F2.9999999999999996
s(S'think'
S'of'
tp705
F5.9999999999999991
s(S'his'
S'face.'
p706
tp707
F5
s(S'not'
p708
S'quite'
p709
tp710
F2
s(S'Dad,\x94'
p711
S'I'
tp712
F2
s(S'hard'
p713
S'and'
p714
tp715
F2
s(S'first'
S'time'
p716
tp717
F2.9999999999999996
s(S'But'
p718
S'his'
tp719
F2
s(S'people'
p720
S'have'
tp721
F2
s(S'so'
p722
S'beautiful'
p723
tp724
F2
s(S'\x93What'
p725
S'do'
tp726
F2
s(S'"I\'m'
p727
S'headed'
p728
tp729
F2
s(S'call'
p730
S'it'
p731
tp732
F2
s(S'one'
S'hundred'
p733
tp734
F2
s(S'\x93I\x92m'
p735
S'sorry'
p736
tp737
F2
s(S'How'
p738
S'could'
p739
tp740
F2
s(S'He'
p741
S'looked'
tp742
F7
s(S'fact'
p743
S'were'
p744
tp745
F2
s(S'was'
p746
S'she'
tp747
F2
s(S'the'
S'patio'
p748
tp749
F2
s(S'"It\'s'
p750
S'my'
p751
tp752
F2
s(S'\x93I'
p753
S'do,\x94'
p754
tp755
F2
s(S'and'
p756
S'my'
p757
tp758
F13
s(S'think'
S'the'
p759
tp760
F2
s(S'off'
p761
S'and'
p762
tp763
F2
s(S'was'
S'off'
p764
tp765
F2
s(S'was'
S'coming'
p766
tp767
F2
s(S'the'
p768
S'situation'
p769
tp770
F2
s(S'said'
S'as'
tp771
F4
s(S'take'
p772
S'care'
p773
tp774
F2
s(S'In'
p775
S'the'
p776
tp777
F2.9999999999999996
s(S'Certainly'
p778
S'not'
p779
tp780
F2
s(S'"Happy'
p781
S'birthday,"'
p782
tp783
F2
s(S'pounds'
p784
S'of'
p785
tp786
F2
s(S'closer'
p787
S'to'
p788
tp789
F2
s(S'I'
S'panicked'
p790
tp791
F2
s(S'happiest'
p792
S'summer'
p793
tp794
F2
s(S'subject'
p795
S'of'
tp796
F2
s(S'I'
S"couldn't"
p797
tp798
F27
s(S'you'
p799
S'the'
p800
tp801
F2.9999999999999996
s(g125
S'room'
p802
tp803
F2
s(S'got'
p804
S'a'
tp805
F2
s(S'much'
S'sewn'
p806
tp807
F2
s(S'even'
p808
S'to'
tp809
F2
s(S'me'
p810
S'his'
p811
tp812
F2.9999999999999996
s(S'food,'
p813
S'and'
p814
tp815
F2.9999999999999996
s(S'He'
p816
S'studied'
p817
tp818
F2
s(S'do'
p819
S'not'
p820
tp821
F2.9999999999999996
s(S'as'
p822
S'they'
p823
tp824
F2.9999999999999996
s(S'as'
S'well'
p825
tp826
F4
s(S'April,'
p827
S'it'
tp828
F2
s(S'a'
S'truck'
p829
tp830
F2
s(S'had'
p831
S'no'
p832
tp833
F10
s(S'me'
p834
S'back'
p835
tp836
F2.9999999999999996
s(S'tied'
p837
S'to'
tp838
F2
s(S'from'
p839
S'me,'
p840
tp841
F2
s(S'to'
S'squirm'
p842
tp843
F2
s(S'me'
p844
S'if'
tp845
F2.9999999999999996
s(S'or'
p846
S'his'
p847
tp848
F2
s(S'Alice'
p849
S'said.'
p850
tp851
F2.9999999999999996
s(S'Carlisle'
p852
S'said'
p853
tp854
F2
s(S'it.'
p855
S'I'
tp856
F10
s(S'was'
p857
S'just'
p858
tp859
F14
s(S'the'
S'end.'
p860
tp861
F2
s(S'now,'
p862
S'but'
tp863
F2.9999999999999996
s(S'you'
p864
S'tell'
tp865
F2
s(S'would'
S'know'
p866
tp867
F2
s(S'the'
S'windows'
p868
tp869
F2
s(S'making'
p870
S'a'
tp871
F2
s(S'my'
p872
S'five'
p873
tp874
F2
s(S'would'
p875
S'not'
p876
tp877
F2.9999999999999996
s(S'said,'
p878
S'and'
tp879
F2.9999999999999996
s(S'impressed'
p880
S'by'
p881
tp882
F2
s(S'a'
S'different'
p883
tp884
F2.9999999999999996
s(S'smiled'
p885
S'at'
tp886
F8
s(S'it'
p887
S'felt'
p888
tp889
F4
s(S'against'
p890
S'my'
p891
tp892
F8
s(S'the'
S'kitchen.'
p893
tp894
F2.9999999999999996
s(S'asked'
S'as'
tp895
F2
s(S'The'
p896
S'lights'
p897
tp898
F2
s(S'thought'
S'I'
tp899
F5
s(S'think'
p900
S'she'
p901
tp902
F2
s(S'I'
S'shook'
p903
tp904
F2.9999999999999996
s(S'at'
p905
S'me,'
p906
tp907
F5.9999999999999991
s(S'back'
p908
S'with'
p909
tp910
F2
s(S'if'
p911
S'it'
p912
tp913
F10
s(S'been'
p914
S'a'
tp915
F2.9999999999999996
s(S'Bella,\x94'
p916
S'Ren\xe9e'
p917
tp918
F2
s(S'The'
p919
S'sound'
p920
tp921
F2.9999999999999996
s(S'she'
S"didn't"
p922
tp923
F2
s(S'on'
S'him,'
p924
tp925
F2
s(S'clothes'
p926
S'that'
p927
tp928
F2
s(S'a'
S'low'
p929
tp930
F2
s(S'resigned.'
p931
S'\x93Once'
p932
tp933
F2
s(S'than'
S'I'
tp934
F9
s(S'they'
p935
S"couldn't"
p936
tp937
F2
s(S'first'
S'birthday'
p938
tp939
F2
s(S'look'
p940
S'angry,'
p941
tp942
F2
s(S'got'
p943
S'en-en'
p944
tp945
F2
s(S'to'
p946
S'do'
p947
tp948
F15
s(S'back'
p949
S'to'
p950
tp951
F14
s(S'\x93Perhaps'
p952
S'you'
p953
tp954
F2
s(g445
S'Jessica'
p955
tp956
F2.9999999999999996
s(S'at'
p957
S'school.'
p958
tp959
F2
s(S'you'
p960
S'make'
tp961
F2
s(S'the'
S'back'
p962
tp963
F8
s(S'see'
S'who'
tp964
F2
s(g450
S'to'
p965
tp966
F2
s(S'them'
S'had'
tp967
F2
s(S'She'
p968
g885
tp969
F2
s(S'my'
S'cheeks'
p970
tp971
F2
s(S'The'
p972
S'music'
p973
tp974
F2.9999999999999996
s(S'the'
S'golden'
p975
tp976
F2
s(S'forty-year-olds'
p977
S'I'
tp978
F2
s(S'sign,'
p979
S'which'
p980
tp981
F2
s(S'he'
S'walked'
p982
tp983
F2
s(S'was'
p984
S'even'
p985
tp986
F4
s(S'the'
S'shiny'
p987
tp988
F4
s(S'the'
S'pictures'
p989
tp990
F4
s(S'I'
S'stopped'
p991
tp992
F2
s(S'I'
g900
tp993
F11.999999999999998
s(S'behind'
p994
S'my'
p995
tp996
F5
s(S'relief'
p997
S'to'
p998
tp999
F2
s(S'have'
p1000
S'lived'
p1001
tp1002
F2
s(S'mind'
S'was'
p1003
tp1004
F2.9999999999999996
s(S"didn't"
S'want'
tp1005
F4
s(S'His'
p1006
S'hand'
p1007
tp1008
F2.9999999999999996
s(S'back'
p1009
S'in'
p1010
tp1011
F2
s(S'quite'
p1012
S'so'
p1013
tp1014
F2
s(S'my'
S'neck,'
p1015
tp1016
F2
s(S'knew'
p1017
S'what'
tp1018
F2.9999999999999996
s(S'to'
S'talk'
p1019
tp1020
F2.9999999999999996
s(S'to'
S'understand'
p1021
tp1022
F2.9999999999999996
s(S'it'
S'for'
p1023
tp1024
F2
s(S'to'
p1025
S'have'
p1026
tp1027
F16
s(S'the'
S'door'
p1028
tp1029
F11
s(S'more'
p1030
S'like'
tp1031
F2
s(S'into'
p1032
S'its'
p1033
tp1034
F2
s(S'before'
p1035
S'she'
tp1036
F2.9999999999999996
s(S'I'
S'climbed'
p1037
tp1038
F2
s(S'of'
p1039
S'course'
p1040
tp1041
F2.9999999999999996
s(S'would'
p1042
S'be.'
p1043
tp1044
F2.9999999999999996
s(S"I'd"
S'thought'
p1045
tp1046
F2
s(S'it'
p1047
S'looked'
p1048
tp1049
F4
s(S'could'
S'see'
tp1050
F11
s(S'kept'
S'it'
p1051
tp1052
F2
s(S'tell'
p1053
S'me'
tp1054
F2.9999999999999996
s(S'before'
p1055
S'it'
tp1056
F2.9999999999999996
s(S'Look'
p1057
S'at'
tp1058
F2
s(g716
S'with'
p1059
tp1060
F2
s(S'the'
S'point'
p1061
tp1062
F4
s(S'my'
S'body.'
p1063
tp1064
F2
s(S'piece'
p1065
S'of'
p1066
tp1067
F2.9999999999999996
s(S'by'
p1068
S'the'
p1069
tp1070
F23.999999999999996
s(S'clung'
p1071
S'to'
tp1072
F2
s(S'me'
S'\x97'
tp1073
F2
s(S'eyes'
S'until'
tp1074
F2
s(S'and'
p1075
S'something'
p1076
tp1077
F2
s(S'need'
p1078
S'for'
p1079
tp1080
F2.9999999999999996
s(S'his'
S'golden'
tp1081
F2.9999999999999996
s(S'last'
S'thing'
tp1082
F5
s(S'every'
p1083
S'minute'
p1084
tp1085
F2
s(S'was'
p1086
S'almost'
p1087
tp1088
F5.9999999999999991
s(S'We'
p1089
S'were'
p1090
tp1091
F2.9999999999999996
s(S'the'
p1092
S'night'
p1093
tp1094
F2.9999999999999996
s(S'the'
S'background.'
p1095
tp1096
F2
s(S'tucked'
p1097
S'the'
p1098
tp1099
F2
s(S'slide'
S'for'
p1100
tp1101
F2
s(S'the'
S'enthusiasm'
p1102
tp1103
F2
s(S'you'
S'don\x92t'
tp1104
F2
s(S"can't"
p1105
S'believe'
p1106
tp1107
F2
s(S'The'
p1108
S'rest'
tp1109
F4
s(S'see'
S'you,'
p1110
tp1111
F2
s(S'the'
S'passenger'
p1112
tp1113
F2.9999999999999996
s(S'is'
S'no'
p1114
tp1115
F2.9999999999999996
s(S'way'
p1116
S'of'
tp1117
F2
s(S'my'
S'birthday.'
p1118
tp1119
F2.9999999999999996
s(S'muttered,'
p1120
S'but'
p1121
tp1122
F2
s(S'shoulder'
p1123
S'and'
p1124
tp1125
F2.9999999999999996
s(S'put'
S'it'
tp1126
F2
s(S'this'
p1127
S'really'
p1128
tp1129
F2
s(S'His'
S'hair'
tp1130
F2
s(S'idea'
p1131
S'of'
p1132
tp1133
F5
s(S'in'
p1134
S'her'
p1135
tp1136
F11.999999999999998
s(S'been'
p1137
S'in'
p1138
tp1139
F4
s(S'understand'
S'the'
tp1140
F2
s(S'than'
p1141
S'any'
p1142
tp1143
F2.9999999999999996
s(S'the'
S'face'
p1144
tp1145
F2.9999999999999996
s(S'where'
p1146
S'he'
p1147
tp1148
F4
s(S'you'
p1149
S'know,'
p1150
tp1151
F2.9999999999999996
s(S'my'
S'new'
p1152
tp1153
F10
s(S'I'
S'turned'
p1154
tp1155
F2.9999999999999996
s(S'is'
p1156
S'much'
p1157
tp1158
F2
s(S'the'
p1159
S'true'
p1160
tp1161
F2
s(S'granola'
p1162
S'bars'
p1163
tp1164
F2
s(S'But'
p1165
S'you'
p1166
tp1167
F2
s(S'didn\x92t'
p1168
S'seem'
p1169
tp1170
F2
s(S'could'
S'do'
p1171
tp1172
F2.9999999999999996
s(S'like'
p1173
S'that."'
p1174
tp1175
F2
s(S'raised'
p1176
S'one'
p1177
tp1178
F2.9999999999999996
s(S'when'
p1179
S'my'
tp1180
F2.9999999999999996
s(S'fingers'
S'traced'
p1181
tp1182
F2
s(S'could'
S'feel'
p1183
tp1184
F8
s(S'asked,'
p1185
g305
tp1186
F2
s(S'were.'
p1187
S'The'
tp1188
F2
s(S'a'
S'second.'
p1189
tp1190
F2.9999999999999996
s(S'to'
S'shoot'
p1191
tp1192
F2
s(S'thanks'
p1193
S'to'
p1194
tp1195
F2
s(S'waited'
p1196
S'so'
p1197
tp1198
F4
s(S'an'
p1199
S'empty'
p1200
tp1201
F2
s(S'mother.'
S'\x93You\x92re'
tp1202
F2
s(S'nice'
p1203
S'to'
tp1204
F2.9999999999999996
s(S'the'
p1205
S'man'
p1206
tp1207
F9
s(S'I'
S'took'
tp1208
F14
s(S'for'
S'you'
tp1209
F5
s(g78
S'will'
tp1210
F2
s(S'arms'
p1211
S'and'
p1212
tp1213
F2
s(S'\x93I\x92m'
p1214
S'sure'
p1215
tp1216
F2
s(S'your'
p1217
S'mind,'
p1218
tp1219
F2
s(S'the'
S'unfamiliar'
p1220
tp1221
F2
s(S'"I\'ll'
p1222
S'see'
p1223
tp1224
F2.9999999999999996
s(S'to'
p1225
S'myself,'
p1226
tp1227
F2
s(S'dug'
p1228
S'through'
tp1229
F2
s(S'wanted'
S'was'
tp1230
F2
s(S'flicker'
p1231
S'of'
p1232
tp1233
F2
s(S'felt'
S'my'
p1234
tp1235
F2
s(S'but'
p1236
S'then'
p1237
tp1238
F2
s(S'longer'
p1239
S'than'
tp1240
F2
s(S'name'
p1241
S'for'
p1242
tp1243
F2.9999999999999996
s(S'an'
p1244
S'argument.'
p1245
tp1246
F2
s(S'place'
p1247
S'for'
tp1248
F2
s(S'open'
S'the'
p1249
tp1250
F2
s(S'a'
S'good'
p1251
tp1252
F11
s(S'and'
p1253
S'yet'
p1254
tp1255
F2.9999999999999996
s(S'have'
p1256
S'I'
tp1257
F2
s(S'and'
p1258
S'stuttered'
p1259
tp1260
F2
s(S'of'
S'it'
tp1261
F2
s(S'his'
p1262
S'head'
p1263
tp1264
F2.9999999999999996
s(S'told'
S'you'
p1265
tp1266
F2.9999999999999996
s(S'The'
p1267
S'black'
p1268
tp1269
F2
s(S'find'
p1270
S'this'
p1271
tp1272
F2
s(S'ultimate'
p1273
S'doom:'
p1274
tp1275
F2
s(S'thought'
p1276
S'he'
tp1277
F2
s(S'him.'
p1278
S'I'
tp1279
F2.9999999999999996
s(S'and'
S'then,'
p1280
tp1281
F2
s(S'stick'
p1282
S'by'
p1283
tp1284
F2
s(S'have'
p1285
S'your'
p1286
tp1287
F2.9999999999999996
s(S'making'
p1288
S'the'
p1289
tp1290
F2
s(S'her,'
S'and'
tp1291
F2
s(S'I'
S'worked'
p1292
tp1293
F2
s(S'myself'
p1294
S'to'
tp1295
F2
s(S'us,'
p1296
S'and'
tp1297
F2
s(S'fall'
p1298
S'asleep'
p1299
tp1300
F2
s(S'I'
S'need'
p1301
tp1302
F4
s(g264
S'I'
tp1303
F2
s(S'a'
S'white'
p1304
tp1305
F2
s(S'was'
S'over'
p1306
tp1307
F2
s(S'and'
p1308
S'Edward'
tp1309
F5
s(g922
S'like'
tp1310
F2.9999999999999996
s(S'than'
p1311
S'be'
tp1312
F2
s(S'making'
p1313
S'me'
p1314
tp1315
F2.9999999999999996
s(S'he\x92s'
p1316
S'not'
p1317
tp1318
F2
s(S'she'
p1319
S'could'
p1320
tp1321
F2.9999999999999996
s(S'amount'
p1322
S'of'
p1323
tp1324
F2
s(S'around'
p1325
S'to'
tp1326
F2
s(S'my'
p1327
S'mind'
p1328
tp1329
F8
s(S'knew'
S'that.'
p1330
tp1331
F2
s(S'just'
p1332
S'like'
p1333
tp1334
F5
s(S'nothing'
p1335
S'of'
tp1336
F2
s(S'was'
p1337
S'higher'
p1338
tp1339
F2
s(S'and'
p1340
S'I\x92m'
p1341
tp1342
F7
s(S'chair'
p1343
S'and'
p1344
tp1345
F2
s(S'all'
p1346
S'things'
p1347
tp1348
F2
s(S'caught'
p1349
S'up'
tp1350
F2.9999999999999996
s(S'His'
p1351
S'golden'
p1352
tp1353
F2
s(S'Just'
p1354
S'a'
tp1355
F2.9999999999999996
s(S'listen'
p1356
S'to'
p1357
tp1358
F2
s(S'eyes'
p1359
S'were'
p1360
tp1361
F5.9999999999999991
s(S'But'
p1362
S'the'
p1363
tp1364
F2
s(S'your'
p1365
S'decisions,'
p1366
tp1367
F2
s(S'a'
S'brilliant'
p1368
tp1369
F2
s(S'car'
p1370
S'for'
p1371
tp1372
F2
s(S'corner'
p1373
S'of'
tp1374
F5.9999999999999991
s(S'road.'
p1375
S'I'
tp1376
F2
s(S'the'
S'couch'
p1377
tp1378
F2
s(S'not'
p1379
S'your'
p1380
tp1381
F4
s(S'about'
p1382
S'my'
p1383
tp1384
F2.9999999999999996
s(S'of'
p1385
S'making'
p1386
tp1387
F2
s(S'had'
S'her'
p1388
tp1389
F2
s(S'The'
p1390
S'light'
p1391
tp1392
F4
s(S'marriage'
p1393
g1337
tp1394
F2
s(S'casual'
p1395
S'use'
p1396
tp1397
F2
s(S'hands'
p1398
S'grab'
p1399
tp1400
F2
s(S'me'
S'of'
tp1401
F2
s(S'You\x92re'
p1402
S'a'
tp1403
F2
s(S'taking'
p1404
S'them'
p1405
tp1406
F2
s(S'the'
S'rendezvous'
p1407
tp1408
F2
s(S'want'
S'me'
tp1409
F5.9999999999999991
s(S'thought'
p1410
S'that'
p1411
tp1412
F2.9999999999999996
s(S'much'
p1413
S'too'
p1414
tp1415
F2.9999999999999996
s(S'was'
p1416
S'finally'
p1417
tp1418
F2.9999999999999996
s(g912
S'were'
p1419
tp1420
F4
s(S'He'
p1421
S'scooped'
p1422
tp1423
F2
s(S'my'
S'thoughts'
p1424
tp1425
F2
s(S'mean,'
S'waited'
tp1426
F2
s(S'my'
p1427
S'hands'
p1428
tp1429
F5
s(S'above'
p1430
S'the'
p1431
tp1432
F4
s(S'me'
S'when'
tp1433
F2.9999999999999996
s(S'he'
p1434
g154
tp1435
F2
s(S'that'
S'much'
tp1436
F2.9999999999999996
s(S'snow'
p1437
S'fight'
p1438
tp1439
F2
s(S'next'
p1440
S'hour.'
p1441
tp1442
F2
s(S'soft'
p1443
S'and'
p1444
tp1445
F2.9999999999999996
s(S'was'
p1446
S'right.'
p1447
tp1448
F2
s(S'her'
p1449
S'to'
p1450
tp1451
F2.9999999999999996
s(S'stared'
p1452
S'at'
p1453
tp1454
F8
s(S'bag'
p1455
S'of'
p1456
tp1457
F2
s(S'coming'
S'from'
p1458
tp1459
F2
s(S'mine,'
p1460
S'and'
tp1461
F2
s(S'body'
p1462
S'armor'
p1463
tp1464
F2
s(g1396
S'of'
tp1465
F2
s(S'Though'
p1466
S'the'
tp1467
F5
s(S'be'
p1468
S'the'
p1469
tp1470
F9
s(S'my'
S'truck,'
p1471
tp1472
F2
s(S'exactly'
p1473
S'what'
tp1474
F2
s(S'had'
p1475
S'seen'
p1476
tp1477
F4
s(S'the'
S'morning,'
p1478
tp1479
F2
s(S'as'
g201
tp1480
F2.9999999999999996
s(S'door.'
S'The'
p1481
tp1482
F2
s(S'into'
p1483
S'the'
p1484
tp1485
F38
s(S'this'
p1486
S'most'
p1487
tp1488
F2
s(S'his'
p1489
S'wife'
p1490
tp1491
F2.9999999999999996
s(S'collection'
p1492
S'of'
p1493
tp1494
F2
s(S'back'
p1495
S'before'
p1496
tp1497
F2
s(S'the'
S'hell'
p1498
tp1499
F2
s(g1259
S'out'
tp1500
F2
s(S'I'
S'watched'
p1501
tp1502
F5
s(S'His'
p1503
S'face'
tp1504
F2.9999999999999996
s(S'always'
p1505
g914
tp1506
F4
s(S'face'
S'in'
tp1507
F2.9999999999999996
s(S'my'
p1508
S'attention'
p1509
tp1510
F2
s(S'it'
p1511
S'made'
p1512
tp1513
F4
s(S'be'
p1514
S'free'
p1515
tp1516
F2
s(S'aside'
p1517
S'from'
tp1518
F2.9999999999999996
s(S'the'
S'words'
p1519
tp1520
F5.9999999999999991
s(S'By'
p1521
S'Friday'
p1522
tp1523
F2
s(S'He'
p1524
S'kissed'
tp1525
F2
s(S'make'
p1526
S'your'
tp1527
F2
s(S'relaxed'
p1528
S'his'
p1529
tp1530
F2
s(S'worse'
p1531
S'because'
tp1532
F2.9999999999999996
s(S'trip'
p1533
S'to'
tp1534
F4
s(S'mom!'
p1535
S'I\x92m'
tp1536
F2
s(g998
S'stare'
p1537
tp1538
F5
s(S'throat-clearing'
p1539
S'in'
tp1540
F2
s(S'time'
p1541
S'I'
tp1542
F4
s(S'because'
p1543
S'I'
tp1544
F8
s(S'off'
p1545
S'the'
tp1546
F10
s(S'the'
p1547
S'rainiest'
p1548
tp1549
F2
s(S'wanted'
p1550
S'to'
p1551
tp1552
F9
s(S'and'
p1553
S'in'
p1554
tp1555
F2
s(S'be'
S'a'
tp1556
F10
s(S'never'
p1557
S'seen'
p1558
tp1559
F2
s(S'I'
S'don\x92t'
p1560
tp1561
F25
s(S'Edward,"'
p1562
S'I'
tp1563
F2
s(S'yard'
p1564
S'is'
p1565
tp1566
F2
s(S'who'
p1567
S'could'
p1568
tp1569
F2
s(S'building'
p1570
S'was'
p1571
tp1572
F2
s(S'a'
S'girl'
tp1573
F2.9999999999999996
s(g337
S'I'
tp1574
F2
s(S'allowed'
p1575
S'to'
tp1576
F7
s(S'me,'
p1577
S'I'
tp1578
F2
s(S'degree'
p1579
S'of'
p1580
tp1581
F2.9999999999999996
s(S'I'
S'whispered.'
p1582
tp1583
F4
s(S'only'
p1584
S'get'
p1585
tp1586
F2
s(S'for'
p1587
S'our'
p1588
tp1589
F2.9999999999999996
s(S'not'
S'mine'
p1590
tp1591
F2
s(S'shook'
p1592
S'through'
p1593
tp1594
F2
s(S'me'
p1595
S'by'
p1596
tp1597
F2
s(S'He'
p1598
S'doesn\x92t'
p1599
tp1600
F2
s(S'a'
S'soft'
p1601
tp1602
F2.9999999999999996
s(S'was'
S'completely'
p1603
tp1604
F2
s(S'he'
p1605
S'can'
tp1606
F2
s(S'whispers'
p1607
S'of'
p1608
tp1609
F2
s(S'up,'
p1610
S'and'
tp1611
F2
s(S'was'
S'starting'
tp1612
F2
s(S'the'
p1613
S'movement'
p1614
tp1615
F2
s(S'at'
p1616
S'all.'
p1617
tp1618
F2
s(S'her'
S'eyes'
p1619
tp1620
F4
s(S'middle-aged'
p1621
S'child.'
p1622
tp1623
F2
s(g1317
S'in'
tp1624
F2.9999999999999996
s(S'With'
p1625
S'a'
tp1626
F2.9999999999999996
s(S'surprise'
p1627
S'at'
tp1628
F2
s(S'at'
p1629
S'La'
p1630
tp1631
F2
s(S'playing'
p1632
S'the'
p1633
tp1634
F2
s(S'sitting'
p1635
S'in'
tp1636
F4
s(S'there'
p1637
S'would'
tp1638
F2.9999999999999996
s(S'a'
S'picture'
p1639
tp1640
F2
s(S'Cullen'
S"wasn't"
tp1641
F2
s(S'to'
p1642
g1486
tp1643
F7
s(S'all'
S'those'
p1644
tp1645
F2
s(S'I'
S'flinched'
p1646
tp1647
F2.9999999999999996
s(S'standing'
p1648
S'out'
p1649
tp1650
F2
s(S'the'
S'memory.'
p1651
tp1652
F2
s(S'a'
S'hint'
p1653
tp1654
F2
s(S'happened'
p1655
S'to'
p1656
tp1657
F2.9999999999999996
s(S'Fords'
p1658
S'Deep'
p1659
tp1660
F5
s(S'I'
S'added,'
p1661
tp1662
F2
s(S'on'
p1663
S'her'
p1664
tp1665
F11
s(S'around'
p1666
S'me'
tp1667
F2
s(S'that'
p1668
S'she\x92d'
p1669
tp1670
F2
s(S'you'
p1671
g1282
tp1672
F2
s(S'I'
S'guessed.'
p1673
tp1674
F2
s(S'making'
p1675
S'my'
p1676
tp1677
F2
s(S'throat.'
p1678
S'I'
tp1679
F2
s(S'was'
p1680
S'as'
p1681
tp1682
F2.9999999999999996
s(S'but'
p1683
S'to'
p1684
tp1685
F2
s(S'like'
p1686
S'he'
p1687
tp1688
F7
s(S'along'
p1689
S'the'
tp1690
F2.9999999999999996
s(S'things'
p1691
S'about'
p1692
tp1693
F2.9999999999999996
s(S'told'
S'him.'
p1694
tp1695
F2
s(S'on'
S'him.'
p1696
tp1697
F2
s(S'to'
S'sit'
p1698
tp1699
F5.9999999999999991
s(S'you'
S'look'
tp1700
F2
s(S'no'
S'reason'
p1701
tp1702
F2
s(S'doorknob,'
p1703
S'smiling.'
p1704
tp1705
F2
s(S'not'
S'be'
p1706
tp1707
F5.9999999999999991
s(S'he'
p1708
S'made'
tp1709
F2
s(S'could'
S'tell,'
p1710
tp1711
F2
s(S'my'
p1712
S'eyes.'
p1713
tp1714
F4
s(S'Then'
p1715
S'he'
p1716
tp1717
F2.9999999999999996
s(S'my'
S'back,'
p1718
tp1719
F2
s(S'I'
S'said'
p1720
tp1721
F5.9999999999999991
s(S'exactly'
p1722
S'like'
tp1723
F5
s(S'was'
S'in'
tp1724
F16
s(S'feel'
S'my'
p1725
tp1726
F2
s(S'operating'
p1727
S'room,'
p1728
tp1729
F2
s(S'afraid'
p1730
S'of'
tp1731
F2.9999999999999996
s(S"couldn't"
S'find'
p1732
tp1733
F2.9999999999999996
s(S'the'
p1734
S'thought'
tp1735
F2
s(S'do'
p1736
S'it.'
tp1737
F2
s(S'Bella,'
p1738
S'you'
p1739
tp1740
F2
s(S'made'
p1741
S'up'
p1742
tp1743
F2
s(S'his'
p1744
S'face'
p1745
tp1746
F7
s(S'be.'
p1747
S'I'
tp1748
F2
s(S'with'
S'such'
p1749
tp1750
F4
s(S'I'
S'changed'
p1751
tp1752
F2
s(S'visit'
S'me'
tp1753
F2
s(S'know'
S'I'
tp1754
F2.9999999999999996
s(S'house'
p1755
S'in'
tp1756
F2
s(g1037
S'in'
tp1757
F2
s(S'with'
p1758
S'the'
p1759
tp1760
F31
s(S'to'
p1761
S'stop'
p1762
tp1763
F2
s(S'the'
S'table'
p1764
tp1765
F8
s(S'was'
g1531
tp1766
F2.9999999999999996
s(S'the'
S'rain.'
p1767
tp1768
F2
s(S'me'
p1769
S'a'
tp1770
F13
s(S'tell'
S'your'
p1771
tp1772
F2
s(g526
S'still'
p1773
tp1774
F2
s(S'I'
S'can\x92t'
p1775
tp1776
F9
s(S'someone'
p1777
S'in'
tp1778
F2
s(S'of'
p1779
S'this'
p1780
tp1781
F8
s(S'open'
p1782
g1712
tp1783
F2.9999999999999996
s(S'anything'
S'he'
p1784
tp1785
F2
s(S'I'
S'mean'
p1786
tp1787
F2.9999999999999996
s(S'It'
p1788
S'would'
tp1789
F2
s(S'My'
p1790
S'mom'
p1791
tp1792
F2.9999999999999996
s(S'could'
p1793
S'hear'
tp1794
F8
s(S'Esme'
p1795
S'and'
tp1796
F2
s(S'Charlie'
p1797
S'was'
p1798
tp1799
F7
s(S'tore'
S'my'
tp1800
F2
s(S'you'
S'mean,'
p1801
tp1802
F2.9999999999999996
s(S'you'
S'know'
p1803
tp1804
F7
s(S'my'
p1805
S'favorite'
p1806
tp1807
F4
s(S'"I\'ll'
p1808
S'get'
p1809
tp1810
F4
s(S'was'
S'there.'
p1811
tp1812
F2.9999999999999996
s(S'Charlie'
p1813
S"wasn't"
p1814
tp1815
F2.9999999999999996
s(S'sure'
S'it'
tp1816
F2
s(S"don't"
S'need'
tp1817
F2
s(S'gotten'
p1818
S'over'
tp1819
F2
s(S'I'
S'ran'
p1820
tp1821
F2.9999999999999996
s(S'mood'
p1822
S'to'
tp1823
F2
s(S'this'
p1824
g441
tp1825
F2
s(S'far'
g41
tp1826
F2
s(S'The'
p1827
S'Seeker'
p1828
tp1829
F9
s(S'point'
p1830
S'in'
p1831
tp1832
F2
s(S'At'
p1833
S'least'
p1834
tp1835
F2.9999999999999996
s(g1798
S'waiting'
p1836
tp1837
F5.9999999999999991
s(S'up'
p1838
S'in'
tp1839
F11
s(S'and'
p1840
S'Jasper'
p1841
tp1842
F2.9999999999999996
s(S'food'
p1843
S'in'
tp1844
F2.9999999999999996
s(S'they'
p1845
S'had'
p1846
tp1847
F5
s(S'surprise.'
p1848
S'I'
tp1849
F2
s(S'it.'
p1850
S'It'
p1851
tp1852
F2
s(S'and'
p1853
S'turned'
p1854
tp1855
F4
s(S'to'
p1856
S'you'
tp1857
F2.9999999999999996
s(S'his'
S'marble'
p1858
tp1859
F2
s(S'each'
p1860
S'had'
tp1861
F2
s(S'do'
p1862
S'any'
p1863
tp1864
F2
s(S'response?'
p1865
S'Not'
p1866
tp1867
F2
s(S'you'
p1868
S'would'
p1869
tp1870
F4
s(S'my'
p1871
S'nose.'
p1872
tp1873
F2.9999999999999996
s(S'the'
S'extreme'
p1874
tp1875
F2
s(g1422
S'up'
tp1876
F2
s(S'like'
S"he'd"
p1877
tp1878
F2
s(S'my'
S'side,'
p1879
tp1880
F2
s(S'is'
p1881
S'that'
p1882
tp1883
F4
s(S'think'
S'you'
tp1884
F2
s(S'\x93I\x92m'
p1885
S'a'
tp1886
F2
s(S'searching'
p1887
g577
tp1888
F2
s(S'the'
p1889
S'skin'
p1890
tp1891
F2.9999999999999996
s(S'you'
p1892
S'remember'
p1893
tp1894
F2.9999999999999996
s(S'I'
S'remembered'
p1895
tp1896
F2.9999999999999996
s(S'ever'
p1897
S'be'
p1898
tp1899
F2
s(g1585
S'more'
p1900
tp1901
F2
s(S'before.'
p1902
S'I'
tp1903
F2.9999999999999996
s(S'on'
p1904
S'their'
p1905
tp1906
F2
s(S'right'
p1907
S'to'
tp1908
F2.9999999999999996
s(g458
S'that'
tp1909
F2
s(S'assume?'
p1910
S'When'
p1911
tp1912
F2
s(S'be'
p1913
S'allowed'
tp1914
F2
s(S'of'
S'them'
p1915
tp1916
F10
s(S'around'
p1917
S'his'
p1918
tp1919
F2
s(S'like'
p1920
S'that'
p1921
tp1922
F4
s(S'let'
p1923
S'him'
p1924
tp1925
F2
s(S'course'
p1926
S'she'
p1927
tp1928
F2.9999999999999996
s(S'worst'
S'that'
tp1929
F2
s(S'cried'
p1930
S'as'
tp1931
F2
s(S'opened'
p1932
S'the'
tp1933
F4
s(S'as'
S'possible.'
p1934
tp1935
F2
s(S'to'
S'cross'
p1936
tp1937
F2
s(S'no'
S'way'
tp1938
F4
s(S'in'
p1939
S'front'
p1940
tp1941
F14
s(S'did'
p1942
S'you'
tp1943
F11
s(S'table'
p1944
S'with'
p1945
tp1946
F4
s(S'voices'
p1947
S'were'
p1948
tp1949
F2
s(S'he'
p1950
g878
tp1951
F5
s(S'to'
S'concentrate'
p1952
tp1953
F2
s(S'was'
S'lying'
p1954
tp1955
F2
s(S'took'
p1956
S'his'
p1957
tp1958
F2.9999999999999996
s(S'you'
p1959
S'in'
p1960
tp1961
F4
s(S'gleam'
p1962
S'of'
p1963
tp1964
F2
s(S'of'
p1965
S'my'
p1966
tp1967
F70
s(S'his'
p1968
S'voice'
p1969
tp1970
F2.9999999999999996
s(S'could'
S'stay'
p1971
tp1972
F2
s(S'the'
p1973
S'name'
tp1974
F4
s(S'a'
S'couple'
p1975
tp1976
F2
s(S'side,'
p1977
S'I'
tp1978
F2
s(S'be'
S'easy.'
p1979
tp1980
F2
s(S'us'
p1981
S'all'
p1982
tp1983
F2
s(S'the'
S'question'
p1984
tp1985
F2.9999999999999996
s(S'he'
S'could'
tp1986
F11.999999999999998
s(S'I'
S'had'
tp1987
F50
s(S'much'
p1988
S'less'
p1989
tp1990
F2.9999999999999996
s(S'but'
p1991
S'also'
p1992
tp1993
F2
s(S'myself'
p1994
S'on'
tp1995
F2
s(S'Was'
p1996
S'I'
tp1997
F2
s(S'I'
S'saw'
p1998
tp1999
F9
s(S'"You'
p2000
S'might'
tp2001
F2
s(S'spent'
p2002
S'money'
tp2003
F2
s(S'back'
S'into'
tp2004
F5
s(S'in'
p2005
S'that'
p2006
tp2007
F2
s(S'and'
S'held'
p2008
tp2009
F2
s(S'me.'
S'"I'
tp2010
F2
s(S'speak'
p2011
S'for'
p2012
tp2013
F2
s(S'myself.'
p2014
S'I'
tp2015
F2
s(g1301
S'to'
p2016
tp2017
F15
s(S'terrified'
p2018
S'me.'
tp2019
F2
s(S'"Where'
p2020
g1942
tp2021
F2
s(S'light'
p2022
S'of'
tp2023
F2
s(S"couldn't"
S'help'
p2024
tp2025
F2
s(S'under'
p2026
S'his'
p2027
tp2028
F5.9999999999999991
s(S'for'
p2029
S'them'
p2030
tp2031
F4
s(S'told'
S'myself'
p2032
tp2033
F2
s(S'closed'
p2034
S'my'
tp2035
F2
s(S'of'
p2036
S'our'
p2037
tp2038
F7
s(S'aware'
p2039
S'that'
tp2040
F2
s(S"didn't"
p2041
S'know'
tp2042
F7
s(S'like'
S'things'
p2043
tp2044
F2
s(S'have'
p2045
S'it'
tp2046
F2.9999999999999996
s(S'was'
S'looking'
p2047
tp2048
F10
s(S'with'
p2049
S'him'
p2050
tp2051
F2
s(S'is'
p2052
S'part'
p2053
tp2054
F2
s(S'Charlie'
p2055
g682
tp2056
F2
s(S'the'
S'little'
p2057
tp2058
F4
s(S'After'
p2059
S'a'
tp2060
F2.9999999999999996
s(S'place.'
p2061
S'I'
tp2062
F2
s(S'for'
p2063
S'Fords'
tp2064
F2
s(S'the'
S'word'
p2065
tp2066
F5
s(S'had'
S'taken'
tp2067
F2
s(S'my'
p2068
S'elbow'
p2069
tp2070
F2
s(S'hugged'
p2071
S'me'
p2072
tp2073
F2
s(S'on'
p2074
S'his'
p2075
tp2076
F7
s(S'to'
p2077
g1146
tp2078
F2
s(S'my'
p2079
S'feet'
p2080
tp2081
F5
s(S'get'
S'my'
p2082
tp2083
F5
s(S'desk'
p2084
S'till'
p2085
tp2086
F2
s(S'was'
S'doing'
p2087
tp2088
F2
s(S'The'
p2089
S'wind'
p2090
tp2091
F2
s(S'face'
p2092
S'the'
p2093
tp2094
F2
s(S'two'
S'of'
tp2095
F4
s(S'that,'
p2096
S'I'
tp2097
F2.9999999999999996
s(S'you'
S'were\x85'
p2098
tp2099
F2
s(S'to'
S'like'
p2100
tp2101
F2
s(S'give'
p2102
S'up'
p2103
tp2104
F2
s(S'Wanderer,\x94'
p2105
S'the'
p2106
tp2107
F2
s(S'I'
S'felt'
p2108
tp2109
F16
s(S'in'
p2110
S'your'
p2111
tp2112
F2.9999999999999996
s(S'could'
p2113
S'reach'
p2114
tp2115
F2
s(S'I'
S'told'
p2116
tp2117
F10
s(S'aisle'
p2118
S'to'
tp2119
F2
s(S'one'
p2120
S'was'
p2121
tp2122
F2
s(S'with'
p2123
S'an'
p2124
tp2125
F2
s(S'lingered'
p2126
S'by'
p2127
tp2128
F2
s(S'up'
p2129
S'his'
p2130
tp2131
F2
s(S'tousled'
p2132
S'bronze'
p2133
tp2134
F2
s(S'tips'
p2135
S'of'
tp2136
F2
s(S'who'
S'would'
p2137
tp2138
F2.9999999999999996
s(S'lips'
S'to'
tp2139
F2
s(S'I'
S'realized'
p2140
tp2141
F2
s(S'frozen'
p2142
S'in'
tp2143
F2
s(S'his'
p2144
S'arms'
p2145
tp2146
F2
s(S'want'
p2147
S'to'
tp2148
F20
s(S'\x97'
S'the'
tp2149
F5.9999999999999991
s(g1234
S'breathing'
p2150
tp2151
F2.9999999999999996
s(S'hand'
p2152
S'on'
tp2153
F5.9999999999999991
s(S'hope'
p2154
S'was'
p2155
tp2156
F2
s(S'from'
p2157
S'under'
p2158
tp2159
F4
s(S'I'
S"wasn't"
p2160
tp2161
F8
s(S'I'
S'finished'
p2162
tp2163
F2
s(S'was'
S'taking'
p2164
tp2165
F2
s(S'failed.'
p2166
S'The'
tp2167
F2
s(S'was'
p2168
S'on'
p2169
tp2170
F2
s(S'a'
S'dream.'
p2171
tp2172
F2
s(S'had'
S'my'
p2173
tp2174
F2.9999999999999996
s(S'standing'
p2175
S'in'
tp2176
F2.9999999999999996
s(S'be'
S'more'
p2177
tp2178
F2
s(S'And'
p2179
S'then'
p2180
tp2181
F7
s(S'when'
p2182
S'we'
p2183
tp2184
F4
s(S'"You'
S'know'
tp2185
F2.9999999999999996
s(g1863
S'good.'
p2186
tp2187
F2
s(S'explain'
p2188
S'to'
tp2189
F2
s(S'but'
p2190
S'Edward'
tp2191
F4
s(S'my'
p2192
S'skin'
p2193
tp2194
F2.9999999999999996
s(S'worry'
p2195
S'about'
p2196
tp2197
F5
s(S'glance'
p2198
S'at'
tp2199
F2
s(S'the'
p2200
S'color'
p2201
tp2202
F2
s(S'the'
p2203
S'top.'
p2204
tp2205
F2
s(S'make'
p2206
S'you'
tp2207
F2
s(S'Fords'
p2208
g1475
tp2209
F2
s(S'made'
p2210
S'no'
p2211
tp2212
F2
s(S'to'
S'ignore'
p2213
tp2214
F2.9999999999999996
s(S'at'
S'it'
p2215
tp2216
F2
s(S'muttered'
p2217
S'to'
p2218
tp2219
F2
s(S'me'
S'and'
p2220
tp2221
F5
s(S'to'
p2222
S'her,'
p2223
tp2224
F2.9999999999999996
s(S'would'
S'never'
p2225
tp2226
F4
s(S"it's"
p2227
S'too'
p2228
tp2229
F2
s(S'most'
S'beautiful'
p2230
tp2231
F2.9999999999999996
s(S'a'
S'quiet'
p2232
tp2233
F2
s(S'he'
p2234
S'didn\x92t'
tp2235
F5
s(S'Port'
p2236
S'Angeles,'
p2237
tp2238
F2
s(S'she'
S'followed'
tp2239
F2
s(S'I'
S'feel'
p2240
tp2241
F5.9999999999999991
s(g686
S'truck,'
p2242
tp2243
F2.9999999999999996
s(S'\x93Of'
p2244
S'course'
p2245
tp2246
F2
s(S'over'
p2247
S'and'
p2248
tp2249
F2.9999999999999996
s(S'sure'
p2250
S'the'
p2251
tp2252
F2
s(S'time'
p2253
S'that'
p2254
tp2255
F2
s(S'all'
p2256
S'their'
tp2257
F2.9999999999999996
s(S'a'
S'lot'
p2258
tp2259
F11
s(S'take'
p2260
S'you'
p2261
tp2262
F2
s(S'I'
S'try'
tp2263
F2.9999999999999996
s(S'way'
p2264
S'to'
tp2265
F11
s(S'years'
p2266
S'ago'
p2267
tp2268
F2
s(S'I'
S'gasped'
p2269
tp2270
F2.9999999999999996
s(S'Well,'
p2271
S'at'
tp2272
F2
s(S'in'
p2273
S'a'
tp2274
F55
s(S'between'
p2275
S'the'
tp2276
F2.9999999999999996
s(g345
g931
tp2277
F2
s(S'here'
p2278
S'in'
p2279
tp2280
F2.9999999999999996
s(S'it,'
p2281
S'but'
tp2282
F2.9999999999999996
s(S'"I'
p2283
S'can'
p2284
tp2285
F2
s(S'that'
S'all'
tp2286
F2
s(S'door'
S'and'
tp2287
F2
s(S'not'
g1675
tp2288
F2
s(S'open'
p2289
S'door.'
tp2290
F2
s(S'truck'
S'when'
tp2291
F2
s(S'for'
p2292
S'me.'
p2293
tp2294
F5
s(S'brighter'
p2295
S'than'
p2296
tp2297
F2
s(S'my'
S'teeth'
p2298
tp2299
F2
s(S'as'
p2300
S'before.'
tp2301
F2
s(g381
S'what'
p2302
tp2303
F11
s(S'me'
p2304
S'now.'
p2305
tp2306
F2.9999999999999996
s(S'He'
p2307
S'had'
p2308
tp2309
F4
s(S'I'
S'waited'
tp2310
F2
s(S'took'
S'my'
tp2311
F5
s(S'soon'
p2312
S'as'
tp2313
F11
s(S'get'
p2314
S'over'
p2315
tp2316
F2.9999999999999996
s(S'tightened'
p2317
S'into'
p2318
tp2319
F2
s(S'that'
p2320
S'I'
tp2321
F52
s(S'was'
S'for'
tp2322
F2
s(S'the'
S'reason'
p2323
tp2324
F2.9999999999999996
s(S'that'
p2325
S'his'
p2326
tp2327
F5.9999999999999991
s(S'I'
S'raised'
p2328
tp2329
F2.9999999999999996
s(S'be'
p2330
S'able'
p2331
tp2332
F5
s(S'more'
p2333
S'of'
tp2334
F2
s(S'\x93I\x92ll'
p2335
S'be'
p2336
tp2337
F2
s(S'me.'
p2338
S'His'
p2339
tp2340
F2
s(S'imagine'
p2341
S'what'
p2342
tp2343
F2
s(S'just'
g943
tp2344
F2
s(S'down'
p2345
g1629
tp2346
F5.9999999999999991
s(S'to'
p2347
S'them.'
p2348
tp2349
F2
s(S'my'
p2350
S'body'
p2351
tp2352
F5
s(S'Her'
p2353
S'voice'
p2354
tp2355
F2
s(S'out'
S'his'
tp2356
F2
s(S'my'
S'room.'
p2357
tp2358
F2
s(S'better'
p2359
S'chance'
p2360
tp2361
F2
s(S'your'
p2362
S'arm'
p2363
tp2364
F2
s(S'the'
g1440
tp2365
F2
s(S'I'
S'answered,'
tp2366
F2
s(S'ran'
p2367
S'his'
tp2368
F2
s(S'keeping'
p2369
S'my'
p2370
tp2371
F2
s(S'away,'
p2372
S'and'
tp2373
F4
s(S'the'
S'Seeker'
p2374
tp2375
F11.999999999999998
s(S'lack'
p2376
S'of'
p2377
tp2378
F2.9999999999999996
s(g81
S'School'
p2379
tp2380
F2
s(S'flow'
p2381
S'of'
p2382
tp2383
F2
s(S'to'
p2384
S'wait'
p2385
tp2386
F2.9999999999999996
s(S'Carlisle'
p2387
S'had'
p2388
tp2389
F4
s(S'I'
S'hope'
p2390
tp2391
F2
s(g1716
S'smiled'
tp2392
F2
s(S'in'
p2393
S'particular.'
p2394
tp2395
F2
s(S'girl'
p2396
S'from'
tp2397
F2.9999999999999996
s(S'"Do'
p2398
g1892
tp2399
F11
s(S'my'
p2400
S'arms'
p2401
tp2402
F4
s(S'you'
g1910
tp2403
F2
s(S'he'
p2404
S'handed'
tp2405
F2
s(S'\x93But'
p2406
S'.'
tp2407
F2
s(S'his'
g1359
tp2408
F14
s(S'\x93He'
p2409
S'won\x92t'
p2410
tp2411
F2
s(S'work'
p2412
S'on'
tp2413
F2
s(S'wished'
p2414
S'I'
tp2415
F2
s(S'\x93Back'
p2416
S'up'
tp2417
F2
s(S'red-haired'
p2418
S'woman'
p2419
tp2420
F2
s(S'still'
p2421
S'it'
p2422
tp2423
F2
s(S'He'
p2424
S'cleared'
p2425
tp2426
F2
s(S'I'
S'decided'
p2427
tp2428
F5.9999999999999991
s(S'to'
p2429
S'Alice'
p2430
tp2431
F2
s(S'even'
p2432
S'when'
tp2433
F2
s(S'about'
p2434
S'the'
p2435
tp2436
F14
s(S'And'
p2437
S'they'
p2438
tp2439
F2
s(S'at'
S'Edward,'
p2440
tp2441
F2
s(S'of'
p2442
S'relief.'
p2443
tp2444
F2
s(S'so'
p2445
S'they'
tp2446
F2
s(g555
S'me'
p2447
tp2448
F2
s(S'decided'
p2449
S'that'
p2450
tp2451
F2
s(S'The'
p2452
S'whole'
p2453
tp2454
F2
s(S'chance'
p2455
S'to'
tp2456
F2
s(S'more'
p2457
S'difficult'
p2458
tp2459
F2
s(S'I'
S'wouldn\x92t'
p2460
tp2461
F2
s(S'There'
p2462
S'were'
p2463
tp2464
F9
s(S'\x93My'
p2465
S'little'
p2466
tp2467
F2
s(S'Carlisle'
p2468
S'put'
p2469
tp2470
F2
s(S'could'
p2471
S'be'
p2472
tp2473
F5.9999999999999991
s(S'I\x92d'
p2474
S'choked'
p2475
tp2476
F2
s(S'you,'
p2477
S'you'
p2478
tp2479
F2
s(S'For'
p2480
S'the'
tp2481
F2
s(S'though'
p2482
S'I'
tp2483
F4
s(S'have'
p2484
S'to'
tp2485
F35
s(S'me,'
p2486
S'that'
tp2487
F2
s(g1608
g175
tp2488
F155
s(S"I'd"
p2489
S'been'
p2490
tp2491
F7
s(S'him'
p2492
S'out'
tp2493
F2
s(S'come'
p2494
g1642
tp2495
F2.9999999999999996
s(S'believed'
p2496
S'as'
tp2497
F2
s(S'looking'
p2498
S'for'
tp2499
F2
s(S'He'
p2500
S'wasn\x92t'
p2501
tp2502
F2
s(S'stomach'
p2503
S'to'
p2504
tp2505
F2
s(S'taken'
p2506
S'the'
tp2507
F2
s(S'you\x92ll'
p2508
S'have'
tp2509
F2.9999999999999996
s(S'make'
S'a'
tp2510
F2
s(S'send'
p2511
S'me'
p2512
tp2513
F2.9999999999999996
s(S'I'
S'would'
p2514
tp2515
F47.999999999999993
s(S'control'
p2516
S'of'
p2517
tp2518
F2.9999999999999996
s(S'deep'
p2519
S'breath,'
p2520
tp2521
F4
s(S'staring'
p2522
S'at'
tp2523
F10
s(S'Charlie.'
p2524
S'Maybe'
p2525
tp2526
F2
s(S'that'
S'never'
p2527
tp2528
F2.9999999999999996
s(S'to'
p2529
S'feel'
p2530
tp2531
F9
s(S'time'
p2532
S'he'
tp2533
F2
s(S'and'
p2534
S'walked'
p2535
tp2536
F4
s(S'know'
p2537
S'where'
p2538
tp2539
F2.9999999999999996
s(S'was'
g1489
tp2540
F4
s(S'too'
p2541
S'young'
p2542
tp2543
F2
s(S'head'
p2544
S'and'
p2545
tp2546
F2.9999999999999996
s(S'is'
p2547
S'too'
p2548
tp2549
F2
s(S"I'd"
p2550
S'seen'
p2551
tp2552
F2
s(S'this.'
p2553
S'I'
tp2554
F2
s(S'to'
S'end'
p2555
tp2556
F2.9999999999999996
s(S'the'
S'few'
p2557
tp2558
F2
s(g920
S'of'
p2559
tp2560
F8
s(S'As'
p2561
S'far'
tp2562
F2.9999999999999996
s(S'then'
S'a'
tp2563
F2.9999999999999996
s(S'In'
p2564
S'fact,'
p2565
tp2566
F2
s(S'my'
p2567
S'throat'
p2568
tp2569
F4
s(g1289
S'choice'
p2570
tp2571
F2.9999999999999996
s(S'he'
p2572
S'knew'
tp2573
F2.9999999999999996
s(S'from'
p2574
S'my'
p2575
tp2576
F14
s(g616
S'breath'
p2577
tp2578
F2.9999999999999996
s(S'hand'
g413
tp2579
F2.9999999999999996
s(S'When'
p2580
S'the'
p2581
tp2582
F2.9999999999999996
s(S'been'
S'sitting'
p2583
tp2584
F2
s(S'"If'
p2585
S'I'
tp2586
F2
s(g1493
S'senses,'
p2587
tp2588
F2
s(S'the'
S'nozzle'
p2589
tp2590
F2
s(S'muttered.'
p2591
S'I'
tp2592
F2
s(S'paused'
p2593
S'with'
tp2594
F2
s(S'their'
S'mother\x92s'
p2595
tp2596
F2
s(S'have'
p2597
S'his'
p2598
tp2599
F2
s(S'used'
p2600
g1902
tp2601
F2
s(S'settled,'
p2602
S'you'
tp2603
F2
s(S'my'
S'teeth.'
p2604
tp2605
F2.9999999999999996
s(S'She'
p2606
S'was'
p2607
tp2608
F14
s(S'and'
p2609
S'it'
p2610
tp2611
F8
s(S'the'
p2612
S'scent'
p2613
tp2614
F2.9999999999999996
s(S'only'
p2615
S'be'
p2616
tp2617
F2.9999999999999996
s(S'This'
p2618
S'was'
p2619
tp2620
F4
s(S'their'
p2621
S'names'
p2622
tp2623
F2
s(g1866
S'me.'
p2624
tp2625
F2
s(S'cafeteria'
S'with'
tp2626
F2
s(S'peace'
p2627
S'would'
tp2628
F2
s(S'it'
p2629
S'after'
tp2630
F2
s(S'time'
p2631
g2550
tp2632
F2
s(S'be'
S'sure'
p2633
tp2634
F2
s(S'continued'
p2635
S'to'
p2636
tp2637
F4
s(S'my'
S'hood'
p2638
tp2639
F2
s(S'skin'
p2640
S'was'
p2641
tp2642
F4
s(S'you'
S'made'
p2643
tp2644
F2
s(S'than'
S'usual'
p2645
tp2646
F2
s(g692
S'class?"'
p2647
tp2648
F2
s(S'beside'
p2649
S'a'
tp2650
F2
s(S'believe'
p2651
S'that'
tp2652
F2
s(S'my'
S'blood'
p2653
tp2654
F2.9999999999999996
s(S'was'
p2655
S'an'
p2656
tp2657
F7
s(S'the'
S'fact'
p2658
tp2659
F4
s(S'the'
p2660
S'six'
p2661
tp2662
F2
s(S'didn\x92t'
g237
tp2663
F2
s(S'of'
S'anger.'
p2664
tp2665
F2
s(S'still'
g2522
tp2666
F2
s(S'me'
p2667
S'your'
p2668
tp2669
F2
s(S'took'
p2670
g1769
tp2671
F7
s(S'\x93This'
p2672
S'host'
tp2673
F2
s(S'"I'
p2674
S'want'
tp2675
F2
s(S'There'
p2676
S'is'
p2677
tp2678
F4
s(S'more'
p2679
S'comfortable'
p2680
tp2681
F2
s(S'assumed'
p2682
S'.'
tp2683
F2
s(S'nothing'
p2684
S'to'
p2685
tp2686
F2
s(S'the'
p2687
S'paper'
p2688
tp2689
F2
s(S'the'
S'school,'
p2690
tp2691
F2
s(S'was'
S'back'
tp2692
F2
s(S'face'
p2693
S'when'
tp2694
F2
s(S'the'
S'best'
p2695
tp2696
F2.9999999999999996
s(S'hour'
p2697
S'in'
tp2698
F2
s(g1431
S'eyes.'
p2699
tp2700
F2
s(S'me'
p2701
S'from'
p2702
tp2703
F9
s(S'you'
p2704
S"don't."
p2705
tp2706
F2
s(S'was'
p2707
S'that'
tp2708
F5
s(S'the'
S'edge'
p2709
tp2710
F5.9999999999999991
s(S'His'
p2711
S'voice'
p2712
tp2713
F5
s(S'I\x92m'
p2714
S'sure'
p2715
tp2716
F5
s(S'hear'
p2717
S'the'
p2718
tp2719
F8
s(S'place'
p2720
S'in'
tp2721
F2.9999999999999996
s(S'of'
p2722
S'us'
p2723
tp2724
F9
s(S'deep'
S'breath'
p2725
tp2726
F2
s(S'to'
p2727
S'open'
tp2728
F5
s(S'me.'
S'He'
tp2729
F5.9999999999999991
s(S'a'
S'vampire.'
p2730
tp2731
F2
s(S'He'
p2732
S'obviously'
p2733
tp2734
F2
s(S'the'
S'Olympic'
p2735
tp2736
F2
s(S'remove'
p2737
S'the'
p2738
tp2739
F2.9999999999999996
s(S'is'
p2740
S'so'
p2741
tp2742
F2
s(S'know'
p2743
S'how'
p2744
tp2745
F2.9999999999999996
s(S'course,'
p2746
S'I'
tp2747
F2
s(S'bottom'
p2748
S'of'
tp2749
F2
s(S'than'
p2750
g872
tp2751
F2.9999999999999996
s(g2709
S'of'
tp2752
F5.9999999999999991
s(S'\x93Well,'
p2753
g916
tp2754
F2
s(S'who'
p2755
S'I'
tp2756
F2
s(S'have'
p2757
S'some'
p2758
tp2759
F2.9999999999999996
s(S'who'
p2760
S'was'
tp2761
F5.9999999999999991
s(S'to'
p2762
g129
tp2763
F2.9999999999999996
s(S'who'
p2764
g1000
tp2765
F2
s(S'could'
p2766
g2615
tp2767
F4
s(S'me'
p2768
S'into'
tp2769
F2
s(S'to'
S'him'
tp2770
F2.9999999999999996
s(S'"What'
p2771
S'is'
tp2772
F2.9999999999999996
s(S'Edward'
p2773
S'in'
tp2774
F2
s(S'know'
p2775
S'that'
tp2776
F2.9999999999999996
s(S'make'
p2777
S'sure'
tp2778
F5
s(S'human'
p2779
S'bodies,'
p2780
tp2781
F2
s(g24
S'an'
p2782
tp2783
F4
s(S'I'
S'wrapped'
p2784
tp2785
F2
s(S'that'
p2786
S'even'
p2787
tp2788
F2
s(g1405
S'back\x97but'
p2789
tp2790
F2
s(S'watch'
p2791
S'the'
tp2792
F2
s(S'had'
S'become'
p2793
tp2794
F2
s(S'prepare'
p2795
S'myself.'
p2796
tp2797
F2
s(S'stereo'
p2798
S'for'
tp2799
F2
s(S'lived'
p2800
S'with'
p2801
tp2802
F2.9999999999999996
s(S'sign'
p2803
S'of'
p2804
tp2805
F2
s(S'me.\x94'
p2806
S'She\x92d'
p2807
tp2808
F2
s(S'was'
S'no'
p2809
tp2810
F10
s(S'I'
S'tried'
p2811
tp2812
F16
s(S'his'
g1343
tp2813
F2
s(S'sitting'
p2814
S'next'
tp2815
F2
s(S'me'
p2816
S'on'
tp2817
F4
s(S'agree'
p2818
S'with'
tp2819
F2.9999999999999996
s(S'the'
S'rain'
p2820
tp2821
F5
s(S'looked'
g695
tp2822
F4
s(S'first'
S'time.'
p2823
tp2824
F2.9999999999999996
s(S'because'
p2825
S'he'
tp2826
F2
s(S'that'
p2827
S'had'
p2828
tp2829
F5.9999999999999991
s(S'to'
p2830
S'its'
p2831
tp2832
F2
s(S'then'
S'she\x92d'
p2833
tp2834
F2
s(S'the'
S'house'
p2835
tp2836
F7
s(S'with'
p2837
S'its'
p2838
tp2839
F2
s(S'I'
S'wasn\x92t'
p2840
tp2841
F5
s(S'full'
p2842
S'of'
p2843
tp2844
F5
s(S'looking'
p2845
S'at'
p2846
tp2847
F11
s(S'the'
S'old'
p2848
tp2849
F2.9999999999999996
s(S'The'
p2850
S'engine'
p2851
tp2852
F2
s(S'memories'
p2853
S'that'
tp2854
F2
s(S'told'
p2855
S'me'
p2856
tp2857
F2.9999999999999996
s(S'my'
S'seat,'
p2858
tp2859
F2
s(S'it'
S'on'
p2860
tp2861
F2.9999999999999996
s(S'I\x92d'
p2862
S'gasped.'
p2863
tp2864
F2
s(S'me'
p2865
S'alone'
p2866
tp2867
F2
s(S'Edward'
p2868
S'said,'
p2869
tp2870
F2.9999999999999996
s(g1704
S'Sure,'
p2871
tp2872
F2
s(S'expected'
p2873
S'to'
tp2874
F4
s(S'the'
p2875
S'silver'
p2876
tp2877
F2.9999999999999996
s(S'you'
S'could'
p2878
tp2879
F2
s(S'me'
p2880
S'gently'
p2881
tp2882
F2
s(S'registered'
p2883
S'the'
p2884
tp2885
F2
s(S'spend'
p2886
S'a'
tp2887
F2.9999999999999996
s(S'my'
p2888
S'head'
p2889
tp2890
F15
s(S'traced'
S'the'
p2891
tp2892
F2
s(S'against'
p2893
S'the'
p2894
tp2895
F2.9999999999999996
s(S"wasn't"
S'getting'
p2896
tp2897
F2
s(S'so'
S'long?'
p2898
tp2899
F2
s(S'that'
S'this'
p2900
tp2901
F9
s(S'I\x92m'
p2902
S'not'
p2903
tp2904
F10
s(S'told'
p2905
S'me.'
p2906
tp2907
F4
s(S'how'
p2908
S'I'
tp2909
F5.9999999999999991
s(S'for'
p2910
S'lunch.'
p2911
tp2912
F2
s(S'the'
p2913
S'engine'
p2914
tp2915
F2.9999999999999996
s(S'Mike'
p2916
S'Newton'
p2917
tp2918
F2.9999999999999996
s(S'a'
g185
tp2919
F5.9999999999999991
s(g2607
S'very'
p2920
tp2921
F5.9999999999999991
s(S'smile'
p2922
S'on'
tp2923
F2.9999999999999996
s(S'one'
p2924
S'who'
p2925
tp2926
F5.9999999999999991
s(g2469
S'his'
tp2927
F2
s(S'to'
p2928
S'his'
p2929
tp2930
F16
s(S'very'
S'clearly'
p2931
tp2932
F2
s(S'like'
p2933
S'a'
tp2934
F14
s(S'he'
S'let'
p2935
tp2936
F2
s(S'have'
p2937
S'come'
p2938
tp2939
F2
s(S'to'
p2940
S'stay'
p2941
tp2942
F2
s(S'were'
p2943
S'not'
p2944
tp2945
F2.9999999999999996
s(S'are'
p2946
S'you?\x94'
p2947
tp2948
F2.9999999999999996
s(S'then'
S'Edward'
p2949
tp2950
F2
s(g1560
S'even'
p2951
tp2952
F2
s(S'paused'
p2953
S'to'
tp2954
F2
s(S'his'
S'side,'
p2955
tp2956
F2
s(g2053
S'of'
p2957
tp2958
F7
s(g2545
S'the'
p2959
tp2960
F39
s(S'.\x94'
S'\x93But'
p2961
tp2962
F2
s(S'foster'
p2963
S'children."'
p2964
tp2965
F2
s(S'behind'
p2966
S'the'
p2967
tp2968
F5
s(S'up'
p2969
S'for'
tp2970
F2.9999999999999996
s(S'filled'
p2971
S'with'
p2972
tp2973
F2.9999999999999996
s(S'dripping'
p2974
S'with'
p2975
tp2976
F2
s(g573
S'seemed'
p2977
tp2978
F2
s(S'in'
p2979
S'Forks'
p2980
tp2981
F2
s(S'reminded'
S'him.'
p2982
tp2983
F2.9999999999999996
s(S'to'
p2984
S'bring'
p2985
tp2986
F2.9999999999999996
s(S'at'
p2987
S'least'
p2988
tp2989
F5.9999999999999991
s(S'small'
S'town'
p2990
tp2991
F2
s(S'my'
p2992
S'stomach'
p2993
tp2994
F2.9999999999999996
s(S'realize'
p2995
S'I'
tp2996
F2
s(S'had'
p2997
S'a'
tp2998
F20
s(S'beside'
p2999
S'me,'
p3000
tp3001
F2
s(S'there'
p3002
S'had'
tp3003
F2
s(S'and'
p3004
S'took'
tp3005
F2.9999999999999996
s(S'me'
p3006
S'to'
p3007
tp3008
F30
s(S'to'
p3009
g2795
tp3010
F2
s(S'the'
S'\x93after\x94'
p3011
tp3012
F2
s(S'table.'
p3013
g1390
tp3014
F2.9999999999999996
s(S'head.'
S'I'
tp3015
F2
s(S'waited'
p3016
S'for'
tp3017
F2.9999999999999996
s(S'Mr.'
p3018
S'Banner'
p3019
tp3020
F2.9999999999999996
s(S'get'
S'a'
tp3021
F7
s(S'the'
S'sun.'
p3022
tp3023
F4
s(S'I'
S'reminded'
p3024
tp3025
F4
s(S'to'
p3026
S'tell'
p3027
tp3028
F5.9999999999999991
s(S'the'
p3029
S'teacher'
p3030
tp3031
F2.9999999999999996
s(S'he'
p3032
g1932
tp3033
F2
s(S'arrive.'
p3034
S'I'
tp3035
F2
s(S'been'
S'three'
p3036
tp3037
F2
s(S'get'
S'it.'
p3038
tp3039
F2
s(g1010
S'for'
tp3040
F2
s(S'my'
p3041
S'homework,'
p3042
tp3043
F2
s(S'up'
S'and'
p3044
tp3045
F5
s(S'a'
S'huge'
p3046
tp3047
F2.9999999999999996
s(S'Who'
p3048
S'could'
tp3049
F2
s(S'a'
S'real'
p3050
tp3051
F2.9999999999999996
s(S'me'
p3052
S'through'
p3053
tp3054
F2.9999999999999996
s(S'to'
S'class'
p3055
tp3056
F2.9999999999999996
s(S'people'
p3057
S'were'
p3058
tp3059
F2
s(S'any'
p3060
S'other'
p3061
tp3062
F5
s(S'off'
p3063
S'to'
tp3064
F2
s(S'fear'
p3065
S'of'
tp3066
F2
s(S'he'
S'turned'
p3067
tp3068
F2.9999999999999996
s(S'after'
p3069
S'the'
p3070
tp3071
F5
s(S'well'
p3072
S'to'
p3073
tp3074
F2
s(S'his'
p3075
S'body.'
p3076
tp3077
F2.9999999999999996
s(S'the'
S'room,'
p3078
tp3079
F2.9999999999999996
s(S'they'
p3080
S'are'
p3081
tp3082
F2
s(S'got'
p3083
S'on'
tp3084
F2
s(S'the'
p3085
S'one'
p3086
tp3087
F8
s(S'should'
p3088
S'go'
p3089
tp3090
F2
s(S'was'
g328
tp3091
F2.9999999999999996
s(g18
S'years'
p3092
tp3093
F4
s(S'have'
S'found'
p3094
tp3095
F2
s(S'his'
p3096
S'skin'
p3097
tp3098
F2.9999999999999996
s(S'from'
p3099
S'him.'
p3100
tp3101
F2
s(g1836
S'for'
tp3102
F11
s(S'and'
S'tried'
tp3103
F2
s(g2213
S'the'
p3104
tp3105
F2
s(S'person'
p3106
S'in'
tp3107
F2
s(S'Edward'
p3108
S'and'
p3109
tp3110
F9
s(g348
S'moment,'
p3111
tp3112
F2
s(S'don\x92t'
S'understand'
p3113
tp3114
F2
s(S'together'
p3115
S'in'
tp3116
F4
s(S'back'
p3117
S'at'
tp3118
F4
s(S'took'
p3119
S'a'
tp3120
F7
s(S'of'
p3121
g3060
tp3122
F2
s(g2871
S'at'
tp3123
F2
s(S'the'
S'answers'
p3124
tp3125
F2
s(S'the'
S'black'
p3126
tp3127
F2
s(S'to'
p3128
S'give'
p3129
tp3130
F5
s(S'you.'
p3131
S'I'
tp3132
F2
s(S'My'
p3133
S'eyes'
p3134
tp3135
F4
s(S'Dad,'
p3136
S'I'
tp3137
F2
s(S'were'
p3138
S'lucky'
p3139
tp3140
F2
s(S'of'
p3141
S'regrets'
p3142
tp3143
F2
s(S'atop'
p3144
S'the'
p3145
tp3146
F2
s(S'the'
S'souls'
p3147
tp3148
F2
s(S'if'
S'he'
p3149
tp3150
F8
s(S'see'
S'where'
p3151
tp3152
F2
s(S'ever'
S'had,'
p3153
tp3154
F2
s(S'it'
p3155
g2182
tp3156
F2.9999999999999996
s(S'away'
p3157
S'from'
p3158
tp3159
F19
s(g835
S'against'
p3160
tp3161
F2
s(S'rummaged'
p3162
S'in'
tp3163
F2
s(S'make'
S'the'
tp3164
F2
s(S'\x93Is'
S'it'
p3165
tp3166
F2
s(S'tone'
p3167
S'was'
p3168
tp3169
F2
s(g257
S'out'
tp3170
F2
s(S'car'
S'with'
p3171
tp3172
F2
s(g2155
S'still'
p3173
tp3174
F14
s(S'was'
S'wearing'
p3175
tp3176
F2.9999999999999996
s(S'was'
S'somehow'
p3177
tp3178
F2
s(S'My'
p3179
S'mind'
p3180
tp3181
F4
s(S'I'
S'am,'
p3182
tp3183
F2
s(S'They'
p3184
S'are'
p3185
tp3186
F2
s(S'at'
S'our'
p3187
tp3188
F2
s(S'said.'
p3189
S'She'
p3190
tp3191
F2
s(S'would'
S'let'
tp3192
F2
s(S"didn't"
S'seem'
tp3193
F2
s(S'not'
S'my'
tp3194
F2
s(S'gone'
p3195
S'to'
tp3196
F2.9999999999999996
s(S'was'
p3197
S'already'
p3198
tp3199
F5
s(S'call'
S'me'
p3200
tp3201
F2
s(S'no'
S'other'
p3202
tp3203
F2
s(S'my'
p3204
S'spine.'
p3205
tp3206
F2
s(S'know'
p3207
S'if'
p3208
tp3209
F2
s(S'her'
p3210
g2273
tp3211
F2
s(S'down'
p3212
S'the'
p3213
tp3214
F7
s(S'my'
p3215
S'head,'
p3216
tp3217
F7
s(S'to'
p3218
S'check'
p3219
tp3220
F2
s(S'it'
p3221
S'came'
p3222
tp3223
F2.9999999999999996
s(S'the'
S'cafeteria,'
p3224
tp3225
F2.9999999999999996
s(S'lips'
p3226
S'pressed'
p3227
tp3228
F2
s(S'thing'
p3229
S'for'
tp3230
F2
s(S'"It\'s'
p3231
S'not'
tp3232
F2.9999999999999996
s(S'pair'
p3233
S'of'
p3234
tp3235
F2
s(S'much'
p3236
S'glass'
p3237
tp3238
F2
s(S'of'
S'mistakes,'
p3239
tp3240
F2
s(S'to'
S'think'
p3241
tp3242
F11.999999999999998
s(S'Alice,'
p3243
S'but'
tp3244
F2
s(S'I'
S'parked'
p3245
tp3246
F2
s(S'cool'
p3247
S'air'
p3248
tp3249
F2
s(S'a'
g2359
tp3250
F2
s(S'Edward'
p3251
S'had'
tp3252
F4
s(S'Charlie'
p3253
S'to'
tp3254
F2
s(S'have'
S'foreseen'
p3255
tp3256
F2
s(S'of'
S'that.'
p3257
tp3258
F2
s(S'that'
S'we'
tp3259
F2.9999999999999996
s(S'had'
p3260
S'given'
p3261
tp3262
F2
s(S'me,'
S'and'
tp3263
F2
s(S'the'
p3264
S'safety'
p3265
tp3266
F2
s(S'reminded'
p3267
S'me'
tp3268
F2.9999999999999996
s(S'knew'
S'he'
tp3269
F2
s(S'now,'
p3270
S'so'
p3271
tp3272
F2
s(S'teeth,'
S'I'
tp3273
F2
s(S'I'
S'wish'
p3274
tp3275
F5
s(S'was'
S'called'
p3276
tp3277
F2
s(S'bought'
p3278
S'it'
tp3279
F2
s(S'to'
S'decide'
p3280
tp3281
F2
s(S'me.'
S'But'
p3282
tp3283
F2
s(S'One'
p3284
S'of'
tp3285
F4
s(S"didn't"
p3286
S'think'
p3287
tp3288
F2.9999999999999996
s(S'things'
p3289
S'like'
p3290
tp3291
F4
s(S'for'
S'him.'
p3292
tp3293
F2
s(S'covered'
p3294
S'with'
p3295
tp3296
F2
s(S'anything'
p3297
S'but'
tp3298
F2
s(g2043
S'were'
p3299
tp3300
F2
s(S'the'
S'thud'
p3301
tp3302
F2
s(g3299
S'pretty'
tp3303
F2
s(S'turned'
p3304
S'her'
p3305
tp3306
F2
s(S'the'
p3307
S'term'
p3308
tp3309
F2
s(S'what'
p3310
S'it'
p3311
tp3312
F2.9999999999999996
s(S'him'
p3313
S'in'
tp3314
F2.9999999999999996
s(S'his'
S'pale'
p3315
tp3316
F2
s(S'the'
p3317
g1607
tp3318
F2
s(S'Edward'
p3319
S'was'
p3320
tp3321
F7
s(S'cut'
p3322
S'the'
tp3323
F2
s(S'\x97'
S'he'
tp3324
F5
s(S'what'
S'you'
tp3325
F2
s(S'was'
p3326
S'surprised'
p3327
tp3328
F4
s(S'know'
S'me'
tp3329
F2
s(S'His'
p3330
S'skin'
tp3331
F2
s(S'harder'
p3332
S'for'
p3333
tp3334
F2.9999999999999996
s(S'body'
p3335
S'had'
p3336
tp3337
F2
s(S'then'
p3338
S'I'
tp3339
F7
s(g287
S'lot.'
p3340
tp3341
F2
s(S'came'
S'out'
p3342
tp3343
F2
s(S'see'
g1427
tp3344
F4
s(S'was'
S'perfectly'
p3345
tp3346
F2
s(S'is'
p3347
S'the'
p3348
tp3349
F5.9999999999999991
s(S'in'
p3350
S'silence.'
p3351
tp3352
F2.9999999999999996
s(S'I'
S'wished'
p3353
tp3354
F2
s(S'and'
p3355
S'not'
p3356
tp3357
F4
s(S'already'
p3358
S'said'
p3359
tp3360
F2
s(g442
S'most'
p3361
tp3362
F2
s(S'like'
p3363
S'her'
p3364
tp3365
F2
s(S'the'
S'wall'
p3366
tp3367
F2
s(S'about'
p3368
S'it.'
p3369
tp3370
F2.9999999999999996
s(S'was'
S'one'
tp3371
F2.9999999999999996
s(S'dark'
p3372
S'hair'
p3373
tp3374
F2
s(S'don\x92t'
S'have'
p3375
tp3376
F5
s(S'It'
p3377
S"wasn't"
p3378
tp3379
F5.9999999999999991
s(S'anything'
p3380
S'to'
tp3381
F2
s(S'in'
p3382
S'Phoenix,'
p3383
tp3384
F2.9999999999999996
s(S'be'
S'too'
p3385
tp3386
F2
s(S'sure'
p3387
S'about'
p3388
tp3389
F2.9999999999999996
s(S'stupidity\x97and'
p3390
S'I\x92m'
tp3391
F2
s(S'if'
S'that'
p3392
tp3393
F2.9999999999999996
s(S'the'
S'brilliant'
p3394
tp3395
F2
s(S'known'
p3396
S'to'
tp3397
F2
s(S'them'
p3398
S'at'
tp3399
F2
s(S'other'
S'students,'
p3400
tp3401
F2
s(S'me.'
p3402
S'And'
p3403
tp3404
F2
s(S'to'
g772
tp3405
F14
s(S'the'
S'room'
p3406
tp3407
F4
s(S"wasn't"
p3408
S'enough'
p3409
tp3410
F2
s(S'world,'
S'which'
tp3411
F2
s(S'pulled'
p3412
S'me'
p3413
tp3414
F4
s(S'that'
p3415
S'there'
tp3416
F2.9999999999999996
s(S'sure'
S'to'
tp3417
F2.9999999999999996
s(S'For'
p3418
S'one'
p3419
tp3420
F2
s(S'at'
S'Edward'
p3421
tp3422
F2.9999999999999996
s(S'as'
p3423
g1047
tp3424
F2.9999999999999996
s(S'same'
p3425
S'as'
p3426
tp3427
F2.9999999999999996
s(S'when'
p3428
S"they're"
p3429
tp3430
F2
s(S'that'
p3431
S'the'
p3432
tp3433
F19
s(S'did'
S'have'
tp3434
F2
s(S'corner.'
p3435
S'I'
tp3436
F2
s(S'mean'
p3437
S'the'
p3438
tp3439
F2
s(S'think'
p3440
S'there'
p3441
tp3442
F2
s(S'circle'
p3443
S'around'
p3444
tp3445
F2
s(S'for'
p3446
S'what'
p3447
tp3448
F2
s(S'that'
p3449
S'he'
p3450
tp3451
F21
s(S'hadn\x92t'
S'thought'
tp3452
F2
s(S'end,'
p3453
S'the'
p3454
tp3455
F2
s(S'then?'
p3456
S'It'
tp3457
F2
s(S'so'
S'strong'
tp3458
F2
s(g1911
S'did'
tp3459
F2
s(S'laughed'
S'again.'
tp3460
F2.9999999999999996
s(S"couldn't"
S'hear'
tp3461
F2
s(S'rolled'
p3462
S'his'
tp3463
F2
s(S'sighed.'
g2283
tp3464
F2
s(S'left'
p3465
S'the'
p3466
tp3467
F2
s(S'there'
p3468
S'were'
p3469
tp3470
F2
s(S'damaged'
p3471
S'host'
p3472
tp3473
F2
s(S'my'
S'arm'
p3474
tp3475
F8
s(S'my'
S'hair'
p3476
tp3477
F5
s(S'by'
p3478
S'a'
tp3479
F7
s(S"can't"
p3480
S'have'
tp3481
F2
s(S'after'
p3482
S'a'
tp3483
F2
s(S'the'
S'bigger'
p3484
tp3485
F2
s(S'second,'
p3486
S'and'
tp3487
F2.9999999999999996
s(S'My'
p3488
S'body'
p3489
tp3490
F4
s(S'he'
p3491
S'said'
p3492
tp3493
F5.9999999999999991
s(g1515
S'of'
tp3494
F5
s(S'it'
p3495
S'seemed'
tp3496
F2.9999999999999996
s(g944
S'.'
tp3497
F2
s(S'eyes'
S'at'
tp3498
F2.9999999999999996
s(S'the'
p3499
S'host'
tp3500
F2
s(S'to'
p3501
S'see'
tp3502
F28.999999999999996
s(S'had'
p3503
S'one'
p3504
tp3505
F2
s(S'then'
S'his'
p3506
tp3507
F2.9999999999999996
s(S'I'
S'imagine'
p3508
tp3509
F2
s(S'my'
S'arm.'
p3510
tp3511
F8
s(S'asking'
p3512
S'you'
p3513
tp3514
F2
s(S'us'
p3515
S'to'
tp3516
F2
s(S'when'
p3517
S'she'
p3518
tp3519
F2
s(S'surprised'
p3520
S'me.'
p3521
tp3522
F2
s(S'Alice'
p3523
S'said,'
p3524
tp3525
F2
s(S'they'
p3526
S'have'
p3527
tp3528
F2
s(S'one'
p3529
S'of'
p3530
tp3531
F17
s(S'cover'
p3532
S'of'
p3533
tp3534
F2
s(S'Instead'
p3535
S'of'
p3536
tp3537
F2
s(S'he'
S'is'
p3538
tp3539
F2.9999999999999996
s(S'ever'
S'expected'
tp3540
F2.9999999999999996
s(S'a'
S'hurry'
tp3541
F2
s(S'It'
p3542
g2670
tp3543
F5
s(S'the'
S'others'
p3544
tp3545
F4
s(S'were'
S'five'
p3546
tp3547
F2
s(S'you'
p3548
S'think'
tp3549
F7
s(S'than'
p3550
g2096
tp3551
F2.9999999999999996
s(S'replace'
p3552
S'the'
p3553
tp3554
F2
s(S'got'
S'the'
p3555
tp3556
F2.9999999999999996
s(S'breath'
p3557
S'at'
tp3558
F2
s(S'by'
p3559
S'his'
p3560
tp3561
F2.9999999999999996
s(S'found'
p3562
S'myself'
p3563
tp3564
F2
s(S'me'
p3565
S'feel'
p3566
tp3567
F2.9999999999999996
s(S'in'
p3568
S'our'
p3569
tp3570
F2
s(S'was'
S'from'
tp3571
F2
s(g1639
S'with'
p3572
tp3573
F2
s(g1522
S'I'
tp3574
F2
s(S'words'
p3575
S'had'
p3576
tp3577
F2
s(S'like'
p3578
S'this,'
p3579
tp3580
F2
s(S'Once'
p3581
S'I'
tp3582
F2
s(g842
S'out'
p3583
tp3584
F2
s(g917
S'had'
p3585
tp3586
F5
s(S'Jessica'
p3587
S'and'
tp3588
F2
s(S'assume?\x94'
p3589
S'\x93Well,'
p3590
tp3591
F2
s(S'they'
p3592
S'could'
tp3593
F5
s(S'early'
p3594
S'days'
p3595
tp3596
F2
s(S'you'
S'mind'
p3597
tp3598
F2.9999999999999996
s(S'exception'
p3599
S'to'
tp3600
F2
s(S'the'
p3601
S'truck'
p3602
tp3603
F2.9999999999999996
s(S'I'
S'used'
p3604
tp3605
F2
s(g2964
S'"They'
p3606
tp3607
F2
s(S'La'
p3608
S'Push'
p3609
tp3610
F2
s(S'perfect'
p3611
S'lips'
p3612
tp3613
F2
s(S'\x93We'
p3614
S'have'
p3615
tp3616
F2
s(S'feel'
p3617
S'of'
tp3618
F2.9999999999999996
s(g1320
S'not'
p3619
tp3620
F9
s(g2284
S'handle'
p3621
tp3622
F2.9999999999999996
s(S'if'
p3623
g1316
tp3624
F2
s(S'he'
p3625
S"wouldn't"
tp3626
F2
s(S'and'
p3627
S'Ben'
p3628
tp3629
F2
s(S'man'
S'said'
p3630
tp3631
F2.9999999999999996
s(g363
S'\x93Do'
tp3632
F2
s(S'but'
p3633
S'I'
tp3634
F27
s(S'me.'
p3635
g2353
tp3636
F2
s(S'my'
S'foot'
p3637
tp3638
F2
s(S'give'
p3639
S'me'
p3640
tp3641
F4
s(S'door,'
p3642
S'and'
p3643
tp3644
F2
s(S'again.'
p3645
S'I'
tp3646
F4
s(S'marrying'
p3647
S'Edward.'
p3648
tp3649
F2
s(S'\x93At'
p3650
S'least'
p3651
tp3652
F2
s(S'I'
S'caught'
tp3653
F2
s(S'"No,"'
p3654
S'she'
p3655
tp3656
F2
s(S'without'
p3657
S'a'
tp3658
F2
s(S'had'
p3659
S'more'
p3660
tp3661
F2
s(S'rather'
p3662
S'than'
tp3663
F2
s(S'was'
p3664
S'trying'
tp3665
F5
s(S'he'
p3666
S'vowed.'
p3667
tp3668
F2
s(S'I'
g1185
tp3669
F7
s(S'been'
p3670
S'there'
p3671
tp3672
F2
s(S'thoughts'
p3673
S'had'
p3674
tp3675
F2
s(S'really'
p3676
S'that'
p3677
tp3678
F2
s(S'Jasper'
S'and'
p3679
tp3680
F2
s(S'out'
p3681
S'of'
p3682
tp3683
F39
s(S'parking'
S'lot'
p3684
tp3685
F4
s(S'up'
p3686
S'with'
p3687
tp3688
F2.9999999999999996
s(S'But'
p3689
g299
tp3690
F2
s(S'eyes'
S'from'
p3691
tp3692
F2
s(S'was'
S'too'
p3693
tp3694
F4
s(S'eyes'
S'and'
tp3695
F2.9999999999999996
s(S'concept'
p3696
S'of'
p3697
tp3698
F2
s(S'tasted'
p3699
S'the'
p3700
tp3701
F2
s(S'every'
p3702
S'other'
p3703
tp3704
F2
s(S'A'
S'deep'
p3705
tp3706
F2
s(g2525
g3243
tp3707
F2
s(S'saw'
p3708
S'the'
p3709
tp3710
F4
s(S'It'
p3711
g2547
tp3712
F2
s(S'into'
p3713
g263
tp3714
F2
s(S'my'
S'birthday'
p3715
tp3716
F2.9999999999999996
s(S'immature'
p3717
S'host'
p3718
tp3719
F2
s(S'she'
S'said,'
p3720
tp3721
F2
s(S'struggled'
p3722
S'to'
tp3723
F2.9999999999999996
s(S'The'
p3724
S'boy'
p3725
tp3726
F2
s(S'the'
g2532
tp3727
F2.9999999999999996
s(g1927
S'was'
p3728
tp3729
F17
s(S'in'
p3730
S'any'
p3731
tp3732
F2
s(S'to'
S'change'
p3733
tp3734
F2
s(S'the'
S'soft'
p3735
tp3736
F2
s(S'because'
p3737
S'you\x92re'
p3738
tp3739
F2
s(S'steak'
p3740
S'in'
p3741
tp3742
F2
s(S'to'
S'in'
p3743
tp3744
F2
s(S'ways'
p3745
S'to'
tp3746
F2
s(S'I'
S'go'
p3747
tp3748
F5
s(S'by'
p3749
S'one'
p3750
tp3751
F2
s(S'of'
p3752
S'thought,'
p3753
tp3754
F2
s(S'I'
S'can'
p3755
tp3756
F20
s(S'\x93It\x92s'
p3757
S'just'
p3758
tp3759
F2
s(g2961
S'what?\x94'
p3760
tp3761
F2
s(g2929
S'voice.'
p3762
tp3763
F2
s(S'enough'
p3764
S'for'
p3765
tp3766
F5
s(S'I'
S'hurry'
p3767
tp3768
F2
s(S'rain'
p3769
S'and'
p3770
tp3771
F2
s(S'to'
S'examine'
p3772
tp3773
F2
s(S'I'
S'been'
p3774
tp3775
F2
s(S'a'
S'town'
p3776
tp3777
F2
s(S'looking'
S'for.'
p3778
tp3779
F2
s(S'hear'
S'his'
p3780
tp3781
F2
s(S'from'
p3782
S'this'
p3783
tp3784
F2.9999999999999996
s(S'wondered'
p3785
S'as'
tp3786
F2
s(S'remember'
S'that'
p3787
tp3788
F2
s(S'I'
S'gasped.'
p3789
tp3790
F2.9999999999999996
s(S'pressed'
p3791
S'his'
p3792
tp3793
F2.9999999999999996
s(S'face'
p3794
S'with'
tp3795
F2
s(S'at'
p3796
S'last,'
p3797
tp3798
F2.9999999999999996
s(S'I'
S'usually'
p3799
tp3800
F2
s(S'the'
S'tiny'
p3801
tp3802
F4
s(S'me'
S'that'
tp3803
F5.9999999999999991
s(S'humans'
p3804
S'who'
p3805
tp3806
F2.9999999999999996
s(S'while'
p3807
S'his'
p3808
tp3809
F2
s(S'He'
p3810
S'seemed'
p3811
tp3812
F4
s(S'Like'
p3813
S'I'
tp3814
F4
s(S'looked'
S'into'
tp3815
F2
s(S'my'
p3816
S'host'
p3817
tp3818
F2
s(S'I'
S'mumbled.'
p3819
tp3820
F2.9999999999999996
s(S'to'
p3821
S'show'
p3822
tp3823
F2
s(S'to'
p3824
S'step'
p3825
tp3826
F2
s(S'I'
S'want'
tp3827
F7
s(S'listening'
p3828
S'to'
tp3829
F2.9999999999999996
s(S'Ren\xe9e!'
p3830
S'That\x92s'
p3831
tp3832
F2
s(S'was'
g2250
tp3833
F7
s(S'taking'
p3834
S'a'
tp3835
F2
s(S'under'
p3836
S'her'
p3837
tp3838
F2
s(g1653
S'of'
p3839
tp3840
F2
s(S'a'
g3486
tp3841
F4
s(S'live'
p3842
S'puppies.'
p3843
tp3844
F2
s(S'my'
S'happy'
p3845
tp3846
F2
s(g1509
S'to'
tp3847
F5.9999999999999991
s(S'spending'
p3848
S'time'
p3849
tp3850
F2
s(S'the'
p3851
S'classroom,'
p3852
tp3853
F2
s(S'different'
p3854
S'than'
tp3855
F2
s(S'off'
p3856
S'his'
tp3857
F2
s(S'sense'
p3858
S'of'
p3859
tp3860
F2.9999999999999996
s(S'with'
p3861
S'Mike'
p3862
tp3863
F2
s(S'a'
S'silent'
p3864
tp3865
F2
s(S'lights'
p3866
S'in'
p3867
tp3868
F2
s(S'was'
S'getting'
p3869
tp3870
F2
s(S'asked.'
S'I'
tp3871
F5
s(S'to'
p3872
S'myself.'
p3873
tp3874
F4
s(g2160
g1575
tp3875
F2
s(S'the'
p3876
S'line'
p3877
tp3878
F4
s(S'returned'
p3879
S'to'
p3880
tp3881
F2
s(S'Did'
p3882
S'she'
p3883
tp3884
F2
s(g2127
S'me'
p3885
tp3886
F2
s(S'I'
S'repeated.'
p3887
tp3888
F2
s(S'at'
p3889
S'least.'
p3890
tp3891
F2
s(S'a'
S'quieter'
p3892
tp3893
F2
s(S'a'
S'little.'
p3894
tp3895
F2.9999999999999996
s(S'the'
S'alien'
p3896
tp3897
F2
s(S'me,'
S'her'
tp3898
F2.9999999999999996
s(S'The'
p3899
S'only'
p3900
tp3901
F2.9999999999999996
s(S'bowl.'
p3902
S'I'
tp3903
F2
s(S"I'm"
p3904
S'not'
p3905
tp3906
F2.9999999999999996
s(S'they'
p3907
S'found'
tp3908
F2
s(S'color'
p3909
S'and'
p3910
tp3911
F2
s(S'wondered'
g162
tp3912
F5
s(S'my'
S'way'
p3913
tp3914
F2.9999999999999996
s(S'saying'
p3915
S'one'
p3916
tp3917
F2
s(S'myself'
p3918
S'in'
p3919
tp3920
F2
s(S'like'
p3921
S'to'
tp3922
F2
s(S'don\x92t'
S'want'
tp3923
F7
s(S'the'
S'plane.'
p3924
tp3925
F2
s(S'had'
g2494
tp3926
F2.9999999999999996
s(g303
S'out'
tp3927
F2
s(S'Ren\xe9e.'
p3928
S'Early'
p3929
tp3930
F2
s(S'through'
p3931
S'my'
p3932
tp3933
F18
s(S'would'
S'choose'
p3934
tp3935
F2
s(S'glaring'
p3936
S'at'
tp3937
F4
s(g3583
g2157
tp3938
F4
s(S'in'
p3939
S'half'
p3940
tp3941
F2
s(S'and'
p3942
g3390
tp3943
F2
s(S'a'
S'new'
p3944
tp3945
F7
s(S'trying'
p3946
S'to'
p3947
tp3948
F21
s(S'to'
p3949
S'our'
p3950
tp3951
F2.9999999999999996
s(S'square'
p3952
S'in'
tp3953
F2
s(S'went'
p3954
S'back'
p3955
tp3956
F2
s(S'table'
p3957
S'in'
tp3958
F2
s(S'\x93She'
p3959
S'is'
p3960
tp3961
F2.9999999999999996
s(S'of'
p3962
S'you'
p3963
tp3964
F2
s(S'I'
S'recognized'
p3965
tp3966
F4
s(g3336
g1137
tp3967
F20
s(S'He'
p3968
g3791
tp3969
F2
s(S'Really?'
p3970
S'That'
tp3971
F2
s(S'you'
g3589
tp3972
F2
s(S'"You'
p3973
g582
tp3974
F4
s(g1218
S'there'
tp3975
F2
s(S'He'
p3976
S"didn't"
tp3977
F7
s(S'I'
S'exhaled'
p3978
tp3979
F2
s(S'that'
p3980
S'must'
p3981
tp3982
F2
s(S'the'
S'other.'
p3983
tp3984
F2
s(S'was'
p3985
S'it'
p3986
tp3987
F2
s(S'he\x92d'
p3988
S'been'
p3989
tp3990
F2
s(S'We'
p3991
S'walked'
p3992
tp3993
F2.9999999999999996
s(S'do'
S'that,'
p3994
tp3995
F2
s(S'of'
p3996
S'humans'
p3997
tp3998
F2.9999999999999996
s(S'the'
S'window'
p3999
tp4000
F2
s(S'my'
S'lips'
p4001
tp4002
F4
s(S'for'
p4003
S'this'
p4004
tp4005
F2
s(S'none'
p4006
S'of'
tp4007
F2.9999999999999996
s(S'forget'
S'that'
tp4008
F2
s(S'the'
S'slip'
p4009
tp4010
F2
s(S'share'
p4011
g3141
tp4012
F2
s(S'was'
S'aware'
tp4013
F2
s(S'do'
p4014
S'you'
p4015
tp4016
F8
s(S'as'
p4017
g407
tp4018
F4
s(S'the'
S'hospital'
p4019
tp4020
F2.9999999999999996
s(S'problem,'
S'sweetie.'
p4021
tp4022
F2
s(S'know'
S'my'
p4023
tp4024
F2
s(S'\x93What'
p4025
S'events?\x94'
p4026
tp4027
F2
s(S'the'
p4028
g3425
tp4029
F21
s(S'one'
p4030
S'small'
p4031
tp4032
F2.9999999999999996
s(S'all,'
p4033
S'I'
tp4034
F2
s(S'you'
p4035
S'want'
tp4036
F10
s(g3261
S'me.'
p4037
tp4038
F2
s(S'Forks.'
p4039
S'I'
tp4040
F2.9999999999999996
s(S'to'
p4041
g1514
tp4042
F63
s(S'a'
S'feeling'
p4043
tp4044
F2
s(S'too."'
p4045
S'He'
tp4046
F2
s(S'it'
p4047
S'with'
tp4048
F2
s(S'mouth'
p4049
S'pulled'
p4050
tp4051
F2
s(S'half'
p4052
S'a'
tp4053
F2.9999999999999996
s(S'I'
S'heard'
p4054
tp4055
F5.9999999999999991
s(S'at'
p4056
S'their'
p4057
tp4058
F2
s(g2658
g3449
tp4059
F5
s(S'never'
S'felt'
p4060
tp4061
F2
s(S'sitting'
S'together'
p4062
tp4063
F2
s(S'and,'
p4064
S'in'
tp4065
F2
s(S'I'
S'did.'
p4066
tp4067
F2
s(S'don\x92t'
S'feel'
tp4068
F2
s(g3873
g3377
tp4069
F2.9999999999999996
s(S'me,'
p4070
S'but'
p4071
tp4072
F7
s(S'was'
S'suddenly'
p4073
tp4074
F2
s(S'applied'
p4075
S'to'
tp4076
F2
s(S'gently'
p4077
S'to'
tp4078
F2
s(S'the'
S'center'
p4079
tp4080
F2.9999999999999996
s(S'threw'
S'it'
tp4081
F2
s(S'done.'
p4082
S'I'
tp4083
F2
s(g3981
S'have'
tp4084
F5
s(g1713
S'I'
tp4085
F4
s(g1237
S'he'
tp4086
F2
s(S'not'
p4087
S'at'
p4088
tp4089
F2
s(S'I\x92m'
p4090
g96
tp4091
F5.9999999999999991
s(S'he'
p4092
S'pulled'
p4093
tp4094
F2.9999999999999996
s(S'with'
p4095
S'myself.'
p4096
tp4097
F2
s(S'that."'
S'I'
tp4098
F2
s(S'us'
p4099
S'as'
p4100
tp4101
F2
s(S'wonder'
p4102
S'if'
p4103
tp4104
F2
s(S'microscope'
p4105
S'and'
p4106
tp4107
F2
s(S'had'
S'it'
p4108
tp4109
F2
s(S'Have'
p4110
S'you'
p4111
tp4112
F2
s(S'me.'
p4113
S'My'
p4114
tp4115
F2
s(S'out'
p4116
S'for'
tp4117
F2
s(S'the'
S'door.'
p4118
tp4119
F13
s(S'the'
S'end'
p4120
tp4121
F5.9999999999999991
s(S'came'
S'around'
tp4122
F2.9999999999999996
s(g2514
S'have'
p4123
tp4124
F33
s(S'of'
p4125
S'only'
p4126
tp4127
F2
s(S'that'
p4128
S'they'
p4129
tp4130
F5
s(S'truck'
S'and'
p4131
tp4132
F2
s(S'but'
p4133
S'this'
tp4134
F4
s(S'I'
S'didn\x92t'
p4135
tp4136
F11.999999999999998
s(S'is'
p4137
S'an'
p4138
tp4139
F2
s(S'to'
S'her'
p4140
tp4141
F5
s(S'thought.'
p4142
S'It'
tp4143
F2
s(S'Fords'
p4144
g3326
tp4145
F2
s(S'said'
p4146
S'in'
tp4147
F2
s(S'at'
p4148
S'my'
p4149
tp4150
F16
s(S'He'
p4151
S'sighed.'
p4152
tp4153
F2
s(S'the'
S'big'
p4154
tp4155
F4
s(S'anyway.'
p4156
S'I'
tp4157
F2
s(S'me'
p4158
S'in'
tp4159
F15
s(S"that's"
p4160
S'what'
tp4161
F2.9999999999999996
s(S'red'
p4162
S'again.'
tp4163
F2
s(S'I'
g1550
tp4164
F10
s(S'like'
S'that.'
p4165
tp4166
F2
s(S'demanded.'
S'\x93But'
p4167
tp4168
F2
s(S'house'
p4169
S'that'
p4170
tp4171
F2
s(S'of'
p4172
S'Alice'
p4173
tp4174
F2
s(S"he'd"
p4175
S'looked'
tp4176
F2
s(S'least'
S'he'
p4177
tp4178
F2.9999999999999996
s(S'for'
S'him'
tp4179
F2.9999999999999996
s(g739
S'I'
tp4180
F2
s(S'of'
p4181
S'human'
p4182
tp4183
F2.9999999999999996
s(S'fine,\x94'
p4184
g2055
tp4185
F2
s(S'arm.'
S'I'
tp4186
F2.9999999999999996
s(S'me.'
g1402
tp4187
F2
s(S'marriage'
p4188
g3942
tp4189
F2
s(S'It'
p4190
S'was'
tp4191
F66
s(g1469
S'last'
p4192
tp4193
F9
s(S'horror.'
p4194
S'I'
tp4195
F2
s(S'the'
p4196
S'horror'
p4197
tp4198
F4
s(S'makes'
p4199
S'it'
p4200
tp4201
F2
s(S'it'
S'wouldn\x92t'
p4202
tp4203
F2
s(S'would'
p4204
S'you'
p4205
tp4206
F2.9999999999999996
s(S"didn't"
S'relate'
p4207
tp4208
F2
s(S'he'
p4209
S'whispered.'
p4210
tp4211
F4
s(S'I'
S'cleaned'
p4212
tp4213
F2
s(S'to'
S'school.'
p4214
tp4215
F2
s(S'almost'
p4216
S'as'
tp4217
F2.9999999999999996
s(S'not'
p4218
S'to'
p4219
tp4220
F20
s(S'took'
p4221
S'the'
p4222
tp4223
F9
s(S'me'
S'as'
p4224
tp4225
F7
s(S'sunlight.'
p4226
S'I'
tp4227
F2
s(S'I'
S'hear'
tp4228
F2
s(S'anything'
p4229
S'in'
p4230
tp4231
F2
s(S'whispered'
p4232
S'in'
tp4233
F2
s(g1399
S'my'
p4234
tp4235
F2
s(S'at'
p4236
S'lunch'
p4237
tp4238
F2
s(S'words:'
p4239
S'Mom,'
p4240
tp4241
F2
s(S'across'
p4242
g3876
tp4243
F10
s(S'when'
p4244
S'they'
p4245
tp4246
F2.9999999999999996
s(S'I'
S'protested'
p4247
tp4248
F2
s(S'future'
p4249
S'that'
p4250
tp4251
F2
s(S'about'
p4252
S'tripping'
p4253
tp4254
F2
s(S'at'
p4255
S'least."'
p4256
tp4257
F2
s(S'that'
p4258
S'I\x92d'
tp4259
F4
s(S'room'
p4260
S'was'
p4261
tp4262
F4
s(S'mean'
p4263
S'to'
p4264
tp4265
F2
s(S'me,'
S'just'
tp4266
F2
s(S'to'
p4267
S'admit'
p4268
tp4269
F5
s(S'difference'
p4270
S'between'
p4271
tp4272
F2
s(S'the'
S'rest'
p4273
tp4274
F11
s(S'his'
p4275
S'own'
p4276
tp4277
F2
s(S'between'
p4278
S'us,'
tp4279
F2
s(S'of'
g2806
tp4280
F2
s(S'Edward,'
p4281
S'and'
tp4282
F4
s(S'life.'
p4283
S'I'
tp4284
F2
s(S'was'
S'glaring'
p4285
tp4286
F2.9999999999999996
s(g2796
S'The'
p4287
tp4288
F2
s(S'set'
p4289
S'the'
tp4290
F2
s(S'the'
S'Volturi,'
p4291
tp4292
F2
s(S'I'
g3954
tp4293
F5.9999999999999991
s(S'and'
p4294
S'was'
p4295
tp4296
F5
s(g1940
S'of'
p4297
tp4298
F15
s(S'my'
p4299
S'window'
p4300
tp4301
F2
s(S'was'
S'home.'
p4302
tp4303
F2
s(S'I\x92d'
p4304
S'heard'
p4305
tp4306
F4
s(S'until'
p4307
S'I'
tp4308
F4
s(S'realized'
p4309
S'that'
tp4310
F2
s(S'face'
S'and'
tp4311
F2
s(S'the'
p4312
S'smell'
tp4313
F2.9999999999999996
s(S'never'
p4314
S'think'
tp4315
F2
s(S'to'
S'sleep'
p4316
tp4317
F2
s(S'And'
p4318
S'he'
tp4319
F2.9999999999999996
s(S'the'
S'traditional'
p4320
tp4321
F2
s(S'I'
S'sighed'
p4322
tp4323
F2
s(S'The'
g1273
tp4324
F2
s(S'.\x94'
S'\x93What'
p4325
tp4326
F2
s(S'the'
S'side.'
p4327
tp4328
F2
s(S'come'
p4329
S'down'
p4330
tp4331
F2
s(S'for.'
p4332
S'It'
p4333
tp4334
F2
s(S'my'
S'own'
p4335
tp4336
F5
s(S'see'
p4337
S'the'
p4338
tp4339
F13
s(g3947
S'calm'
p4340
tp4341
F2
s(S'too,'
p4342
S'but'
tp4343
F2
s(S'fast'
p4344
S'enough.'
p4345
tp4346
F2
s(S'Dad."'
p4347
S'I'
tp4348
F2
s(S'wondering'
p4349
S'if'
tp4350
F2
s(S'Alice'
p4351
S'and'
tp4352
F7
s(S'and'
p4353
S'pulled'
p4354
tp4355
F2.9999999999999996
s(S'"I'
p4356
S"didn't"
tp4357
F4
s(S'not'
S'think'
tp4358
F2
s(S'"You'
p4359
S'should'
p4360
tp4361
F2
s(S'house.'
S'\x93Is'
p4362
tp4363
F2
s(S'I'
S'could'
tp4364
F66
s(S'be'
p4365
g3529
tp4366
F2
s(S'skirt.'
p4367
S'I'
tp4368
F2
s(S'Oooh,\x94'
p4369
g362
tp4370
F2
s(S"Edward's"
p4371
S'face'
tp4372
F2
s(S'not'
p4373
S'an'
p4374
tp4375
F2
s(S'the'
S'direction'
p4376
tp4377
F2
s(S'as'
p4378
S'Carlisle'
p4379
tp4380
F2.9999999999999996
s(S'the'
p4381
S'lesser'
p4382
tp4383
F2
s(S'out'
p4384
S'a'
tp4385
F2.9999999999999996
s(S'the'
p4386
S'eyes'
p4387
tp4388
F2
s(S'the'
S'waist,'
p4389
tp4390
F2
s(S'of'
p4391
S'that'
p4392
tp4393
F4
s(S'too'
S'much.'
tp4394
F2
s(S'hand.'
p4395
S'I'
tp4396
F2
s(S"it's"
p4397
S'a'
tp4398
F2.9999999999999996
s(S'think'
p4399
S'that'
tp4400
F2.9999999999999996
s(S"couldn't"
p4401
S'have'
p4402
tp4403
F2
s(S'after'
p4404
S'I'
tp4405
F2.9999999999999996
s(S'own'
S'kinds'
tp4406
F2
s(S'hungry.'
p4407
g2676
tp4408
F2
s(S'I'
S'muttered.'
p4409
tp4410
F2
s(S'worse'
p4411
S'than'
tp4412
F2.9999999999999996
s(S'mean.'
S'You\x92re'
p4413
tp4414
F2
s(S'drove'
p4415
S'to'
p4416
tp4417
F2
s(S'made'
p4418
S'him'
p4419
tp4420
F2
s(S'We'
p4421
S'found'
p4422
tp4423
F2
s(S'one'
p4424
S'to'
tp4425
F2.9999999999999996
s(S'blue.'
p4426
S'I'
tp4427
F2
s(S'and'
p4428
S'all'
tp4429
F4
s(S'a'
S'smile.'
p4430
tp4431
F2.9999999999999996
s(S'kissed'
p4432
g4158
tp4433
F2.9999999999999996
s(S'the'
S'gym,'
p4434
tp4435
F2
s(S'I'
g649
tp4436
F5
s(S'of'
p4437
S'his'
p4438
tp4439
F23
s(S'and'
p4440
S'went'
p4441
tp4442
F4
s(S'her,'
p4443
S'the'
p4444
tp4445
F2
s(g953
S'were'
p4446
tp4447
F5
s(S'hand'
p4448
S'and'
p4449
tp4450
F5
s(S'strong'
p4451
S'enough'
tp4452
F2
s(S'reasoning'
p4453
S'with'
p4454
tp4455
F2
s(S'hand'
p4456
S'over'
tp4457
F4
s(S'like'
p4458
S'Charlie,'
p4459
tp4460
F2.9999999999999996
s(S'meant'
p4461
S'for'
tp4462
F2
s(S'Angela'
p4463
g3627
tp4464
F2
s(S'sure'
S'that'
tp4465
F2
s(S'pushed'
p4466
S'the'
tp4467
F2
s(S'Not'
p4468
S'a'
tp4469
F2
s(S'Carlisle'
p4470
S'and'
p4471
tp4472
F4
s(g1197
S'long'
p4473
tp4474
F2.9999999999999996
s(S'me'
p4475
g410
tp4476
F2
s(S'the'
g2118
tp4477
F2.9999999999999996
s(S'the'
S'others.'
p4478
tp4479
F2
s(S'the'
S'desk'
p4480
tp4481
F2
s(S'to'
p4482
S'find'
p4483
tp4484
F5.9999999999999991
s(S'not'
S'sure'
p4485
tp4486
F5
s(S'out'
p4487
S'the'
p4488
tp4489
F16
s(S'panic'
p4490
S'attack.'
p4491
tp4492
F2
s(S'who'
S'were'
p4493
tp4494
F2
s(g3767
S'to'
tp4495
F5
s(S'seems'
p4496
S'to'
p4497
tp4498
F2
s(S'what'
S'to'
tp4499
F2
s(S"don't"
S'think'
p4500
tp4501
F2.9999999999999996
s(S'to'
p4502
S'remove'
p4503
tp4504
F2.9999999999999996
s(S'eyes,'
p4505
S'and'
p4506
tp4507
F2
s(g932
g960
tp4508
F2
s(S'close'
p4509
S'to'
p4510
tp4511
F7
s(S'when'
p4512
S'it'
p4513
tp4514
F5
s(S'with'
p4515
S'my'
p4516
tp4517
F13
s(S'I'
S'lay'
p4518
tp4519
F2.9999999999999996
s(S'held'
S'out'
tp4520
F2.9999999999999996
s(S'I'
S"hadn't"
p4521
tp4522
F5
s(S'into'
p4523
S'place'
p4524
tp4525
F2.9999999999999996
s(S'he'
p4526
S'said.'
p4527
tp4528
F4
s(S'the'
p4529
S'school'
p4530
tp4531
F2.9999999999999996
s(S'lined'
p4532
S'with'
p4533
tp4534
F2
s(S'did'
S'the'
p4535
tp4536
F2
s(S'What'
p4537
S'will'
p4538
tp4539
F2.9999999999999996
s(S'just'
p4540
g2320
tp4541
F2
s(S'money'
p4542
S'on'
p4543
tp4544
F4
s(S'with'
p4545
S'him.'
p4546
tp4547
F2
s(S'my'
S'seat.'
p4548
tp4549
F4
s(S'ask'
S'her.'
p4550
tp4551
F2.9999999999999996
s(g484
g3456
tp4552
F2
s(S'had'
S'tried'
p4553
tp4554
F2
s(S'of'
S'its'
p4555
tp4556
F2
s(S'exactly'
p4557
S'the'
tp4558
F5
s(g4240
S'I\x92m'
p4559
tp4560
F2
s(S'the'
S'word.'
p4561
tp4562
F2
s(S'Of'
p4563
g1926
tp4564
F5.9999999999999991
s(S'alone'
p4565
S'in'
tp4566
F2
s(S'any'
p4567
S'of'
p4568
tp4569
F8
s(S'from'
p4570
S'all'
p4571
tp4572
F2
s(S'refused'
p4573
S'to'
tp4574
F2
s(S'but'
p4575
S'in'
p4576
tp4577
F2
s(g473
g344
tp4578
F2
s(S'the'
S'impossible'
p4579
tp4580
F2
s(S'automatically,'
p4581
S'and'
tp4582
F2
s(S'for'
p4583
S'it'
p4584
tp4585
F2
s(S'effort'
p4586
S'to'
p4587
tp4588
F2
s(S'head'
S'down'
p4589
tp4590
F2
s(S'all'
p4591
S'yours!\x94'
p4592
tp4593
F2
s(S'held'
p4594
S'a'
tp4595
F2
s(S'so'
p4596
g4407
tp4597
F2
s(S'worried'
p4598
g4252
tp4599
F2.9999999999999996
s(S'"You'
p4600
S"haven't"
p4601
tp4602
F2
s(S'something'
p4603
g1173
tp4604
F2.9999999999999996
s(g354
S'the'
p4605
tp4606
F9
s(S'the'
S'delicate'
p4607
tp4608
F2
s(S"we'd"
p4609
S'had'
p4610
tp4611
F2
s(S'and'
S'saw'
tp4612
F2.9999999999999996
s(S'How'
p4613
S'did'
tp4614
F2
s(S'think'
g77
tp4615
F2
s(S'\x93I\x92ll'
p4616
S'miss'
p4617
tp4618
F2
s(S'that'
p4619
S'it'
p4620
tp4621
F10
s(S'the'
S'cruiser.'
p4622
tp4623
F2
s(S'second,'
S'Mom.\x94'
p4624
tp4625
F2
s(S'I'
g584
tp4626
F7
s(S'does'
p4627
S'not'
tp4628
F2
s(S'die'
p4629
g1311
tp4630
F2
s(S'"Of'
p4631
S'course'
p4632
tp4633
F2.9999999999999996
s(S'Ren\xe9e'
p4634
S'said'
tp4635
F2
s(S'to'
p4636
S'each'
p4637
tp4638
F4
s(S'World?\x94'
p4639
S'I'
tp4640
F2
s(S'sure'
p4641
S'how'
p4642
tp4643
F2.9999999999999996
s(S'who'
p4644
S'had'
tp4645
F5.9999999999999991
s(S'with'
g3587
tp4646
F4
s(g1900
S'expensive.'
p4647
tp4648
F2
s(S'my'
S'breath.'
p4649
tp4650
F2
s(S'you'
p4651
S'find'
tp4652
F2.9999999999999996
s(S'to'
S'me.'
p4653
tp4654
F20
s(S'in'
p4655
S'his'
p4656
tp4657
F18
s(S'studied'
p4658
S'the'
p4659
tp4660
F4
s(S'was'
p4661
S'so'
p4662
tp4663
F11.999999999999998
s(g1112
S'door'
tp4664
F2.9999999999999996
s(S'you'
p4665
S'show'
p4666
tp4667
F2
s(S'could'
S'tell'
p4668
tp4669
F2.9999999999999996
s(g2685
S'Edward'
p4670
tp4671
F2.9999999999999996
s(S'my'
S'bag,'
p4672
tp4673
F2
s(S'I\x92m'
S'guessing'
p4674
tp4675
F2
s(S'had'
p4676
S'grown'
p4677
tp4678
F2
s(S'Charlie'
p4679
S"wouldn't"
p4680
tp4681
F2
s(S'were'
p4682
S'too'
p4683
tp4684
F2
s(g3817
S'was'
p4685
tp4686
F7
s(g103
S'is'
p4687
tp4688
F2.9999999999999996
s(S'sideways'
p4689
S'at'
p4690
tp4691
F2
s(S'all'
S'his'
p4692
tp4693
F2.9999999999999996
s(S'the'
S'cover'
tp4694
F2
s(g2718
S'sharp'
p4695
tp4696
F2.9999999999999996
s(S'either.\x94'
p4697
S'I'
tp4698
F2
s(S'watched'
S'him'
p4699
tp4700
F2
s(S'a'
S'bit'
p4701
tp4702
F2.9999999999999996
s(S'I'
S'was.'
p4703
tp4704
F2.9999999999999996
s(S'his'
p4705
S'back'
tp4706
F2.9999999999999996
s(S'you'
p4707
S'even'
tp4708
F2.9999999999999996
s(S'air'
p4709
S'and'
p4710
tp4711
F2
s(S'of'
p4712
S'the\x85'
p4713
tp4714
F2
s(S'my'
S'back'
p4715
tp4716
F2
s(S'the'
S'roof'
p4717
tp4718
F2
s(S"didn't"
S'answer.'
p4719
tp4720
F2
s(S'Like'
p4721
S'a'
tp4722
F2
s(S'you'
p4723
S'will'
tp4724
F2
s(S'left'
p4725
S'and'
p4726
tp4727
F2
s(S'I'
S'think,'
p4728
tp4729
F2
s(S'now'
p4730
S'and'
p4731
tp4732
F2
s(S'I'
S'put'
p4733
tp4734
F5
s(S'they'
p4735
S'were'
p4736
tp4737
F11
s(S'at'
p4738
S'a'
tp4739
F2.9999999999999996
s(g4733
S'my'
tp4740
F5
s(g1194
S'your'
p4741
tp4742
F4
s(S'The'
p4743
S'human'
p4744
tp4745
F2
s(S'the'
p4746
S'garter'
p4747
tp4748
F2
s(S'matter'
p4749
S'what'
p4750
tp4751
F2
s(S'given'
p4752
S'to'
p4753
tp4754
F2
s(S'skin'
p4755
S'and'
tp4756
F2
s(S'I'
S'still'
p4757
tp4758
F7
s(S'almost'
S'the'
tp4759
F2
s(S"I'd"
p4760
g3358
tp4761
F4
s(S'was'
p4762
S'only'
p4763
tp4764
F11.999999999999998
s(S'the'
S'bed'
p4765
tp4766
F2.9999999999999996
s(g100
S'to'
p4767
tp4768
F2.9999999999999996
s(S'entering'
p4769
S'the'
p4770
tp4771
F2
s(S'her'
p4772
S'mouth'
p4773
tp4774
F2
s(S'away.'
p4775
S'I'
tp4776
F4
s(S'heard'
S'his'
p4777
tp4778
F2
s(S'to'
S'reach'
p4779
tp4780
F2
s(S'Jamie.'
p4781
S'What'
tp4782
F2
s(S'was'
S'to'
p4783
tp4784
F2.9999999999999996
s(S'all'
S'around'
tp4785
F2
s(g785
g1462
tp4786
F2
s(S'heard'
p4787
g2621
tp4788
F2
s(S'ignoring'
p4789
S'the'
p4790
tp4791
F2
s(S'to'
S'her.'
p4792
tp4793
F2
s(S'should'
p4794
S'have'
p4795
tp4796
F7
s(S'what'
S'my'
p4797
tp4798
F2.9999999999999996
s(S'hoping'
p4799
S'for'
p4800
tp4801
F2.9999999999999996
s(S'We\x92d'
p4802
g2997
tp4803
F2
s(S'to'
p4804
S'a'
tp4805
F11
s(S'it?"'
p4806
S'I'
tp4807
F4
s(S'I'
S'pressed'
p4808
tp4809
F2
s(S'all'
S'so'
p4810
tp4811
F2
s(g3007
S'turn'
p4812
tp4813
F2
s(S'that'
p4814
g3319
tp4815
F4
s(S'sight'
p4816
g4172
tp4817
F2
s(S'with'
p4818
g4281
tp4819
F2
s(S'What'
p4820
g621
tp4821
F2
s(S'a'
S'nice'
p4822
tp4823
F2.9999999999999996
s(S'was'
p4824
S'a'
tp4825
F49
s(S'shook'
p4826
S'his'
p4827
tp4828
F2
s(S'Irina'
p4829
S'were'
p4830
tp4831
F2
s(S'mistakes,'
p4832
S'Bella.'
p4833
tp4834
F2
s(S'was'
S'making'
p4835
tp4836
F4
s(S'Luckily,'
p4837
S'you'
tp4838
F2
s(S'this'
p4839
S'time'
tp4840
F2
s(S'over'
p4841
S'this'
p4842
tp4843
F2
s(S'a'
S'long'
p4844
tp4845
F11
s(S'I'
S'began'
p4846
tp4847
F5
s(S'name,\x94'
p4848
S'the'
tp4849
F2
s(S'stood'
p4850
g2999
tp4851
F2
s(S'Charlie'
p4852
S'is'
p4853
tp4854
F2
s(S'that'
p4855
S'was'
tp4856
F17
s(S'peace.\x94'
p4857
S'The'
tp4858
F2
s(S'the'
p4859
S'screen'
p4860
tp4861
F2
s(S'came'
p4862
S'from'
p4863
tp4864
F2
s(S'like'
p4865
S'my'
tp4866
F2
s(S'all'
p4867
S'but'
p4868
tp4869
F4
s(S'nearly'
p4870
S'as'
p4871
tp4872
F2
s(S'tribute'
p4873
S'to'
p4874
tp4875
F2
s(S'the'
S'new'
p4876
tp4877
F7
s(S'to'
p4878
g3552
tp4879
F2
s(S'for'
p4880
S'me,'
p4881
tp4882
F5.9999999999999991
s(S'Alice'
p4883
S'told'
tp4884
F2.9999999999999996
s(S'few'
S'minutes'
p4885
tp4886
F2
s(S'\x93No'
p4887
S'one'
p4888
tp4889
F2
s(S'than'
p4890
g1708
tp4891
F2
s(S'about'
S'you.'
p4892
tp4893
F2
s(S"wasn't"
S'the'
tp4894
F2.9999999999999996
s(S'under'
p4895
S'a'
tp4896
F2.9999999999999996
s(S'as'
p4897
g182
tp4898
F2
s(S'the'
S'sound'
tp4899
F7
s(g1453
S'her'
p4900
tp4901
F2
s(S'front'
S'door.'
p4902
tp4903
F2
s(S'he'
p4904
S'leaned'
p4905
tp4906
F2
s(S'few'
S'years'
p4907
tp4908
F2
s(g565
S'brief'
p4909
tp4910
F2
s(S'much'
S'for'
p4911
tp4912
F2
s(S'in'
S'to'
p4913
tp4914
F2
s(S'greeted'
p4915
S'me'
tp4916
F2
s(S'of'
S'anxiety'
p4917
tp4918
F2
s(S'She'
p4919
S'did'
tp4920
F2
s(S'dark'
p4921
S'eyes'
p4922
tp4923
F2
s(g3149
S'had'
p4924
tp4925
F10
s(S'I'
S'asked'
p4926
tp4927
F4
s(S'hand'
S'that'
tp4928
F2
s(S'here,"'
p4929
S'he'
p4930
tp4931
F2
s(g1386
g1824
tp4932
F2
s(g1100
S'an'
p4933
tp4934
F5
s(S'would'
p4935
S'look'
p4936
tp4937
F2
s(S'in'
S'love'
p4938
tp4939
F2
s(S'And'
p4940
S'you'
p4941
tp4942
F2
s(S'am.'
p4943
S'You'
p4944
tp4945
F2
s(S'to'
p4946
S'that'
p4947
tp4948
F2.9999999999999996
s(S'I'
S'could.'
p4949
tp4950
F2
s(S'been'
p4951
S'waiting'
tp4952
F2
s(S'him'
p4953
S'a'
tp4954
F2
s(S'I'
S'watched,'
p4955
tp4956
F2
s(S'but'
S'the'
p4957
tp4958
F5.9999999999999991
s(S'and'
p4959
S'look'
p4960
tp4961
F2
s(S'not'
p4962
S'allowed'
tp4963
F2.9999999999999996
s(S'just'
p4964
S'to'
tp4965
F2.9999999999999996
s(S'one'
p4966
S'hand'
tp4967
F2
s(g1742
S'a'
tp4968
F4
s(g3615
S'so'
p4969
tp4970
F2
s(g995
S'ears'
p4971
tp4972
F2.9999999999999996
s(S'not'
p4973
S'very'
p4974
tp4975
F2.9999999999999996
s(S'\x97'
S'it'
tp4976
F2.9999999999999996
s(S'said'
p4977
S'a'
tp4978
F5
s(S'word'
p4979
S'to'
p4980
tp4981
F2
s(S'else'
p4982
S'was'
p4983
tp4984
F2
s(S'to'
p4985
S'ask'
p4986
tp4987
F8
s(S'if'
p4988
S'not'
p4989
tp4990
F2
s(S'anyone'
p4991
S'else'
p4992
tp4993
F2.9999999999999996
s(S'is'
p4994
S'a'
tp4995
F10
s(S'skin.'
S'I'
tp4996
F2
s(S'to'
p4997
S'try'
p4998
tp4999
F2
s(g683
S'\x93Get'
p5000
tp5001
F2
s(S'job'
p5002
S'is'
p5003
tp5004
F2
s(S'I'
g3083
tp5005
F16
s(S'side'
S'so'
tp5006
F2
s(S'at'
p5007
S'his'
p5008
tp5009
F7
s(S'keep'
S'my'
p5010
tp5011
F2.9999999999999996
s(S'loved'
S'the'
tp5012
F2
s(S'a'
S'thousand'
p5013
tp5014
F5
s(S'about'
S'what'
tp5015
F2
s(S'my'
S'stomach,'
p5016
tp5017
F2
s(S'change'
p5018
S'from'
p5019
tp5020
F2
s(S'went'
p5021
S'on,'
p5022
tp5023
F2.9999999999999996
s(S'\x93I'
p5024
S'miss'
p5025
tp5026
F2
s(S'what'
p5027
S'that'
p5028
tp5029
F2
s(S'language'
p5030
S'of'
p5031
tp5032
F2
s(g414
g2132
tp5033
F2
s(S"couldn't"
S'imagine'
p5034
tp5035
F2
s(g3070
S'day'
p5036
tp5037
F5.9999999999999991
s(S'either.'
p5038
S'I'
tp5039
F2.9999999999999996
s(S'he'
p5040
S'looked'
tp5041
F4
s(S'his'
p5042
S'hands.'
p5043
tp5044
F2.9999999999999996
s(S'another'
p5045
S'old'
p5046
tp5047
F2
s(S'up'
p5048
S'my'
p5049
tp5050
F2
s(S'not'
p5051
g4565
tp5052
F2
s(S'expression'
p5053
S'on'
tp5054
F2
s(S'said'
p5055
S'the'
p5056
tp5057
F4
s(S'capable'
p5058
S'of'
p5059
tp5060
F2
s(S'you'
S'at'
p5061
tp5062
F2
s(S'it,"'
p5063
S'he'
p5064
tp5065
F2
s(S'are'
p5066
S'you'
p5067
tp5068
F7
s(S'that'
S"I'm"
p5069
tp5070
F2
s(S'feel'
S'a'
tp5071
F2.9999999999999996
s(S'a'
S'thing'
tp5072
F2
s(S'was'
S'clearly'
p5073
tp5074
F2.9999999999999996
s(S'my'
S'bed,'
p5075
tp5076
F2
s(S'in'
p5077
S'the'
p5078
tp5079
F145
s(S'a'
S'rare'
p5080
tp5081
F2
s(S'believe'
p5082
S'I'
tp5083
F2
s(S'name,'
p5084
S'and'
p5085
tp5086
F2
s(S'the'
S'immortal'
p5087
tp5088
F2.9999999999999996
s(S'my'
S'first'
p5089
tp5090
F2
s(S'I'
S'liked'
p5091
tp5092
F2
s(S'began'
p5093
S'to'
p5094
tp5095
F7
s(S'beneath'
p5096
S'the'
p5097
tp5098
F2
s(S'the'
S'dressing'
p5099
tp5100
F2
s(S'the'
S'building'
p5101
tp5102
F2.9999999999999996
s(g2624
g778
tp5103
F2
s(S'think'
S'it\x92s'
p5104
tp5105
F2
s(g2744
S'to'
p5106
tp5107
F7
s(g176
S'students'
p5108
tp5109
F2
s(S'According'
p5110
S'to'
tp5111
F2
s(S'tux\x97\x94'
p5112
g2416
tp5113
F2
s(S'the'
g1375
tp5114
F2
s(S'a'
g3557
tp5115
F2
s(S'long'
S'counter,'
p5116
tp5117
F2
s(g3963
S'that'
p5118
tp5119
F2
s(S'over'
p5120
S'a'
tp5121
F2
s(S'"Let'
p5122
S'me'
p5123
tp5124
F2
s(S'hear'
S'from'
tp5125
F2
s(g3403
S'yet'
p5126
tp5127
F2
s(S'them'
p5128
S'into'
p5129
tp5130
F2
s(S'know.\x94'
p5131
S'Ren\xe9e'
tp5132
F2
s(S'got'
S'to'
tp5133
F4
s(g4690
S'me'
tp5134
F21
s(S'it.'
p5135
S'But'
tp5136
F4
s(S'was'
S'up'
tp5137
F2
s(S'with'
p5138
S'Charlie'
tp5139
F2
s(S'first'
p5140
g4424
tp5141
F2
s(S'moment.'
p5142
S'I'
tp5143
F2.9999999999999996
s(S'that'
p5144
g2489
tp5145
F2.9999999999999996
s(S'poorly'
p5146
S'to'
tp5147
F2
s(S'eyes'
p5148
S'had'
tp5149
F2
s(S'on'
S'top'
tp5150
F5.9999999999999991
s(S'to'
S'read,'
p5151
tp5152
F2
s(g1183
S'the'
tp5153
F5.9999999999999991
s(S'body'
p5154
S'was'
p5155
tp5156
F2.9999999999999996
s(g3274
g359
tp5157
F2.9999999999999996
s(S'face.'
S'I'
tp5158
F2
s(S'a'
g1848
tp5159
F2
s(S'can'
S'do'
p5160
tp5161
F2
s(S'I'
S'never'
p5162
tp5163
F2.9999999999999996
s(S'gas'
p5164
S'pedal'
p5165
tp5166
F2
s(S'fraction'
p5167
S'of'
tp5168
F2
s(g3173
S'human.'
p5169
tp5170
F2
s(S'headed'
p5171
S'out'
p5172
tp5173
F2
s(S'this'
g857
tp5174
F8
s(S'several'
p5175
S'of'
tp5176
F2
s(S"wasn't"
p5177
S'breathing.'
p5178
tp5179
F2
s(S'The'
p5180
S'host'
tp5181
F4
s(S'to'
S'forget'
p5182
tp5183
F2.9999999999999996
s(g310
S'of'
tp5184
F2
s(S'go'
p5185
S'to'
p5186
tp5187
F2.9999999999999996
s(S'to'
p5188
g2865
tp5189
F10
s(S'the'
g1116
tp5190
F14
s(S'the'
S'greater'
p5191
tp5192
F2
s(g782
S'he'
tp5193
F2
s(S'in'
S'California'
p5194
tp5195
F2
s(S'he'
p5196
S"doesn't"
p5197
tp5198
F2
s(g4620
S'was'
p5199
tp5200
F64
s(S'my'
S'heart'
p5201
tp5202
F7
s(S'sit'
S'by'
p5203
tp5204
F4
s(S'the'
p5205
S'Cullen'
p5206
tp5207
F4
s(S'sighed,'
p5208
S'and'
p5209
tp5210
F2
s(S'boiling'
p5211
g3842
tp5212
F2
s(S"I'd"
p5213
g1505
tp5214
F2
s(S'true.'
p5215
g279
tp5216
F2
s(g549
S'my'
p5217
tp5218
F2.9999999999999996
s(S'be'
S'in'
tp5219
F4
s(S'to'
p5220
S'avoid'
p5221
tp5222
F2.9999999999999996
s(S'on'
p5223
S'to'
tp5224
F2
s(S'My'
p5225
S'own'
p5226
tp5227
F2
s(S'a'
S'gentle'
p5228
tp5229
F2.9999999999999996
s(S'due'
p5230
S'to'
tp5231
F2
s(g1338
S'up'
tp5232
F2
s(S'think'
S'about'
tp5233
F7
s(S'Another'
p5234
S'roll'
p5235
tp5236
F2
s(g4167
S'you'
tp5237
F2
s(S'and'
p5238
S'I'
tp5239
F55
s(S'the'
S'house.'
p5240
tp5241
F5.9999999999999991
s(S'was'
S'definitely'
p5242
tp5243
F2
s(S'pressure'
p5244
S'of'
p5245
tp5246
F2
s(S'was'
S'like'
tp5247
F2.9999999999999996
s(S'but'
p5248
g1327
tp5249
F2
s(g1588
S'kind.'
p5250
tp5251
F2
s(S'he'
p5252
S'asked'
p5253
tp5254
F7
s(S'with'
p5255
S'me.'
tp5256
F2.9999999999999996
s(S'It'
p5257
S'made'
p5258
tp5259
F2.9999999999999996
s(S'what'
p5260
S'he'
tp5261
F5
s(S'shoulders'
p5262
S'and'
p5263
tp5264
F2
s(S'the'
p5265
S'fifth'
p5266
tp5267
F4
s(S'just'
S'couldn\x92t'
p5268
tp5269
F2
s(S'the'
S'stairs.'
p5270
tp5271
F2
s(S'back'
p5272
S'as'
tp5273
F2
s(S'them.'
S'But'
p5274
tp5275
F2
s(S'the'
p5276
S'bad'
p5277
tp5278
F2
s(S'their'
p5279
g1947
tp5280
F2
s(S'when'
p5281
S'I\x92m'
p5282
tp5283
F2.9999999999999996
s(S'center'
p5284
g3752
tp5285
F2.9999999999999996
s(g1040
S'I'
tp5286
F4
s(S'name'
p5287
S'is'
p5288
tp5289
F2
s(S'like'
p5290
g3006
tp5291
F2.9999999999999996
s(S'last'
p5292
S'night'
tp5293
F2
s(S'But'
p5294
S'as'
tp5295
F2.9999999999999996
s(S'this'
p5296
S'way.'
p5297
tp5298
F2
s(g4071
S'not'
tp5299
F5
s(S'way.'
p5300
S'I'
tp5301
F2
s(S'I'
g2995
tp5302
F2
s(S'the'
p5303
S'name.'
p5304
tp5305
F2
s(S'Just'
p5306
S'as'
tp5307
F2
s(S'vaguely'
p5308
S'aware'
tp5309
F2
s(S'was'
S'able'
tp5310
F2
s(S'of'
S'anything'
p5311
tp5312
F2
s(S'no'
p5313
S'sense'
tp5314
F2
s(S'my'
S'mother,'
p5315
tp5316
F2
s(S'the'
g795
tp5317
F2.9999999999999996
s(S'reflection'
p5318
S'in'
tp5319
F2
s(S'I'
S'lied.'
p5320
tp5321
F2
s(S'the'
p5322
S'entire'
p5323
tp5324
F2
s(g3506
S'fingers'
p5325
tp5326
F2
s(S'aren\x92t'
p5327
S'you?\x94'
p5328
tp5329
F2
s(S'was'
p5330
S'soft'
p5331
tp5332
F2
s(S'to'
S'expect'
p5333
tp5334
F2
s(S'a'
S'completely'
p5335
tp5336
F2
s(S'I'
S'came'
p5337
tp5338
F4
s(S'all'
p5339
S'had'
p5340
tp5341
F2
s(S'the'
S'corner'
tp5342
F5
s(S'little'
S'bit'
p5343
tp5344
F2
s(S'from'
p5345
S'any'
p5346
tp5347
F4
s(S'and'
S'Esme.'
p5348
tp5349
F2
s(S'don\x92t'
S'come'
p5350
tp5351
F2
s(S'being'
p5352
S'in'
p5353
tp5354
F2
s(S'I'
S'want."'
p5355
tp5356
F2.9999999999999996
s(S'spoke'
p5357
S'to'
p5358
tp5359
F2
s(S'her'
S'tray'
p5360
tp5361
F2
s(S'my'
S'hands,'
p5362
tp5363
F2
s(S'I'
S'demanded.'
p5364
tp5365
F5.9999999999999991
s(S"It's"
p5366
S'a'
tp5367
F2
s(S'kept'
p5368
S'his'
p5369
tp5370
F2
s(S'we'
p5371
S'were'
p5372
tp5373
F14
s(S'Healer'
p5374
S'and'
tp5375
F2.9999999999999996
s(S'no'
p5376
S'more'
tp5377
F2
s(S'the'
S'wash'
p5378
tp5379
F2
s(S'pull'
p5380
S'me'
tp5381
F2
s(S'in'
p5382
S'two'
tp5383
F2
s(S'his'
p5384
S'free'
p5385
tp5386
F2.9999999999999996
s(S'went'
p5387
S'through'
tp5388
F2
s(S'day'
g1416
tp5389
F2.9999999999999996
s(g4413
S'not'
tp5390
F2.9999999999999996
s(g499
S'with'
tp5391
F2
s(S'all'
p5392
S'this'
p5393
tp5394
F2
s(S'and'
S'Alice'
p5395
tp5396
F4
s(S'one.'
p5397
S'It'
tp5398
F2
s(g1803
g5205
tp5399
F2
s(S'Cullen'
S'siblings'
p5400
tp5401
F2
s(S'far'
S'as'
tp5402
F5
s(g3849
S'in'
tp5403
F2
s(S'so'
p5404
S'I'
tp5405
F13
s(S'moment'
p5406
S'he'
p5407
tp5408
F2
s(S'three'
S'of'
tp5409
F2
s(S'no'
g4453
tp5410
F2
s(S'if'
S'any'
p5411
tp5412
F2
s(S'hidden'
p5413
S'under'
tp5414
F2
s(S'my'
S'own.'
p5415
tp5416
F4
s(S'I'
S'knew'
p5417
tp5418
F28
s(S'already'
p5419
S'had'
p5420
tp5421
F2
s(S'forced'
p5422
S'to'
p5423
tp5424
F2.9999999999999996
s(S'What'
p5425
g4014
tp5426
F2.9999999999999996
s(S'She'
p5427
S'said'
p5428
tp5429
F2
s(S'was'
S'walking'
p5430
tp5431
F2
s(S'I'
S'examined'
p5432
tp5433
F2
s(S'remember'
p5434
S'the'
tp5435
F2
s(S'but'
p5436
S'she'
p5437
tp5438
F2.9999999999999996
s(S'take'
p5439
S'some'
p5440
tp5441
F2.9999999999999996
s(S'Again,'
p5442
S'the'
p5443
tp5444
F2
s(S'the'
p5445
S'tall'
p5446
tp5447
F4
s(S'the'
p5448
g4709
tp5449
F5
s(S'during'
p5450
S'the'
p5451
tp5452
F2
s(S'envy'
p5453
S'him'
p5454
tp5455
F2
s(S'truck'
S'had'
p5456
tp5457
F2
s(S'a'
g997
tp5458
F2
s(S'married.\x94'
p5459
g5234
tp5460
F2
s(S'time'
p5461
S'to'
p5462
tp5463
F7
s(S'up,'
p5464
S'if'
tp5465
F2
s(S'I'
S'fell'
p5466
tp5467
F2
s(S'should'
p5468
S'be'
p5469
tp5470
F5.9999999999999991
s(S'said,'
S'handing'
p5471
tp5472
F2
s(g3590
S'when'
tp5473
F2
s(S'as'
p5474
S'he'
p5475
tp5476
F28.999999999999996
s(S'me'
S'what'
tp5477
F2
s(S'its'
p5478
g2061
tp5479
F2
s(g1622
g4837
tp5480
F2
s(S'I'
S'asked.'
p5481
tp5482
F7
s(S'about'
g4188
tp5483
F2
s(g4736
S'all'
p5484
tp5485
F8
s(S'my'
S'face,'
p5486
tp5487
F4
s(g4454
S'you.'
p5488
tp5489
F2
s(S'I'
S'nodded'
p5490
tp5491
F2.9999999999999996
s(S'life,'
p5492
S'I'
tp5493
F2
s(S'failed'
p5494
S'to'
p5495
tp5496
F2
s(S'of'
p5497
S'her'
p5498
tp5499
F9
s(g3432
S'soul'
p5500
tp5501
F4
s(S'words'
p5502
S'came'
p5503
tp5504
F2.9999999999999996
s(S'rather'
p5505
g4629
tp5506
F2
s(S'walked'
p5507
S'me'
p5508
tp5509
F2.9999999999999996
s(g3109
S'Emmett'
p5510
tp5511
F2.9999999999999996
s(S'why'
p5512
S'I'
tp5513
F5
s(S'\x93Yes,\x94'
p5514
S'the'
tp5515
F2
s(S'this'
p5516
S'mind'
p5517
tp5518
F2
s(S'her.'
g2753
tp5519
F2
s(S'There'
p5520
S'was'
tp5521
F21
s(S'be'
g483
tp5522
F2
s(S'memory'
p5523
S'of'
tp5524
F2
s(S'it,'
p5525
g2609
tp5526
F2
s(S'ought'
p5527
S'to'
tp5528
F2
s(S'I'
S'see'
tp5529
F2
s(S'had'
p5530
S'never'
p5531
tp5532
F5.9999999999999991
s(S'would'
S'cause'
p5533
tp5534
F2
s(S'while'
p5535
S'I'
tp5536
F10
s(S'I'
S'drove'
p5537
tp5538
F2
s(S'a'
S'softer'
p5539
tp5540
F2
s(S'voice'
p5541
S'sounded'
p5542
tp5543
F2
s(S'having'
p5544
S'to'
p5545
tp5546
F2
s(S'just'
p5547
S'as'
tp5548
F5.9999999999999991
s(S'the'
S'bride'
p5549
tp5550
F2
s(S'because'
p5551
g3221
tp5552
F2
s(S'would'
p5553
S'be'
p5554
tp5555
F30
s(S'unable'
p5556
g2940
tp5557
F2.9999999999999996
s(S'And'
S'it'
tp5558
F2
s(S'thing'
p5559
S'I'
tp5560
F5.9999999999999991
s(S'to'
p5561
g730
tp5562
F4
s(S'a'
S'secret'
p5563
tp5564
F2
s(S'an'
S'answer'
p5565
tp5566
F2
s(S'and'
p5567
S'get'
p5568
tp5569
F2.9999999999999996
s(S'That'
p5570
S'is'
p5571
tp5572
F2.9999999999999996
s(g4944
g1526
tp5573
F2
s(g36
S'sworn'
p5574
tp5575
F2
s(S"don't"
S'want'
tp5576
F2
s(S'me'
p5577
S'had'
tp5578
F2
s(g4605
S'only'
p5579
tp5580
F14
s(S'as'
S'easy'
tp5581
F2
s(g1971
S'in'
p5582
tp5583
F2
s(S'first'
S'slide'
p5584
tp5585
F2
s(S'of'
S'myself'
p5586
tp5587
F2
s(S'this'
p5588
S'out'
p5589
tp5590
F2
s(g4182
S'hosts'
p5591
tp5592
F2
s(S'if'
g864
tp5593
F7
s(S'sure'
S'I'
tp5594
F2.9999999999999996
s(g3524
S'so'
p5595
tp5596
F2
s(g5350
S'back?'
p5597
tp5598
F2
s(S'some'
S'way'
tp5599
F2
s(S'the'
S'top'
p5600
tp5601
F4
s(S'of'
S'Charlie\x92s'
p5602
tp5603
F2.9999999999999996
s(S'They'
S"weren't"
p5604
tp5605
F2
s(g5019
S'his'
p5606
tp5607
F10
s(S'The'
p5608
S'wedding'
p5609
tp5610
F2.9999999999999996
s(S'Emmett'
p5611
S'and'
p5612
tp5613
F2.9999999999999996
s(S'quite'
p5614
S'a'
tp5615
F2.9999999999999996
s(g3760
S'I'
tp5616
F2
s(S'followed'
p5617
S'the'
tp5618
F2
s(S'Dad,"'
p5619
S'I'
tp5620
F2
s(S'forgot'
p5621
g2256
tp5622
F2
s(S'I'
g4943
tp5623
F2
s(S'asked'
S'anxiously.'
p5624
tp5625
F2
s(S'truck'
p5626
S'as'
tp5627
F2
s(S'are'
S'no'
tp5628
F2
s(S'If'
p5629
S'he'
tp5630
F2
s(S'sound'
S'was'
p5631
tp5632
F2
s(S'me.'
p5633
g4600
tp5634
F2
s(g3419
S'second,'
p5635
tp5636
F2.9999999999999996
s(g5003
S'to'
p5637
tp5638
F2
s(S'and'
S'so'
p5639
tp5640
F2.9999999999999996
s(S'\x93I'
p5641
S'can\x92t'
p5642
tp5643
F2
s(S'touched'
p5644
S'the'
p5645
tp5646
F2
s(S'few'
S'months'
p5647
tp5648
F2
s(S'Instead,'
p5649
S'I'
tp5650
F2.9999999999999996
s(S'It'
p5651
S'looked'
tp5652
F4
s(S'still'
p5653
S"hadn't"
p5654
tp5655
F2
s(S'Alice'
p5656
S'was'
tp5657
F4
s(S'know'
S'he'
p5658
tp5659
F2.9999999999999996
s(S'if'
p5660
S'we'
tp5661
F2
s(S'gave'
p5662
S'me'
tp5663
F4
s(S'until'
p5664
S'it'
tp5665
F2.9999999999999996
s(S'I'
S'hissed.'
p5666
tp5667
F2
s(S'of'
S'order.'
p5668
tp5669
F2
s(S'this'
S'town'
p5670
tp5671
F2.9999999999999996
s(S'at'
p5672
S'once.'
p5673
tp5674
F4
s(S'the'
S'impression'
p5675
tp5676
F2
s(S'is'
S'very'
p5677
tp5678
F2.9999999999999996
s(g4571
S'I'
tp5679
F2.9999999999999996
s(S'in'
g827
tp5680
F2
s(S'He'
p5681
S'bent'
p5682
tp5683
F2
s(S'the'
p5684
S'dream'
p5685
tp5686
F2
s(S'but'
p5687
g1511
tp5688
F11
s(S'no'
p5689
S'matter'
p5690
tp5691
F2
s(g301
S'to'
p5692
tp5693
F2
s(g1676
g4832
tp5694
F2
s(S'only'
p5695
S'to'
tp5696
F4
s(g127
S'glass'
p5697
tp5698
F7
s(S'too,'
p5699
S'and'
tp5700
F2.9999999999999996
s(S'onto'
p5701
S'the'
p5702
tp5703
F2.9999999999999996
s(S'The'
p5704
S'question'
p5705
tp5706
F2.9999999999999996
s(S'different'
p5707
S'person'
p5708
tp5709
F2
s(S'word'
S'engaged\x97\x93things'
p5710
tp5711
F2
s(S'stuck'
p5712
S'to'
tp5713
F2
s(S'give'
S'us'
p5714
tp5715
F2
s(g1254
S'I'
tp5716
F2.9999999999999996
s(S'to'
p5717
g253
tp5718
F33
s(S'which'
p5719
S'had'
p5720
tp5721
F5.9999999999999991
s(g595
S'My'
p5722
tp5723
F2
s(S'Bella,"'
p5724
g3666
tp5725
F2
s(g2688
S'off'
tp5726
F2
s(S'\x93I'
p5727
S'heard'
p5728
tp5729
F2
s(S'"I'
p5730
S'thought'
p5731
tp5732
F2.9999999999999996
s(g3426
g4567
tp5733
F2
s(g4601
S'changed'
p5734
tp5735
F2
s(S'with'
p5736
S'all'
tp5737
F2
s(S'car'
S'to'
tp5738
F2
s(S'My'
p5739
S'dad'
p5740
tp5741
F2.9999999999999996
s(S'not'
g3915
tp5742
F2
s(S'the'
S'kind'
p5743
tp5744
F2
s(S'blood'
p5745
S'was'
tp5746
F2
s(S'The'
p5747
g5374
tp5748
F7
s(S'be'
S'there.'
p5749
tp5750
F2
s(S'She'
p5751
S'didn\x92t'
p5752
tp5753
F2
s(S'But'
p5754
S'he'
tp5755
F2
s(S'and'
p5756
S'Carlisle'
p5757
tp5758
F2
s(S'as'
p5759
S'an'
p5760
tp5761
F5
s(S'leaving'
p5762
S'me'
p5763
tp5764
F2
s(S'the'
p5765
g528
tp5766
F2.9999999999999996
s(g4559
g3647
tp5767
F2
s(S'the'
S'air.'
p5768
tp5769
F2
s(S'waist'
p5770
g256
tp5771
F2.9999999999999996
s(S"it's"
p5772
g1379
tp5773
F5
s(S'to'
p5774
S'mine.'
p5775
tp5776
F2
s(S'I'
S'kept'
p5777
tp5778
F11.999999999999998
s(S'But'
p5779
g3468
tp5780
F2
s(g4135
g2147
tp5781
F4
s(S'see'
S'his'
tp5782
F2
s(S'in'
S'Los'
p5783
tp5784
F2
s(g169
S'I'
tp5785
F18
s(S'to'
S'introduce'
p5786
tp5787
F2
s(S'view'
p5788
S'of'
tp5789
F2
s(S'are'
p5790
S'not'
p5791
tp5792
F2
s(S'I'
S'sat'
p5793
tp5794
F8
s(S'The'
p5795
S'little'
p5796
tp5797
F2
s(S'since'
p5798
S'I'
tp5799
F2.9999999999999996
s(S'on'
p5800
S'this'
p5801
tp5802
F4
s(S'stretched'
p5803
S'out'
p5804
tp5805
F2.9999999999999996
s(S'and'
S'Esme'
p5806
tp5807
F2
s(S'a'
S'car'
tp5808
F2.9999999999999996
s(S'it'
p5809
S'as'
tp5810
F5.9999999999999991
s(g1649
S'under'
tp5811
F2
s(S'today.\x94'
p5812
S'\x93Today?'
p5813
tp5814
F2
s(g360
S'need'
p5815
tp5816
F2.9999999999999996
s(S'I'
g5621
tp5817
F2.9999999999999996
s(S'that'
p5818
S'would'
p5819
tp5820
F4
s(g2613
S'of'
tp5821
F4
s(g112
g3013
tp5822
F5.9999999999999991
s(S'my'
g4367
tp5823
F2
s(S'eyes.'
S'The'
p5824
tp5825
F2
s(S'information'
S'I'
tp5826
F4
s(S'your'
p5827
S'problem,'
p5828
tp5829
F2.9999999999999996
s(S'I'
S'finally'
p5830
tp5831
F7
s(S'I'
S'said,'
p5832
tp5833
F7
s(g243
S'tickets'
p5834
tp5835
F2
s(S'from'
p5836
S'Phoenix'
p5837
tp5838
F2
s(S'other'
p5839
S'students'
tp5840
F2
s(S'slammed'
p5841
S'the'
tp5842
F2
s(S'with'
p5843
S'more'
p5844
tp5845
F2.9999999999999996
s(S'aware'
p5846
S'of'
tp5847
F5.9999999999999991
s(S'ability'
p5848
S'to'
tp5849
F2.9999999999999996
s(S'stepped'
p5850
S'out'
tp5851
F2.9999999999999996
s(S'a'
S'small'
p5852
tp5853
F11
s(S'have'
S'noticed'
p5854
tp5855
F2.9999999999999996
s(S'to'
p5856
S'know.'
p5857
tp5858
F2
s(g3373
S'was'
p5859
tp5860
F5.9999999999999991
s(S'I'
S'wanted.'
p5861
tp5862
F2
s(S'has'
p5863
S'to'
tp5864
F2
s(S'in'
g2516
tp5865
F2
s(S'would'
g5185
tp5866
F2
s(g1450
S'the'
tp5867
F101
s(S'to'
S'mine'
p5868
tp5869
F2
s(S'My'
p5870
S'mother\x92s'
p5871
tp5872
F2
s(S'was'
S'kissing'
p5873
tp5874
F2
s(S'his'
S'seat.'
p5875
tp5876
F2
s(S'the'
S'wrong'
p5877
tp5878
F2.9999999999999996
s(S'is'
S'staring'
tp5879
F4
s(S'my'
p5880
S'only'
p5881
tp5882
F2
s(g806
g5464
tp5883
F2
s(S'doing'
p5884
S'it'
p5885
tp5886
F2
s(S'that'
p5887
g449
tp5888
F8
s(S'the'
S'Cullens\x92'
p5889
tp5890
F2
s(S'was'
g1730
tp5891
F2
s(S'people'
p5892
S'would'
tp5893
F2
s(S'the'
S'bathroom'
p5894
tp5895
F2.9999999999999996
s(S'the'
S'kitchen'
p5896
tp5897
F4
s(S'His'
p5898
S'lips'
p5899
tp5900
F4
s(S'of'
S'those'
p5901
tp5902
F2
s(g5708
S'than'
tp5903
F2
s(S'again.'
S'His'
tp5904
F2
s(S'had'
S'agreed'
p5905
tp5906
F2
s(S'I'
S'understood'
p5907
tp5908
F2
s(S'immortal'
p5909
S'children'
p5910
tp5911
F2
s(g5346
S'trace'
p5912
tp5913
F2
s(S'I'
g4142
tp5914
F2
s(g4338
S'floor.'
p5915
tp5916
F5
s(g2130
S'gun'
p5917
tp5918
F2
s(S'breath.'
p5919
S'I'
tp5920
F2
s(S'this'
p5921
S'body'
tp5922
F2.9999999999999996
s(S'my'
S'face'
p5923
tp5924
F10
s(S'like'
p5925
S'you'
p5926
tp5927
F2
s(S'was'
S'quiet'
p5928
tp5929
F2.9999999999999996
s(S'surface'
p5930
g2036
tp5931
F2
s(S'the'
S'sidewalk,'
p5932
tp5933
F2
s(S'were'
S'sitting'
tp5934
F2
s(S'gawked'
p5935
S'at'
p5936
tp5937
F2
s(S'go'
p5938
S'of'
tp5939
F2.9999999999999996
s(g947
S'something'
p5940
tp5941
F4
s(S'her'
p5942
S'memories'
p5943
tp5944
F2
s(S'hide'
S'my'
p5945
tp5946
F2
s(S'After'
p5947
g4033
tp5948
F2
s(S'held'
p5949
S'my'
tp5950
F4
s(S'felt'
p5951
S'like'
tp5952
F5
s(S'or'
p5953
S'maybe'
p5954
tp5955
F2
s(S'lived'
p5956
S'on'
p5957
tp5958
F2.9999999999999996
s(S'managed'
p5959
g4482
tp5960
F2.9999999999999996
s(S'didn\x92t'
p5961
g4263
tp5962
F2
s(S'Even'
p5963
S'though'
tp5964
F2
s(S'along'
p5965
g5255
tp5966
F2
s(S'Now'
p5967
S'that'
tp5968
F2.9999999999999996
s(S'The'
S'Seekers'
p5969
tp5970
F2
s(S'He'
p5971
S'laughed'
p5972
tp5973
F2
s(S'I'
g2314
tp5974
F2.9999999999999996
s(S'away'
p5975
g5276
tp5976
F2
s(S'the'
S'three'
p5977
tp5978
F4
s(S'spoil'
p5979
S'the'
tp5980
F2
s(S"didn't"
S'have'
tp5981
F2.9999999999999996
s(S'the'
S'Healer'
tp5982
F16
s(S'It'
p5983
S'had'
tp5984
F2
s(S'that'
p5985
g5300
tp5986
F2
s(g5682
g2247
tp5987
F2
s(S'the'
p5988
S'huge'
p5989
tp5990
F4
s(S'We'
p5991
S'sat'
tp5992
F2
s(S'keep'
g2701
tp5993
F4
s(S'of'
S'beauty.'
p5994
tp5995
F2
s(S'my'
p5996
S'good'
p5997
tp5998
F2.9999999999999996
s(S'into'
p5999
S'my'
p6000
tp6001
F9
s(g1571
S'supposed'
p6002
tp6003
F2
s(S'the'
p6004
S'knowledge'
p6005
tp6006
F2.9999999999999996
s(S'You'
p6007
S'sound'
tp6008
F2
s(S"I've"
p6009
S'never'
tp6010
F2
s(S'the'
g5164
tp6011
F2.9999999999999996
s(S'I'
S'paused.'
p6012
tp6013
F2
s(S'like'
S'being'
p6014
tp6015
F2
s(S"girls'"
p6016
S'locker'
p6017
tp6018
F2
s(g1363
g2152
tp6019
F2
s(S'You'
p6020
S'know'
p6021
tp6022
F2.9999999999999996
s(S'Jessica'
p6023
S'agreed'
p6024
tp6025
F2
s(S'Even'
p6026
S'the'
tp6027
F2
s(S'throw'
p6028
g2068
tp6029
F2
s(S'I'
S'do'
p6030
tp6031
F4
s(S'securely'
p6032
S'in'
tp6033
F2
s(S'very'
p6034
S'hard'
tp6035
F4
s(S'the'
S'Seeker.'
p6036
tp6037
F2.9999999999999996
s(S'camera'
p6038
S'from'
p6039
tp6040
F2.9999999999999996
s(S'and'
g5171
tp6041
F4
s(S'snapped'
p6042
S'the'
tp6043
F2
s(S'"But'
p6044
S'I'
tp6045
F2.9999999999999996
s(S'she'
p6046
g83
tp6047
F2.9999999999999996
s(S'that'
p6048
S'my'
tp6049
F11.999999999999998
s(S'the'
S'time,'
tp6050
F4
s(S'same'
S'table,'
p6051
tp6052
F2
s(S'that'
g142
tp6053
F2
s(S'be'
p6054
S'on'
tp6055
F2
s(S'table.'
p6056
S'Jessica'
p6057
tp6058
F2
s(g2385
g3446
tp6059
F4
s(S'to'
p6060
S'include'
p6061
tp6062
F2
s(g4120
S'of'
tp6063
F7
s(g1283
g1365
tp6064
F2
s(S'made'
p6065
S'it'
tp6066
F5.9999999999999991
s(S'of'
p6067
S'what'
p6068
tp6069
F2.9999999999999996
s(S'Edward'
p6070
g4850
tp6071
F2
s(S'to'
p6072
S'themselves.'
p6073
tp6074
F2
s(S'a'
S'name,'
p6075
tp6076
F2
s(S'will'
g5979
tp6077
F2
s(S'cold'
S'and'
p6078
tp6079
F2
s(g6002
S'to'
tp6080
F5.9999999999999991
s(S'hard'
p6081
S'as'
p6082
tp6083
F2.9999999999999996
s(S'used'
p6084
S'to'
p6085
tp6086
F7
s(S'and'
p6087
g5371
tp6088
F7
s(S'was'
p6089
g5051
tp6090
F19
s(S'grip'
p6091
S'on'
p6092
tp6093
F2
s(S'a'
S'long,'
p6094
tp6095
F2
s(S'not'
p6096
S'enough'
tp6097
F2.9999999999999996
s(S'the'
S'white'
p6098
tp6099
F5
s(g4647
g4369
tp6100
F2
s(S'many'
p6101
S'ways'
p6102
tp6103
F2
s(S'her'
p6104
g1865
tp6105
F2
s(S'the'
g1703
tp6106
F2
s(S'my'
S'neighbor'
p6107
tp6108
F2
s(S'barely'
p6109
S'a'
tp6110
F2
s(g757
S'eyes'
p6111
tp6112
F27
s(S'with'
p6113
S'Charlie.'
p6114
tp6115
F2
s(S'"I'
p6116
S"don't"
p6117
tp6118
F7
s(S'There'
p6119
S'are'
p6120
tp6121
F2.9999999999999996
s(S'where'
p6122
S'the'
p6123
tp6124
F2
s(S'with'
p6125
S'them.'
p6126
tp6127
F2
s(g958
S'I'
tp6128
F2
s(S'knew'
S'that'
tp6129
F5
s(S'tended'
p6130
g5220
tp6131
F2
s(S'starting'
p6132
S'to'
p6133
tp6134
F2.9999999999999996
s(S'on.'
p6135
S'Edward'
p6136
tp6137
F2
s(S'rose'
p6138
g1758
tp6139
F2
s(g3621
g5063
tp6140
F2
s(S'one'
p6141
S'more'
p6142
tp6143
F2
s(g1223
S'you'
p6144
tp6145
F5.9999999999999991
s(S'Kate,'
p6146
S'and'
p6147
tp6148
F2.9999999999999996
s(S'sensation'
p6149
S'that'
tp6150
F2
s(g4833
g6007
tp6151
F2.9999999999999996
s(g2435
S'whole'
p6152
tp6153
F7
s(g4674
S'it\x92s'
p6154
tp6155
F2
s(S'tell'
p6156
S'you'
p6157
tp6158
F4
s(g3
S'Bella!"'
p6159
tp6160
F2
s(g1694
S'"You'
tp6161
F2
s(S'of'
p6162
S'glass'
p6163
tp6164
F2.9999999999999996
s(S'was'
S'glad'
p6165
tp6166
F2
s(S'an'
S'encouraging'
p6167
tp6168
F2
s(S'he'
g5177
tp6169
F4
s(S'me'
S'up'
tp6170
F5
s(S'my'
p6171
S'hair.'
p6172
tp6173
F4
s(S'His'
p6174
S'mouth'
p6175
tp6176
F2
s(S'knowing'
p6177
S'that'
p6178
tp6179
F2
s(S'down'
p6180
S'on'
tp6181
F5.9999999999999991
s(g523
S'opening'
p6182
tp6183
F2
s(S'me.'
g3724
tp6184
F4
s(S'"What'
p6185
S'do'
tp6186
F2
s(S'feelings'
p6187
g3121
tp6188
F2
s(S'As'
p6189
S'if'
p6190
tp6191
F2.9999999999999996
s(S'he'
p6192
g250
tp6193
F2
s(S'of'
p6194
S'them,'
p6195
tp6196
F2
s(S'with'
p6197
S'that'
p6198
tp6199
F2
s(g4037
S'It'
tp6200
F4
s(S'try'
p6201
S'to'
tp6202
F10
s(S'as'
p6203
S'a'
tp6204
F11.999999999999998
s(S'to'
p6205
S'my'
p6206
tp6207
F27
s(S'smell'
p6208
S'of'
tp6209
F5
s(S'it'
p6210
S'down'
tp6211
F2
s(S'\x93I'
p6212
g5961
tp6213
F2
s(S'put'
p6214
S'me'
p6215
tp6216
F2.9999999999999996
s(g5043
S'He'
p6217
tp6218
F2
s(g4197
g1779
tp6219
F2.9999999999999996
s(S'As'
p6220
S'I'
tp6221
F7
s(S'and'
g2210
tp6222
F2
s(S'was'
S'some'
p6223
tp6224
F2.9999999999999996
s(S'them.'
p6225
S'They'
tp6226
F5.9999999999999991
s(g5710
g2602
tp6227
F2
s(S'he'
p6228
S'buy'
p6229
tp6230
F2
s(S'this'
p6231
S'time.'
p6232
tp6233
F2
s(S'I'
S'knew,'
p6234
tp6235
F2
s(S'Charlie\x92s'
p6236
g3575
tp6237
F2
s(S'"I'
p6238
S'guess'
p6239
tp6240
F2
s(S'be'
S'with'
tp6241
F2.9999999999999996
s(S'think'
S'I'
tp6242
F9
s(S'in'
p6243
S'their'
p6244
tp6245
F4
s(S'trying'
p6246
S'not'
tp6247
F2.9999999999999996
s(S'seen'
S'the'
tp6248
F2.9999999999999996
s(S'I'
S'sought'
p6249
tp6250
F2
s(S'to'
S'clean'
p6251
tp6252
F2
s(g3831
g4591
tp6253
F2
s(S'the'
S'sudden'
p6254
tp6255
F2
s(S'The'
p6256
S'soul'
p6257
tp6258
F2
s(S'about'
p6259
S'how'
tp6260
F2
s(S'\x97'
S'or'
p6261
tp6262
F2
s(S'I'
S'smiled'
p6263
tp6264
F7
s(g3597
S'if'
tp6265
F2.9999999999999996
s(S'feet'
S'were'
p6266
tp6267
F2
s(S'The'
p6268
S'man'
p6269
tp6270
F2
s(S'hard'
S'time'
p6271
tp6272
F2
s(S'see'
p6273
S'your'
p6274
tp6275
F2
s(S'as'
S'my'
tp6276
F5.9999999999999991
s(S'for'
p6277
S'them,'
p6278
tp6279
F2
s(S'a'
g5018
tp6280
F2
s(S'some'
p6281
g2722
tp6282
F2
s(g4980
g3830
tp6283
F2
s(S'knew'
p6284
S'it'
tp6285
F5.9999999999999991
s(S'Tanya'
p6286
S'and'
tp6287
F2
s(S'on'
p6288
S'our'
p6289
tp6290
F2
s(S'of'
p6291
S'it,'
p6292
tp6293
F2
s(g5446
S'one'
p6294
tp6295
F2
s(S'was.'
p6296
S'I'
tp6297
F2.9999999999999996
s(S'Rosalie'
p6298
g1840
tp6299
F2.9999999999999996
s(g2082
S'slip'
p6300
tp6301
F2
s(S'into'
p6302
S'an'
p6303
tp6304
F2.9999999999999996
s(S'secret'
S'to'
p6305
tp6306
F2
s(S'he'
S'took'
tp6307
F4
s(S'that'
p6308
S'only'
tp6309
F2
s(g2360
g1385
tp6310
F2
s(S'voice.'
p6311
S'I'
tp6312
F2.9999999999999996
s(S'If'
p6313
S'she'
tp6314
F2.9999999999999996
s(S'I'
S'should'
tp6315
F5.9999999999999991
s(S'huge'
S'white'
p6316
tp6317
F2
s(g1696
S'He'
p6318
tp6319
F7
s(g4287
S'memory'
p6320
tp6321
F4
s(S'I'
g5644
tp6322
F2
s(S'the'
p6323
S'crowd,'
p6324
tp6325
F2
s(S'we'
p6326
S'could'
p6327
tp6328
F2.9999999999999996
s(S'the'
S'faces'
p6329
tp6330
F2
s(S'speaking'
p6331
S'to'
tp6332
F2.9999999999999996
s(S'to'
S'hide'
p6333
tp6334
F5
s(S'My'
p6335
S'eyebrows'
p6336
tp6337
F2
s(S'the'
g3594
tp6338
F5
s(g329
S'remember'
p6339
tp6340
F4
s(g3245
S'in'
tp6341
F2
s(S'my'
p6342
S'brain'
p6343
tp6344
F2
s(S'with'
p6345
S'him,'
p6346
tp6347
F2.9999999999999996
s(S'to'
S'process'
p6348
tp6349
F2
s(S'night'
p6350
S'in'
tp6351
F2
s(S'The'
p6352
g4260
tp6353
F2
s(S'.'
S'.\x94\x97I\x92d'
p6354
tp6355
F2
s(S'and'
p6356
S'threw'
p6357
tp6358
F2
s(S'me'
g3645
tp6359
F2.9999999999999996
s(S'not'
p6360
S'have'
p6361
tp6362
F4
s(S'was'
S'born,'
p6363
tp6364
F2.9999999999999996
s(S'for'
p6365
S'one'
p6366
tp6367
F2.9999999999999996
s(S'a'
S'minute.'
p6368
tp6369
F2
s(S'I'
S'hurried'
p6370
tp6371
F4
s(S'\x93Do'
p6372
S'you'
p6373
tp6374
F5.9999999999999991
s(g6178
g1319
tp6375
F5.9999999999999991
s(S'a'
S'deep'
p6376
tp6377
F7
s(S'I'
S'gather'
p6378
tp6379
F2
s(S'the'
S'chair'
p6380
tp6381
F2
s(S'Neither'
p6382
S'of'
tp6383
F4
s(g2807
g315
tp6384
F2
s(S'with'
p6385
g5376
tp6386
F2
s(S'hand'
p6387
S'as'
p6388
tp6389
F2
s(S'pictures'
g3623
tp6390
F2
s(S'as'
p6391
S'she'
p6392
tp6393
F10
s(S'away,'
p6394
S'but'
tp6395
F2
s(S'Must'
p6396
S'be'
p6397
tp6398
F2
s(S'let'
p6399
S'it'
p6400
tp6401
F5.9999999999999991
s(S'sure'
p6402
S'all'
tp6403
F2
s(g1593
S'him.'
p6404
tp6405
F2
s(S'would'
p6406
S'really'
p6407
tp6408
F2
s(S'conversation.'
p6409
S'I'
tp6410
F2
s(S'only'
S'now'
p6411
tp6412
F2
s(S'time,'
g6236
tp6413
F2
s(S'will'
p6414
g4365
tp6415
F8
s(g2789
S'you'
tp6416
F2
s(S'first'
p6417
S'memory,'
p6418
tp6419
F2
s(S'to'
p6420
S'meet'
p6421
tp6422
F4
s(g6289
S'kind'
p6423
tp6424
F2
s(S'into'
p6425
S'a'
tp6426
F20
s(S'"I'
p6427
g1285
tp6428
F4
s(S'him.'
S'For'
tp6429
F2
s(S'walked'
p6430
S'out'
p6431
tp6432
F2
s(S'belonged'
p6433
g5188
tp6434
F2
s(S'pulled'
S'into'
tp6435
F2
s(S'of'
p6436
S'vampires'
p6437
tp6438
F2
s(S'I'
S'concentrated'
tp6439
F2
s(S'at'
S'him'
p6440
tp6441
F7
s(S'to'
S'kill'
p6442
tp6443
F2
s(S'where'
p6444
S'I'
tp6445
F5
s(S'see'
S'that'
tp6446
F4
s(g3361
g977
tp6447
F2
s(g3142
S'in'
p6448
tp6449
F2
s(g4960
S'at'
p6450
tp6451
F13
s(S'clearly'
p6452
S'not'
tp6453
F2
s(S'my'
g1123
tp6454
F2
s(S'She'
p6455
S'held'
p6456
tp6457
F2
s(S'the'
S'idea'
tp6458
F2
s(S'I\x92ve'
p6459
S'been'
p6460
tp6461
F4
s(S'never'
S'had'
tp6462
F2.9999999999999996
s(S'like'
p6463
S'I'
tp6464
F5.9999999999999991
s(S'I'
S'love'
p6465
tp6466
F2.9999999999999996
s(S'mind.'
p6467
S'I'
tp6468
F2
s(S'don\x92t'
S'get'
p6469
tp6470
F2.9999999999999996
s(S'realize'
S'that'
p6471
tp6472
F5
s(S'no'
p6473
S'one'
p6474
tp6475
F2.9999999999999996
s(S'smooth'
p6476
S'and'
p6477
tp6478
F2
s(S'the'
S'sun'
p6479
tp6480
F2.9999999999999996
s(S'down'
p6481
g5843
tp6482
F4
s(S'talking'
p6483
S'about'
p6484
tp6485
F2
s(S'sitting'
p6486
S'as'
tp6487
F2
s(S'while'
p6488
S'he'
p6489
tp6490
F2.9999999999999996
s(S'pulled'
p6491
S'the'
p6492
tp6493
F2.9999999999999996
s(S'your'
S'fault,"'
p6494
tp6495
F2
s(S'face'
S'to'
tp6496
F2
s(S'replace'
S'my'
tp6497
F2
s(S'the'
S'main'
p6498
tp6499
F2
s(S'kept'
p6500
S'her'
p6501
tp6502
F2.9999999999999996
s(g313
S'reason'
p6503
tp6504
F2
s(S'when'
p6505
S'you'
p6506
tp6507
F4
s(S'The'
p6508
g5502
tp6509
F2
s(S'after'
g2474
tp6510
F2
s(S'said'
g3482
tp6511
F2.9999999999999996
s(S'a'
S'school'
p6512
tp6513
F2
s(S'when'
p6514
S'he'
tp6515
F15
s(S'stretched'
p6516
S'into'
tp6517
F2
s(S'never'
p6518
g3670
tp6519
F5
s(S'I'
S'just'
p6520
tp6521
F8
s(S'a'
S'very'
p6522
tp6523
F2
s(S'was'
S'black,'
p6524
tp6525
F2
s(S'back'
p6526
S'and'
p6527
tp6528
F2
s(S'out'
g1939
tp6529
F4
s(g6501
S'from'
p6530
tp6531
F2
s(S'It'
p6532
S"didn't"
tp6533
F2
s(S'I'
S'couldn\x92t'
p6534
tp6535
F9
s(S'could'
S'do.'
p6536
tp6537
F2
s(g766
g43
tp6538
F2
s(S'to'
p6539
S'make'
p6540
tp6541
F17
s(g213
S'right'
p6542
tp6543
F5
s(S'the'
g3642
tp6544
F7
s(S'some'
p6545
S'kind'
tp6546
F2
s(S'not'
S'a'
tp6547
F2
s(g1177
S'eyebrow.'
p6548
tp6549
F2
s(S'get'
S'to'
tp6550
F7
s(S'heard'
p6551
S'the'
tp6552
F4
s(S'With'
p6553
S'the'
p6554
tp6555
F2.9999999999999996
s(S'and'
p6556
g5850
tp6557
F2
s(S'I'
g2682
tp6558
F2
s(S'my'
p6559
S'father'
p6560
tp6561
F2.9999999999999996
s(g5720
S'gone'
p6562
tp6563
F2.9999999999999996
s(S'Those'
p6564
S'were'
tp6565
F2
s(g5861
S'I'
tp6566
F2
s(S'filled'
p6567
S'my'
p6568
tp6569
F2
s(S'and'
p6570
S'looked'
p6571
tp6572
F2
s(S'had'
g3218
tp6573
F19
s(g5151
S'sweetie.'
p6574
tp6575
F2
s(S'like'
p6576
S'that,'
p6577
tp6578
F2
s(S'deal'
p6579
S'with'
p6580
tp6581
F2.9999999999999996
s(S'were'
S'two'
p6582
tp6583
F2.9999999999999996
s(S'he'
p6584
S'never'
p6585
tp6586
F2
s(g4473
S'to'
tp6587
F2
s(S'of'
p6588
S'all'
p6589
tp6590
F4
s(S'one,'
p6591
S'the'
p6592
tp6593
F2
s(S'You\x92re'
p6594
S'exactly'
tp6595
F2
s(g3655
g4146
tp6596
F2
s(S'and'
p6597
S'as'
p6598
tp6599
F2
s(S'tried'
S'not'
tp6600
F5
s(S'the'
S'very'
p6601
tp6602
F5.9999999999999991
s(S"hadn't"
S'known'
p6603
tp6604
F2
s(g4149
S'side.'
p6605
tp6606
F4
s(g2008
S'it'
p6607
tp6608
F2.9999999999999996
s(S'door'
S'before'
p6609
tp6610
F2
s(g4579
g4239
tp6611
F2
s(S'return,'
p6612
S'the'
p6613
tp6614
F2
s(S'would'
p6615
S'happen'
p6616
tp6617
F2
s(S'dream'
S'to'
tp6618
F2
s(S'picked'
p6619
S'up'
tp6620
F2
s(S'aversion'
p6621
S'to'
tp6622
F2
s(S'he'
S'wasn\x92t'
p6623
tp6624
F2.9999999999999996
s(S'way'
S'the'
tp6625
F2
s(S'You'
p6626
S'have'
tp6627
F2.9999999999999996
s(S'I'
S'leaned'
p6628
tp6629
F2.9999999999999996
s(S'a'
S'moment,'
p6630
tp6631
F5
s(S'lucky'
p6632
S'to'
tp6633
F2
s(S'\x93I'
p6634
S'know'
tp6635
F2
s(g4212
S'the'
p6636
tp6637
F2.9999999999999996
s(S'He'
p6638
S'smiled'
p6639
tp6640
F2
s(S'I'
S'now'
p6641
tp6642
F2
s(S'confused'
p6643
S'by'
p6644
tp6645
F2
s(S'\x93I\x92m'
p6646
S'not'
tp6647
F2
s(S'eyes'
S'down'
tp6648
F2
s(S'He'
p6649
S'busted'
p6650
tp6651
F2
s(S'not'
p6652
S'one'
p6653
tp6654
F2.9999999999999996
s(S'to'
g4557
tp6655
F2
s(S'a'
S'hard'
p6656
tp6657
F5.9999999999999991
s(S'Charlie'
p6658
S'came'
p6659
tp6660
F2.9999999999999996
s(S'of'
p6661
S'laughter'
p6662
tp6663
F2
s(S'easy'
p6664
g2292
tp6665
F2
s(g507
g2544
tp6666
F2
s(g2296
S'the'
p6667
tp6668
F18
s(g6568
S'mind.'
p6669
tp6670
F4
s(S'you\x92re'
p6671
S'scared'
p6672
tp6673
F2
s(S'Of'
p6674
g2746
tp6675
F7
s(g2856
S'the'
p6676
tp6677
F7
s(S'frozen'
p6678
S'on'
tp6679
F2
s(S'my'
p6680
S'memory'
p6681
tp6682
F4
s(S'a'
S'second'
p6683
tp6684
F2.9999999999999996
s(g1820
S'through'
tp6685
F2
s(S'it'
p6686
S'to'
tp6687
F9
s(S'in'
p6688
S'an'
p6689
tp6690
F5
s(S'to'
p6691
S'believe'
tp6692
F2.9999999999999996
s(g5804
S'and'
p6693
tp6694
F4
s(g3585
S'said'
tp6695
F2
s(S'like'
S'everyone'
p6696
tp6697
F2
s(S'toward'
p6698
g5684
tp6699
F5
s(S'again.'
g2465
tp6700
F2
s(S'you'
p6701
S'be'
p6702
tp6703
F2
s(S'that'
S'made'
tp6704
F2
s(S'thought'
p6705
S'of'
tp6706
F5.9999999999999991
s(S'Healer'
S'began.'
p6707
tp6708
F2
s(S'was'
S'standing'
tp6709
F2.9999999999999996
s(S'I'
g2775
tp6710
F11.999999999999998
s(S'"Well,'
p6711
S'I'
tp6712
F2
s(S'turned'
p6713
S'to'
tp6714
F9
s(S'quickly'
p6715
S'as'
tp6716
F2
s(S'run'
p6717
S'away.'
p6718
tp6719
F2
s(S'But'
p6720
S'I'
tp6721
F19
s(S'would'
p6722
g2511
tp6723
F2
s(S"They're"
p6724
S'all'
p6725
tp6726
F2.9999999999999996
s(g5637
S'help'
p6727
tp6728
F2.9999999999999996
s(S'long'
S'moment,'
p6729
tp6730
F2
s(S'will'
p6731
g2484
tp6732
F2
s(g2302
S'I'
tp6733
F21
s(S"wasn't"
S'exactly'
p6734
tp6735
F2
s(g4989
S'the'
tp6736
F5.9999999999999991
s(S'than'
S'a'
tp6737
F5.9999999999999991
s(g1644
S'kids'
p6738
tp6739
F2
s(g2108
S'the'
p6740
tp6741
F4
s(S'time,'
p6742
S'and'
p6743
tp6744
F2
s(S'In'
p6745
S'a'
tp6746
F2.9999999999999996
s(g2466
g1621
tp6747
F2
s(g2251
S'body'
p6748
tp6749
F2
s(g6456
S'up'
p6750
tp6751
F2
s(S'it'
p6752
S'really'
p6753
tp6754
F2
s(g5915
S'I'
tp6755
F2
s(g5600
S'of'
tp6756
F10
s(g5443
S'heat'
p6757
tp6758
F2
s(S'teasing'
p6759
S'tone.'
p6760
tp6761
F2
s(S'the'
p6762
S'Healer.'
p6763
tp6764
F2.9999999999999996
s(g2898
S'I'
tp6765
F2
s(g3648
g1885
tp6766
F2
s(S'in'
p6767
S'Forks,'
p6768
tp6769
F2.9999999999999996
s(S'was'
S'something'
p6770
tp6771
F5
s(S'such'
p6772
S'a'
tp6773
F4
s(S'knew'
p6774
S'how'
tp6775
F2
s(S'that'
p6776
g2766
tp6777
F8
s(S'I'
S'peeked'
p6778
tp6779
F2.9999999999999996
s(S'in'
p6780
S'some'
p6781
tp6782
F2
s(S'him'
p6783
S'again.'
p6784
tp6785
F2.9999999999999996
s(S'of'
p6786
S'them.'
p6787
tp6788
F4
s(S'\x93Are'
p6789
S'you'
p6790
tp6791
F2
s(S'my'
p6792
S'bag.'
p6793
tp6794
F2
s(S'gotten'
p6795
S'me'
p6796
tp6797
F2
s(S'"Aren\'t'
p6798
S'you'
p6799
tp6800
F2
s(S'only'
p6801
g4030
tp6802
F11.999999999999998
s(S'one'
p6803
S'said.'
p6804
tp6805
F2
s(S'stand'
p6806
S'in'
tp6807
F2
s(g1171
S'to'
tp6808
F2
s(S'my'
S'right'
p6809
tp6810
F2.9999999999999996
s(S'whenever'
p6811
S'you'
tp6812
F2
s(S'place,'
p6813
S'the'
tp6814
F2
s(S'noticed'
p6815
S'that'
tp6816
F2
s(S'the'
p6817
S'acceleration'
p6818
tp6819
F2
s(S'as'
p6820
S'if'
p6821
tp6822
F26
s(S'even'
S'think'
p6823
tp6824
F2
s(S'I'
g6430
tp6825
F11
s(S'now.'
p6826
S'The'
p6827
tp6828
F2
s(S'the'
g1727
tp6829
F2.9999999999999996
s(S'in'
p6830
g561
tp6831
F68
s(S'were'
p6832
S'in'
tp6833
F4
s(S'arms'
S'around'
tp6834
F2
s(S'lots'
p6835
S'of'
p6836
tp6837
F2
s(S'That'
p6838
S'was'
p6839
tp6840
F7
s(S'a'
S'million'
p6841
tp6842
F2
s(S'walked'
S'into'
tp6843
F2
s(S'the'
S'most'
p6844
tp6845
F5.9999999999999991
s(S'as'
p6846
S'I'
tp6847
F52
s(S'and'
S'his'
tp6848
F9
s(S'said'
p6849
S'to'
tp6850
F5
s(S'I'
S'flushed'
p6851
tp6852
F2
s(S'He'
p6853
S'went'
tp6854
F2
s(S'applied'
p6855
S'the'
p6856
tp6857
F2
s(g1352
S'eyes'
p6858
tp6859
F4
s(S'I'
g2593
tp6860
F2
s(S'Much'
p6861
S'was'
p6862
tp6863
F2
s(S'lights'
p6864
S'of'
tp6865
F2
s(g5335
g5707
tp6866
F2
s(g4497
S'realize'
p6867
tp6868
F4
s(S"don't"
S'look'
p6869
tp6870
F2
s(S'do'
p6871
S'anything'
p6872
tp6873
F2.9999999999999996
s(g2860
S'my'
p6874
tp6875
F38
s(S'they'
p6876
S'would'
p6877
tp6878
F2.9999999999999996
s(S'really'
p6879
S'hope'
p6880
tp6881
F2
s(S'the'
S'walls'
p6882
tp6883
F2
s(S'instead'
p6884
S'of'
p6885
tp6886
F4
s(S'Edward'
p6887
S'told'
p6888
tp6889
F2
s(S'door'
p6890
S'that'
p6891
tp6892
F2
s(S'giggled'
p6893
S'in'
p6894
tp6895
F2
s(g1963
S'an'
p6896
tp6897
F8
s(g2863
g725
tp6898
F2
s(S'every'
p6899
S'time'
p6900
tp6901
F2
s(S'sat'
p6902
S'next'
p6903
tp6904
F2
s(g2075
S'face,'
p6905
tp6906
F2.9999999999999996
s(S'laid'
p6907
S'out'
p6908
tp6909
F2
s(S'was'
p6910
S'sometimes'
p6911
tp6912
F2
s(S'I'
S'considered'
p6913
tp6914
F2
s(g1098
S'presents'
p6915
tp6916
F2
s(S'we'
p6917
g6065
tp6918
F2
s(S'concentrated'
p6919
S'on'
tp6920
F4
s(S'my'
S'skin.'
p6921
tp6922
F5.9999999999999991
s(S'of'
S'me'
p6923
tp6924
F5
s(S'told'
S'him'
p6925
tp6926
F2.9999999999999996
s(S'It'
p6927
S'all'
p6928
tp6929
F2
s(S'somewhere'
p6930
S'in'
p6931
tp6932
F2
s(g2935
S'go'
tp6933
F2
s(S'the'
S'dark.'
tp6934
F2
s(S'than'
S'you'
p6935
tp6936
F2
s(S'"I\'d'
p6937
g5505
tp6938
F2
s(S'likely'
p6939
S'to'
p6940
tp6941
F2
s(S'table.'
S'I'
tp6942
F2.9999999999999996
s(S'silence'
p6943
S'was'
tp6944
F2.9999999999999996
s(S'The'
p6945
S'silence'
tp6946
F2
s(g4441
S'to'
tp6947
F10
s(g6574
S'But'
tp6948
F2
s(S'over'
p6949
g3215
tp6950
F11
s(S'all'
S'the'
p6951
tp6952
F20
s(S'live'
S'in'
tp6953
F2.9999999999999996
s(S'it'
S'had'
tp6954
F7
s(S'should'
p6955
S'not'
tp6956
F2
s(g4624
g2862
tp6957
F2
s(S'was'
S'never'
p6958
tp6959
F5
s(S'his'
S'hands'
p6960
tp6961
F5.9999999999999991
s(S'for'
S'a'
tp6962
F28
s(g6960
S'were'
p6963
tp6964
F2
s(S'you'
S'came'
tp6965
F2
s(S'enough'
S'to'
p6966
tp6967
F14
s(S'understand'
S'what'
tp6968
F2
s(S'his'
p6969
S'side'
p6970
tp6971
F2
s(S'as'
p6972
S'far'
tp6973
F5
s(S'the'
S'two'
p6974
tp6975
F5
s(S'with'
p6976
S'her'
tp6977
F5
s(g195
S'fit'
p6978
tp6979
F2
s(S'found'
S'him'
p6980
tp6981
F2
s(S'till'
p6982
S'he'
tp6983
F2
s(S'looked'
p6984
S'down'
p6985
tp6986
F2.9999999999999996
s(S'Most'
p6987
S'of'
tp6988
F2
s(S'toward'
p6989
S'us'
p6990
tp6991
F2
s(g5586
S'as'
p6992
tp6993
F2.9999999999999996
s(S'knew'
S'I'
tp6994
F5
s(S'myself,'
S'I'
tp6995
F2
s(S'let'
p6996
S'alone'
p6997
tp6998
F2
s(S'in'
S'this'
tp6999
F5.9999999999999991
s(S'to'
p7000
g2717
tp7001
F5
s(g1263
S'in'
p7002
tp7003
F2
s(S'And'
p7004
S'then,'
p7005
tp7006
F2.9999999999999996
s(S'back'
p7007
S'home.'
p7008
tp7009
F2
s(S'but'
p7010
S'his'
tp7011
F4
s(S'I'
S'managed'
tp7012
F2
s(g1784
S'suggested.'
p7013
tp7014
F2
s(S'be'
S'so'
p7015
tp7016
F2.9999999999999996
s(S'Sometimes'
p7017
S'it'
p7018
tp7019
F2
s(S'out'
p7020
g4299
tp7021
F2
s(S'would'
S'get'
p7022
tp7023
F4
s(S'to'
p7024
g4070
tp7025
F5
s(S'helps'
p7026
S'me'
p7027
tp7028
F2
s(S'than'
p7029
S"I'd"
p7030
tp7031
F5
s(g5235
g6661
tp7032
F2
s(S'look'
p7033
g6776
tp7034
F2
s(S'return'
p7035
g2928
tp7036
F2
s(S'the'
S'world.'
p7037
tp7038
F2.9999999999999996
s(S'the'
g2022
tp7039
F5
s(S'.'
S'.\x94'
p7040
tp7041
F7
s(S'the'
p7042
g3617
tp7043
F2.9999999999999996
s(g4297
S'me.'
tp7044
F2.9999999999999996
s(S'he'
p7045
S'explained.'
p7046
tp7047
F2
s(S'Seeker'
S'and'
p7048
tp7049
F2
s(S'If'
p7050
S'I'
tp7051
F2
s(S'and'
g4829
tp7052
F2
s(S'ever'
p7053
S'seen'
p7054
tp7055
F2.9999999999999996
s(S'not'
g1404
tp7056
F2.9999999999999996
s(S'image'
p7057
S'of'
tp7058
F2
s(g2535
S'down'
p7059
tp7060
F2
s(S'and'
p7061
S'then'
p7062
tp7063
F43
s(S'As'
p7064
S'soon'
tp7065
F2
s(g4207
g3072
tp7066
F2
s(g5905
S'to'
p7067
tp7068
F2.9999999999999996
s(g4015
S'call'
p7069
tp7070
F2
s(S'be'
g2969
tp7071
F2
s(S'My'
p7072
S'hands'
p7073
tp7074
F2
s(S'blacklist'
p7075
S'than'
p7076
tp7077
F2
s(S"didn't"
p7078
S'need'
tp7079
F2
s(S'sure'
S'he'
p7080
tp7081
F2.9999999999999996
s(g3919
S'it.'
p7082
tp7083
F2.9999999999999996
s(g606
S'last'
p7084
tp7085
F4
s(g2196
S'that.'
p7086
tp7087
F2
s(S'my'
p7088
S'fingers'
p7089
tp7090
F2
s(S'the'
S'least'
p7091
tp7092
F2
s(S'We'
p7093
g3699
tp7094
F2
s(S'to'
S'think.'
p7095
tp7096
F2
s(S'the'
S'microscope'
tp7097
F2
s(g903
S'my'
tp7098
F2.9999999999999996
s(S'If'
p7099
S"you'd"
p7100
tp7101
F2
s(S'made'
p7102
S'a'
tp7103
F5
s(S'the'
S'hospital,'
p7104
tp7105
F2
s(S'and'
p7106
S'he\x92s'
p7107
tp7108
F2
s(S'The'
p7109
g5140
tp7110
F2
s(S'not'
p7111
S'been'
p7112
tp7113
F2
s(S'life.'
p7114
g3689
tp7115
F2
s(S'let'
S'her'
p7116
tp7117
F2.9999999999999996
s(S'the'
g5244
tp7118
F2.9999999999999996
s(S'at'
S'me.'
p7119
tp7120
F8
s(S'sort'
p7121
S'of'
p7122
tp7123
F4
s(g6154
g3737
tp7124
F2
s(S'an'
p7125
S'idiot.'
p7126
tp7127
F2
s(S'the'
p7128
S'music'
p7129
tp7130
F2
s(S'was'
p7131
S'out'
tp7132
F5.9999999999999991
s(S'his'
S'head.'
p7133
tp7134
F2.9999999999999996
s(S'are'
p7135
S'a'
tp7136
F2.9999999999999996
s(S'I'
S'glanced'
p7137
tp7138
F5
s(S'louder'
p7139
S'than'
p7140
tp7141
F2
s(S'too'
p7142
S'late.'
p7143
tp7144
F2
s(S'to'
p7145
S'use'
p7146
tp7147
F4
s(S'between'
p7148
S'my'
tp7149
F2
s(S'it\x92s'
p7150
S'too'
tp7151
F2
s(S'looked'
p7152
S'at'
p7153
tp7154
F13
s(S"I'd"
p7155
S'thought.'
tp7156
F2
s(S'The'
p7157
S'people'
p7158
tp7159
F2
s(S'when'
p7160
g6658
tp7161
F2.9999999999999996
s(S'offered'
p7162
S'me'
tp7163
F2
s(g5675
S'that'
tp7164
F2
s(S'get'
S'you'
tp7165
F2.9999999999999996
s(S'my'
p7166
S'suspicions'
p7167
tp7168
F2
s(S'only'
g5308
tp7169
F2
s(g5813
g3970
tp7170
F2
s(S'Edward'
p7171
S'walked'
p7172
tp7173
F2
s(S'few'
S'more'
p7174
tp7175
F2
s(S'to'
p7176
S'play'
p7177
tp7178
F2.9999999999999996
s(S'eighteen'
p7179
g2266
tp7180
F2
s(S'door'
p7181
S'open'
p7182
tp7183
F2
s(S'as'
p7184
g7171
tp7185
F2
s(S'I'
g6879
tp7186
F4
s(S'even'
p7187
S'if'
p7188
tp7189
F4
s(S'it\x92s'
p7190
S'a'
tp7191
F2
s(S'pain'
p7192
S'or'
p7193
tp7194
F2
s(S'out,'
p7195
S'I'
tp7196
F2
s(S'one'
S'will'
p7197
tp7198
F2
s(S'had'
S'been.'
p7199
tp7200
F2
s(S'writing'
p7201
S'it'
p7202
tp7203
F2
s(g7153
S'the'
p7204
tp7205
F62
s(S'row'
p7206
S'of'
p7207
tp7208
F2
s(S'over'
p7209
S'her'
tp7210
F2.9999999999999996
s(S'I'
S'take'
p7211
tp7212
F2
s(g3255
g6104
tp7213
F2
s(S'as'
p7214
S'the'
tp7215
F17
s(S'your'
g4011
tp7216
F2
s(S'like'
p7217
g7125
tp7218
F2.9999999999999996
s(S'despite'
p7219
S'the'
p7220
tp7221
F2.9999999999999996
s(S'Charlie'
p7222
S'said.'
p7223
tp7224
F2
s(S'something'
p7225
S'that'
tp7226
F4
s(S'he'
p7227
S'asked.'
p7228
tp7229
F5.9999999999999991
s(S'down'
S'as'
tp7230
F2
s(S'got'
S'in'
tp7231
F2
s(S'tone'
p7232
g5818
tp7233
F2
s(S'stare'
S'at'
tp7234
F4
s(S'or'
p7235
S'any'
tp7236
F2
s(g4325
S'did'
tp7237
F2.9999999999999996
s(S'I'
S'loved'
p7238
tp7239
F4
s(S'two'
p7240
S'weeks'
p7241
tp7242
F2
s(S'even'
S'in'
tp7243
F2
s(S'thinking'
p7244
S'of'
p7245
tp7246
F2
s(S'to'
p7247
S'wear'
p7248
tp7249
F2
s(g2258
S'of'
p7250
tp7251
F8
s(S'waiting'
p7252
S'in'
tp7253
F2
s(S'the'
p7254
S'thick'
p7255
tp7256
F2
s(g3576
g2018
tp7257
F2
s(S'I'
g50
tp7258
F20
s(g3311
S'is'
p7259
tp7260
F2.9999999999999996
s(S'the'
p7261
S'Denali'
p7262
tp7263
F2
s(S'was'
S'much'
p7264
tp7265
F5
s(S'was'
S'speaking'
p7266
tp7267
F2
s(S'I'
g3562
tp7268
F2.9999999999999996
s(S'the'
p7269
S'place'
tp7270
F2
s(S'up'
p7271
S'into'
tp7272
F2.9999999999999996
s(S'\x93Okay,'
p7273
g4184
tp7274
F2
s(S'living'
p7275
S'in'
tp7276
F2
s(S'focused'
p7277
S'on'
tp7278
F2.9999999999999996
s(g476
S'knew'
p7279
tp7280
F2
s(S'my'
S'mouth'
p7281
tp7282
F2
s(S'come'
p7283
g908
tp7284
F2
s(g1251
g3229
tp7285
F2
s(S'a'
S'strange'
p7286
tp7287
F2.9999999999999996
s(S'handed'
p7288
S'me'
tp7289
F2
s(S'I'
S'reached'
p7290
tp7291
F4
s(S'through'
p7292
g1889
tp7293
F36
s(g6662
g1592
tp7294
F2
s(S'kinds'
p7295
S'of'
p7296
tp7297
F2.9999999999999996
s(S'me.'
S'There'
tp7298
F2
s(S'leaning'
p7299
S'away'
tp7300
F2
s(S'\x93Yes,'
p7301
S'well,'
p7302
tp7303
F2
s(S'thousand'
p7304
g784
tp7305
F2
s(S'far'
p7306
S'away'
p7307
tp7308
F4
s(S'few'
S'minutes,'
p7309
tp7310
F2
s(g751
S'birthday,'
p7311
tp7312
F2
s(g4592
g6649
tp7313
F2
s(S'Healer'
S'sighed.'
p7314
tp7315
F2
s(S'I'
g5949
tp7316
F5
s(S'it'
S'all'
p7317
tp7318
F2.9999999999999996
s(S'on'
p7319
S'one'
tp7320
F2
s(g982
S'in'
tp7321
F2.9999999999999996
s(g6448
g7114
tp7322
F2
s(S'he'
p7323
g3286
tp7324
F2.9999999999999996
s(S'of'
S'a'
tp7325
F20
s(g5834
g1584
tp7326
F2
s(S'came'
p7327
S'to'
tp7328
F4
s(S'little'
S'old'
p7329
tp7330
F2
s(S'the'
g6417
tp7331
F23
s(S'life'
p7332
S'and'
tp7333
F2
s(S'there.'
p7334
S'It'
tp7335
F2
s(S'past'
p7336
S'me'
p7337
tp7338
F2
s(S'in'
p7339
S'one'
p7340
tp7341
F5.9999999999999991
s(S'what'
p7342
S'about'
p7343
tp7344
F2
s(S'he'
p7345
S'do'
p7346
tp7347
F2
s(S'\x93She'
p7348
S'looks'
p7349
tp7350
F2
s(S'hand'
g5281
tp7351
F2
s(S'the'
S'cafeteria'
p7352
tp7353
F4
s(S'I'
S'ducked'
p7354
tp7355
F2
s(g4695
S'edge'
p7356
tp7357
F2.9999999999999996
s(S'for'
p7358
S'me'
p7359
tp7360
F9
s(S'meant'
p7361
S'to'
tp7362
F2
s(g2833
S'said'
tp7363
F2
s(S'a'
g5112
tp7364
F2
s(S'were'
S'doing'
p7365
tp7366
F2
s(S'the'
S'police'
p7367
tp7368
F2.9999999999999996
s(g901
S'would'
p7369
tp7370
F5.9999999999999991
s(S'it'
p7371
S'over'
p7372
tp7373
F2
s(S'neck.'
p7374
S'The'
tp7375
F2
s(S'about'
p7376
g7247
tp7377
F4
s(S'my'
S'waist'
tp7378
F2
s(S'him'
p7379
S'to'
p7380
tp7381
F4
s(S'"You'
p7382
S'can'
p7383
tp7384
F2
s(S'if'
p7385
S'I'
tp7386
F22
s(S'have'
S'taken'
p7387
tp7388
F2
s(S'to'
p7389
g2743
tp7390
F5.9999999999999991
s(S'and'
p7391
S'found'
p7392
tp7393
F2
s(S'this'
S'and'
p7394
tp7395
F2
s(S'a'
S'brief'
p7396
tp7397
F2
s(S'outside'
p7398
S'of'
p7399
tp7400
F2
s(S'I\x92ve'
p7401
S'never'
p7402
tp7403
F2
s(S'my'
p7404
S'stomach.'
p7405
tp7406
F2.9999999999999996
s(g2809
S'longer'
p7407
tp7408
F5.9999999999999991
s(S'said'
p7409
S'with'
p7410
tp7411
F2
s(S'had'
S'made'
p7412
tp7413
F5
s(S'pulled'
p7414
S'up'
p7415
tp7416
F4
s(S'make'
S'me'
p7417
tp7418
F2
s(g149
S'had'
p7419
tp7420
F2.9999999999999996
s(S'of'
p7421
S'fear'
p7422
tp7423
F2
s(S'Who'
p7424
S'would'
tp7425
F2.9999999999999996
s(S'and'
p7426
S'I\x92d'
p7427
tp7428
F2.9999999999999996
s(S'my'
S'direction.'
p7429
tp7430
F2
s(S'into'
p7431
S'her'
p7432
tp7433
F2
s(g7048
S'gave'
p7434
tp7435
F2
s(S'for'
S'something'
tp7436
F2
s(g2475
g1258
tp7437
F2
s(S'at'
p7438
S'all'
p7439
tp7440
F2
s(S'this'
S'is'
p7441
tp7442
F4
s(S'the'
S'car'
p7443
tp7444
F5.9999999999999991
s(g3916
g4979
tp7445
F2
s(S'comfortable'
S'than'
tp7446
F2
s(S'line'
S'of'
p7447
tp7448
F4
s(S'was'
p7449
g3085
tp7450
F34
s(S'it'
p7451
S'so'
p7452
tp7453
F2
s(S'a'
S'whisper.'
p7454
tp7455
F2
s(S'my'
p7456
S'book'
p7457
tp7458
F2
s(S'He'
p7459
g6089
tp7460
F18
s(g1934
S'I'
tp7461
F2
s(S'are'
p7462
S'the'
p7463
tp7464
F5
s(S'I'
S'whisper.'
p7465
tp7466
F2
s(S'I'
S'have'
tp7467
F7
s(S'face,'
S'and'
tp7468
F2
s(S'was'
S'about'
tp7469
F4
s(S'sure'
g2508
tp7470
F2
s(S'\x93Blind'
p7471
g4639
tp7472
F2
s(S'\x97'
S'I'
tp7473
F5
s(S'which'
p7474
S'was'
p7475
tp7476
F2.9999999999999996
s(g5786
S'myself'
tp7477
F2
s(S'until'
p7478
S'the'
tp7479
F4
s(S'I'
g3722
tp7480
F4
s(S'I'
S'hoped'
p7481
tp7482
F4
s(S'to'
S'walk'
p7483
tp7484
F4
s(S'saw'
S'that'
tp7485
F2
s(S'and'
p7486
S'pressed'
tp7487
F2
s(S'would'
S'I'
tp7488
F2
s(S'the'
S'need'
tp7489
F2.9999999999999996
s(g5258
S'me'
p7490
tp7491
F15
s(S'the'
S'Cullens,'
p7492
tp7493
F2.9999999999999996
s(S'the'
S'pattern'
p7494
tp7495
F2
s(g3239
S'and'
tp7496
F2
s(g4506
g5942
tp7497
F9
s(S'My'
p7498
g5292
tp7499
F2
s(S'under'
p7500
S'the'
p7501
tp7502
F11.999999999999998
s(S'everything'
p7503
S'in'
tp7504
F4
s(S'and'
p7505
S'family.'
p7506
tp7507
F2
s(S'can\x92t'
g6156
tp7508
F2.9999999999999996
s(S'Cullen'
S'is'
p7509
tp7510
F2.9999999999999996
s(S'It'
p7511
S'seemed'
p7512
tp7513
F2.9999999999999996
s(S'faster'
p7514
S'than'
p7515
tp7516
F5
s(S'still'
S"couldn't"
p7517
tp7518
F2
s(S'wouldn\x92t'
p7519
S'be'
tp7520
F2
s(g5046
S'soul.\x94'
p7521
tp7522
F2
s(g5106
S'answer.'
p7523
tp7524
F2
s(S'before'
p7525
S'I'
tp7526
F11.999999999999998
s(S'a'
S'book'
p7527
tp7528
F2
s(S'I'
S'tore'
p7529
tp7530
F2
s(S'together.'
p7531
S'I'
tp7532
F2.9999999999999996
s(S'you,'
p7533
S'I'
tp7534
F2
s(S'if'
S'they'
tp7535
F5
s(S'know'
S'I\x92ve'
p7536
tp7537
F2
s(S'on'
p7538
S'your'
p7539
tp7540
F2.9999999999999996
s(S'I'
S'followed'
p7541
tp7542
F2
s(g2240
S'like'
p7543
tp7544
F4
s(S'notice'
p7545
g5988
tp7546
F2
s(g6068
g6615
tp7547
F2.9999999999999996
s(S'I'
g1452
tp7548
F5.9999999999999991
s(S'of'
S'one'
tp7549
F2
s(g4118
S'I'
tp7550
F5.9999999999999991
s(S'the'
S'darkness.'
p7551
tp7552
F2.9999999999999996
s(S'were'
p7553
S'frozen'
tp7554
F2
s(g3441
g4994
tp7555
F5.9999999999999991
s(S'eye,'
p7556
S'and'
tp7557
F2
s(S'the'
S"Cullens'"
p7558
tp7559
F2
s(g4354
S'it'
p7560
tp7561
F2
s(S'Mr.'
p7562
S'Weber'
p7563
tp7564
F2.9999999999999996
s(g2016
g1747
tp7565
F2
s(g1551
S'keep'
p7566
tp7567
F10
s(g5875
S'He'
p7568
tp7569
F2
s(g624
S'and'
p7570
tp7571
F2
s(g2085
S'she'
p7572
tp7573
F2
s(S'my'
p7574
g52
tp7575
F2
s(S'centered'
p7576
S'around'
p7577
tp7578
F2
s(S'my'
S'forehead'
p7579
tp7580
F2
s(S'the'
g1822
tp7581
F2
s(g3327
g7000
tp7582
F2
s(S'it.'
p7583
S'And'
p7584
tp7585
F2
s(S'down'
p7586
S'one'
p7587
tp7588
F2
s(S'I'
g6491
tp7589
F5
s(S'the'
S'floor'
p7590
tp7591
F5
s(g6978
S'in'
p7592
tp7593
F2
s(g4273
g3962
tp7594
F15
s(S'things'
p7595
S'that'
p7596
tp7597
F2.9999999999999996
s(S'the'
p7598
S'sky'
p7599
tp7600
F2
s(S'sound'
p7601
S'so'
p7602
tp7603
F2
s(S'burst'
p7604
S'through'
tp7605
F2
s(S'a'
S'voice'
p7606
tp7607
F2
s(g4021
g6626
tp7608
F2
s(g7076
g5211
tp7609
F2
s(S'all'
p7610
S'very'
p7611
tp7612
F2.9999999999999996
s(S'the'
S'human'
p7613
tp7614
F7
s(S'down.'
p7615
S'I'
tp7616
F2.9999999999999996
s(S'morning.'
p7617
S'I'
tp7618
F2
s(g4938
S'with'
tp7619
F2
s(S'surrounded'
p7620
S'by'
tp7621
F2
s(S'what'
p7622
S'kind'
tp7623
F2
s(S'silly,'
p7624
S'and'
tp7625
F2
s(S'he'
g5208
tp7626
F2
s(S'I'
S'called'
p7627
tp7628
F2
s(S'wrong'
p7629
S'with'
p7630
tp7631
F2.9999999999999996
s(S'with'
p7632
S'a'
tp7633
F28.999999999999996
s(S'name'
p7634
S'was'
p7635
tp7636
F4
s(S'around'
p7637
S'in'
tp7638
F2
s(g5172
S'into'
tp7639
F2.9999999999999996
s(S'the'
S'corner.'
p7640
tp7641
F2
s(S'kind'
p7642
S'of'
p7643
tp7644
F16
s(S'at'
S'you.'
p7645
tp7646
F2
s(S'same'
S'time.'
p7647
tp7648
F2
s(S'eyes'
S'on'
tp7649
F5
s(S'\x97'
S'even'
tp7650
F2
s(S'It\x92s'
p7651
S'not'
p7652
tp7653
F4
s(S'the'
S'stairs,'
p7654
tp7655
F2.9999999999999996
s(S'what'
S'they'
p7656
tp7657
F2.9999999999999996
s(S'Edward'
p7658
S"didn't"
p7659
tp7660
F2
s(g3237
S'in'
tp7661
F2
s(S'been'
S'any'
p7662
tp7663
F2
s(S'Charlie.'
S'I'
tp7664
F2
s(S"they're"
p7665
g7610
tp7666
F2
s(g5777
S'my'
tp7667
F11.999999999999998
s(S'the'
S'wet'
p7668
tp7669
F2
s(S'to'
p7670
g2886
tp7671
F4
s(S'make'
S'up'
tp7672
F2.9999999999999996
s(S'mine.'
p7673
S'I'
tp7674
F2.9999999999999996
s(S'"That\'s'
p7675
S'not'
tp7676
F2
s(S'much'
p7677
S'like'
tp7678
F2
s(S'did'
p7679
S'I'
tp7680
F2
s(g3476
S'under'
tp7681
F2
s(S'You'
p7682
g663
tp7683
F2
s(S'held'
p7684
S'the'
p7685
tp7686
F2
s(S'my'
S'mother.'
p7687
tp7688
F4
s(S'ignored'
p7689
S'me.'
p7690
tp7691
F2
s(S'the'
p7692
S'ones'
p7693
tp7694
F2.9999999999999996
s(S'blushed'
p7695
g6570
tp7696
F2
s(S'dropped'
p7697
S'the'
p7698
tp7699
F2
s(S'Tanya,'
p7700
g6146
tp7701
F2
s(S'I'
g3138
tp7702
F7
s(g5000
g5459
tp7703
F2
s(S'the'
p7704
S'street'
p7705
tp7706
F2
s(S'though,'
p7707
S'and'
tp7708
F2
s(S'was'
S'always'
p7709
tp7710
F5
s(S'my'
p7711
S'mom'
p7712
tp7713
F5.9999999999999991
s(S'this?"'
p7714
S'I'
tp7715
F2
s(S'time.'
p7716
S'I'
tp7717
F2
s(S'from'
p7718
S'a'
tp7719
F2
s(S'was'
p7720
S'free'
tp7721
F2
s(S'reason'
S'he'
tp7722
F2
s(S'All'
p7723
g4196
tp7724
F2
s(S'it'
p7725
g2113
tp7726
F2
s(S'before'
p7727
S'he'
p7728
tp7729
F2.9999999999999996
s(S'over'
p7730
S'me,'
p7731
tp7732
F2
s(S'was'
S'nothing'
tp7733
F2
s(S'to'
p7734
S'look'
tp7735
F9
s(S'He'
p7736
S'sounded'
p7737
tp7738
F2
s(S'my'
S'truck.'
p7739
tp7740
F2
s(S'all'
p7741
g6786
tp7742
F5
s(S'Do'
p7743
g3548
tp7744
F2.9999999999999996
s(S'you'
S'a'
tp7745
F5
s(S'too'
S'close.'
p7746
tp7747
F2
s(S"I'd"
p7748
S'met'
p7749
tp7750
F2
s(S'Charlie'
p7751
S'and'
tp7752
F2.9999999999999996
s(S'while'
p7753
S'the'
tp7754
F2.9999999999999996
s(S'"Thanks."'
p7755
S'We'
p7756
tp7757
F2
s(S'glanced'
S'at'
tp7758
F2.9999999999999996
s(S'They'
p7759
S"don't"
p7760
tp7761
F2
s(S'the'
S'sofa'
p7762
tp7763
F2
s(S'the'
p7764
S'subject.'
p7765
tp7766
F2
s(S'walked'
p7767
S'slowly'
p7768
tp7769
F2
s(g5793
S'at'
tp7770
F5
s(S'into'
p7771
S'his'
p7772
tp7773
F9
s(S'be'
S'shattered'
p7774
tp7775
F2
s(g6471
S'Charlie'
tp7776
F2
s(g773
S'of'
tp7777
F2.9999999999999996
s(S'On'
p7778
S'the'
p7779
tp7780
F2.9999999999999996
s(S'stared'
p7781
S'out'
tp7782
F2
s(g7536
S'said'
tp7783
F2
s(S'the'
g2135
tp7784
F2
s(S'music'
S'was'
p7785
tp7786
F2
s(S'past'
p7787
S'the'
p7788
tp7789
F5
s(g4001
S'as'
tp7790
F2
s(S'my'
S'heart.'
p7791
tp7792
F2
s(g3595
S'of'
tp7793
F2
s(S'but'
p7794
g3310
tp7795
F2
s(S'sporting'
p7796
S'goods'
p7797
tp7798
F2
s(S'I'
S'sighed.'
p7799
tp7800
F8
s(S'up'
g1217
tp7801
F2
s(S'down'
p7802
S'to'
p7803
tp7804
F4
s(g5488
S'Of'
tp7805
F2
s(S'it.'
S'Jasper'
p7806
tp7807
F2
s(S'too'
S'late'
p7808
tp7809
F2
s(S'my'
S'back.'
p7810
tp7811
F2
s(S'to'
S'bother'
p7812
tp7813
F2
s(S'just'
S'had'
tp7814
F2
s(g4924
S'not'
p7815
tp7816
F2.9999999999999996
s(g1371
S'you,'
p7817
tp7818
F2
s(S'since'
p7819
S'the'
tp7820
F4
s(S'let'
S'my'
tp7821
F4
s(g1701
S'to'
p7822
tp7823
F4
s(S'So'
p7824
S'I'
tp7825
F7
s(S'that'
S'most'
tp7826
F2
s(S'the'
S'doorway.'
p7827
tp7828
F2
s(S'thought'
p7829
S'to'
tp7830
F5
s(S'bear'
p7831
g2529
tp7832
F2
s(S'looking'
S'straight'
p7833
tp7834
F2
s(S'I'
S'am'
p7835
tp7836
F9
s(S'He'
S'handed'
p7837
tp7838
F2.9999999999999996
s(S'something'
S'to'
p7839
tp7840
F2
s(S'The'
p7841
g6208
tp7842
F2.9999999999999996
s(S'It'
p7843
S'will'
p7844
tp7845
F4
s(S'out'
p7846
S'to'
tp7847
F4
s(S'he'
p7848
S'wondered.'
p7849
tp7850
F2
s(S'obvious'
p7851
S'that'
tp7852
F2
s(S'Rosalie'
S'were'
p7853
tp7854
F2
s(S'of'
p7855
S'crystal'
p7856
tp7857
F2
s(S'the'
S'closest'
p7858
tp7859
F2
s(g1191
S'myself'
p7860
tp7861
F2
s(S'gone'
p7862
S'so'
p7863
tp7864
F2
s(S'she'
p7865
S'spoke'
p7866
tp7867
F2
s(S'Edward'
p7868
S'I'
tp7869
F2
s(g2967
S'soul,'
p7870
tp7871
F2
s(S'most'
p7872
S'of'
tp7873
F7
s(S'you'
p7874
S'do'
p7875
tp7876
F2
s(S'see'
S'a'
tp7877
F2
s(S'my'
p7878
S'face.'
p7879
tp7880
F4
s(g779
g2524
tp7881
F2
s(S'ears.'
p7882
S'My'
tp7883
F2
s(g7095
S'And'
tp7884
F2
s(S'a'
S'clear'
p7885
tp7886
F4
s(g1274
S'telling'
p7887
tp7888
F2
s(S'As'
p7889
g4904
tp7890
F2
s(S'to'
S'him.'
tp7891
F4
s(S'I'
g5131
tp7892
F2
s(S'slip'
S'and'
p7893
tp7894
F2
s(S'"Bella,"'
p7895
S'I'
tp7896
F2
s(S'much'
p7897
S'more'
p7898
tp7899
F7
s(g4941
S'are'
p7900
tp7901
F5
s(S'me,"'
p7902
S'I'
tp7903
F2.9999999999999996
s(S'exhaled'
p7904
g6556
tp7905
F2
s(S'grateful'
p7906
S'to'
tp7907
F2
s(g3527
S'the'
p7908
tp7909
F5.9999999999999991
s(g6506
S'had'
p7910
tp7911
F2.9999999999999996
s(S'around'
p7912
S'the'
p7913
tp7914
F20
s(S'her'
S'voice'
tp7915
F2.9999999999999996
s(S'someone'
p7916
S'to'
p7917
tp7918
F2
s(S'a'
S'spotlight'
p7919
tp7920
F2
s(S'matter'
p7921
S'to'
p7922
tp7923
F2
s(g1061
S'of'
p7924
tp7925
F2.9999999999999996
s(S'my'
p7926
S'left'
p7927
tp7928
F2.9999999999999996
s(S'the'
p7929
g4270
tp7930
F2
s(S'middle'
p7931
S'of'
tp7932
F5
s(g3843
g3048
tp7933
F2
s(S'Dr.'
p7934
S'Cullen'
p7935
tp7936
F2
s(S'the'
p7937
g5523
tp7938
F5
s(S'the'
g38
tp7939
F5
s(S'It'
S'wasn\x92t'
p7940
tp7941
F2
s(S'until'
p7942
S'my'
p7943
tp7944
F2
s(g3474
S'and'
p7945
tp7946
F4
s(S'can\x92t'
g4337
tp7947
F2
s(S'to'
S'break'
p7948
tp7949
F2
s(S'the'
S'Cullens'
p7950
tp7951
F4
s(g1169
g7389
tp7952
F9
s(S'years'
p7953
S'of'
tp7954
F4
s(S'never'
S'your'
tp7955
F2.9999999999999996
s(S'the'
S'youngest,'
p7956
tp7957
F2
s(g2538
S'she'
p7958
tp7959
F2.9999999999999996
s(S'His'
p7960
S'eyes'
p7961
tp7962
F2
s(S'was'
S'decided'
p7963
tp7964
F2
s(S'in'
p7965
S'large'
p7966
tp7967
F2
s(S'Everything'
p7968
S'was'
p7969
tp7970
F2
s(S'as'
p7971
S'we'
p7972
tp7973
F10
s(S'me'
p7974
S'get'
p7975
tp7976
F4
s(S'her'
g7075
tp7977
F2
s(S'kept'
p7978
S'the'
tp7979
F2
s(S'his'
p7980
g3226
tp7981
F9
s(S'and'
p7982
g6201
tp7983
F2
s(S'the'
g2748
tp7984
F2
s(S'friends'
p7985
S'and'
tp7986
F2
s(S'turned'
p7987
S'into'
tp7988
F2.9999999999999996
s(S'had'
S'ever'
p7989
tp7990
F5.9999999999999991
s(S'can'
S'see'
tp7991
F4
s(S'have'
S'a'
tp7992
F14
s(S'me'
p7993
S'with'
tp7994
F7
s(S'course,'
S'exactly'
tp7995
F2
s(S'recognize'
p7996
S'the'
tp7997
F2
s(S'mind,'
p7998
S'though,'
p7999
tp8000
F2
s(S'my'
p8001
S'last'
p8002
tp8003
F2.9999999999999996
s(S'\x97'
S'but'
tp8004
F2
s(S'I\x92d'
p8005
S'never'
p8006
tp8007
F4
s(S'sense'
p8008
S'to'
p8009
tp8010
F2
s(S'the'
p8011
S'perfect'
p8012
tp8013
F2
s(S'I'
S"wouldn't"
p8014
tp8015
F7
s(g4907
S'before'
p8016
tp8017
F2
s(S'were'
p8018
S'so'
p8019
tp8020
F5
s(S'then,'
p8021
S'as'
tp8022
F2
s(S'hair'
S'fall'
p8023
tp8024
F2
s(S'boy'
p8025
S'with'
p8026
tp8027
F2
s(g909
S'me'
tp8028
F8
s(S'examine'
S'the'
tp8029
F2
s(S'for'
p8030
S'the'
p8031
tp8032
F43
s(S'was'
S'sitting'
tp8033
F2
s(g7439
S'to'
tp8034
F2
s(g5928
S'for'
tp8035
F2.9999999999999996
s(S'darker'
p8036
S'than'
tp8037
F2.9999999999999996
s(S'look'
p8038
g2933
tp8039
F5
s(S'we'
p8040
S'told'
p8041
tp8042
F2
s(S'the'
S'side'
p8043
tp8044
F2.9999999999999996
s(S'two'
p8045
S'years'
tp8046
F2
s(S'murmured.'
p8047
S'A'
tp8048
F2
s(S'to'
p8049
S'what'
p8050
tp8051
F2
s(S'\x93The'
p8052
S'soul'
p8053
tp8054
F2.9999999999999996
s(S'at'
p8055
S'that'
p8056
tp8057
F2
s(S'helped'
p8058
S'me'
tp8059
F2.9999999999999996
s(S'"I'
p8060
S'think'
tp8061
F2.9999999999999996
s(S'you'
p8062
g4502
tp8063
F11.999999999999998
s(S'now.'
p8064
S'I'
tp8065
F2
s(g7307
S'in'
tp8066
F2.9999999999999996
s(g7584
S'I'
tp8067
F8
s(S'way'
S'he'
tp8068
F4
s(S'up'
p8069
S'at'
tp8070
F2.9999999999999996
s(S'specifically'
p8071
g4075
tp8072
F2
s(S'we'
S'walked'
tp8073
F2
s(S'only'
S'a'
tp8074
F7
s(S'walked'
S'to'
tp8075
F4
s(S'the'
S'long'
p8076
tp8077
F4
s(S'my'
p8078
S'finger.'
p8079
tp8080
F2
s(S'but'
p8081
g4258
tp8082
F4
s(S'the'
p8083
S'eye,'
p8084
tp8085
F2
s(S'lips'
S'against'
tp8086
F2.9999999999999996
s(S'up'
p8087
S'the'
p8088
tp8089
F14
s(S'I'
S'ease'
p8090
tp8091
F2
s(g1659
S'Waters.'
p8092
tp8093
F2.9999999999999996
s(g6404
g2406
tp8094
F2
s(S'the'
S'danger'
p8095
tp8096
F2
s(g7337
S'like'
p8097
tp8098
F2.9999999999999996
s(S'get'
S'out'
tp8099
F5
s(S"you'd"
p8100
S'like'
tp8101
F2
s(S'I'
g3785
tp8102
F10
s(g6650
g3713
tp8103
F2
s(S'to'
p8104
S'save'
p8105
tp8106
F2
s(S'the'
S'edges'
p8107
tp8108
F2
s(S'the'
p8109
S'worst'
p8110
tp8111
F2.9999999999999996
s(S'Seth.'
p8112
S'I'
tp8113
F2
s(S'more'
p8114
g2750
tp8115
F19
s(S'to'
g3322
tp8116
F2
s(g3513
S'for'
p8117
tp8118
F2
s(S'me'
S'so'
p8119
tp8120
F2
s(S'was'
S'another'
p8121
tp8122
F2
s(S'Wanderer'
p8123
S'will'
p8124
tp8125
F2
s(S'walked'
p8126
S'through'
tp8127
F2.9999999999999996
s(S'question'
S'was'
tp8128
F2
s(S'he'
S'seemed'
tp8129
F2.9999999999999996
s(S'When'
p8130
S'I'
tp8131
F10
s(S'What'
p8132
S'was'
p8133
tp8134
F7
s(g2410
S'be'
p8135
tp8136
F2
s(g7290
S'for'
tp8137
F2
s(S'with'
p8138
S'his'
p8139
tp8140
F5
s(g4422
S'no'
p8141
tp8142
F2
s(S'them.'
p8143
S'The'
p8144
tp8145
F2
s(S'to'
p8146
S'go'
p8147
tp8148
F8
s(g5385
g4448
tp8149
F2
s(S'still'
S'felt'
p8150
tp8151
F2
s(S'had'
S'laughed'
tp8152
F2
s(S'a'
S'minute'
p8153
tp8154
F2
s(g1121
g2234
tp8155
F4
s(S'the'
g1437
tp8156
F2.9999999999999996
s(S'you'
S'got'
tp8157
F2
s(S'I'
S'guess'
p8158
tp8159
F2
s(g840
g1734
tp8160
F2
s(g5912
S'of'
p8161
tp8162
F2.9999999999999996
s(g340
S'the'
p8163
tp8164
F5.9999999999999991
s(g2427
g2727
tp8165
F8
s(S'my'
S'lips.'
p8166
tp8167
F2
s(g858
S'a'
tp8168
F13
s(S'it'
p8169
S'would'
tp8170
F9
s(S'given'
p8171
S'me'
p8172
tp8173
F2
s(S'asked'
S'in'
tp8174
F2
s(S'was'
S'fairly'
p8175
tp8176
F2
s(S'it'
S"wasn't"
p8177
tp8178
F4
s(S'with'
p8179
g7583
tp8180
F2.9999999999999996
s(S'almost'
p8181
S'to'
tp8182
F2
s(g7806
S'had'
tp8183
F2
s(S'don\x92t'
g3440
tp8184
F2
s(S'to'
p8185
S'work'
tp8186
F2.9999999999999996
s(S'His'
p8187
S'fingers'
p8188
tp8189
F2
s(S'far'
p8190
g4775
tp8191
F2
s(g5025
S'my'
p8192
tp8193
F2
s(S'just'
p8194
S'something'
p8195
tp8196
F2
s(S'I'
S'said.'
p8197
tp8198
F4
s(S'happen'
p8199
S'to'
tp8200
F4
s(S'with'
p8201
S'their'
p8202
tp8203
F2
s(g7887
g3928
tp8204
F2
s(S"wouldn't"
S'have'
tp8205
F2
s(g3094
g5045
tp8206
F2
s(S'more'
p8207
S'out'
tp8208
F2
s(S'like'
g6671
tp8209
F2
s(S'feeling'
p8210
S'a'
tp8211
F2
s(S'of'
S'whatever'
p8212
tp8213
F2
s(S'Edward'
p8214
S'Cullen'
p8215
tp8216
F5.9999999999999991
s(S'for'
p8217
S'just'
tp8218
F2
s(S'without'
p8219
S'looking'
p8220
tp8221
F2
s(S'pulled'
p8222
g1508
tp8223
F4
s(S'were'
g6034
tp8224
F2.9999999999999996
s(S'of'
S'things'
p8225
tp8226
F2.9999999999999996
s(g4224
g6691
tp8227
F2
s(S'and'
p8228
g6298
tp8229
F5
s(S'so'
p8230
S'that'
tp8231
F11.999999999999998
s(g2331
S'to'
p8232
tp8233
F8
s(S'This'
p8234
S'face'
p8235
tp8236
F2
s(S'do'
S'with'
tp8237
F4
s(S'us'
S'was'
p8238
tp8239
F2
s(S'until'
p8240
S'we'
tp8241
F2
s(S'him'
S'from'
tp8242
F2
s(g4922
S'flickered'
p8243
tp8244
F2.9999999999999996
s(S'arm'
S'around'
tp8245
F4
s(g6672
g7624
tp8246
F2
s(S'of'
p8247
S'cars'
p8248
tp8249
F2
s(S'a'
g553
tp8250
F2.9999999999999996
s(S'as'
p8251
g2312
tp8252
F9
s(S'I'
S'responded.'
p8253
tp8254
F2
s(S'to'
p8255
g6579
tp8256
F2
s(S'took'
S'it'
p8257
tp8258
F2
s(S'Never'
p8259
g23
tp8260
F2.9999999999999996
s(S'He'
p8261
g1168
tp8262
F2
s(g4795
S'been'
p8263
tp8264
F11
s(S'you'
g1196
tp8265
F2
s(S'way'
p8266
S'I'
tp8267
F5
s(S'and'
p8268
g2842
tp8269
F2
s(g1771
g1535
tp8270
F2
s(S'immortal'
S'children,'
p8271
tp8272
F2
s(S'when'
p8273
S'I'
tp8274
F18
s(g238
S'because'
tp8275
F2
s(S'it'
p8276
g6688
tp8277
F5.9999999999999991
s(g4202
g1862
tp8278
F2
s(S'carefully'
p8279
S'to'
tp8280
F2
s(g2133
S'hair.'
p8281
tp8282
F2
s(S'This'
p8283
S'is'
p8284
tp8285
F2
s(S'shaking'
p8286
g1262
tp8287
F2
s(g3738
S'afraid'
tp8288
F2
s(g3241
S'it'
p8289
tp8290
F4
s(g8014
g2330
tp8291
F8
s(g3929
g1393
tp8292
F2
s(S'my'
g7882
tp8293
F2.9999999999999996
s(g2957
S'your'
p8294
tp8295
F2
s(S'or'
p8296
S'the'
p8297
tp8298
F7
s(S'memory'
g831
tp8299
F2
s(S'was'
g1203
tp8300
F2.9999999999999996
s(g8107
S'of'
tp8301
F2
s(S"he'd"
p8302
S'gotten'
tp8303
F2
s(S'for'
g8001
tp8304
F11.999999999999998
s(S'My'
p8305
S'mother'
p8306
tp8307
F4
s(S'I'
S'protested.'
p8308
tp8309
F2.9999999999999996
s(S'through'
p8310
S'a'
tp8311
F2
s(S'pretty'
p8312
S'much'
p8313
tp8314
F2.9999999999999996
s(S'reached'
S'up'
tp8315
F2.9999999999999996
s(S'missed'
p8316
S'the'
p8317
tp8318
F2
s(S'my'
S'forehead,'
p8319
tp8320
F2
s(S'Charlie'
p8321
S'exploded.'
p8322
tp8323
F2
s(S'I'
S'hadn\x92t'
p8324
tp8325
F5.9999999999999991
s(S'a'
S'life'
p8326
tp8327
F2
s(S'He'
p8328
S'chuckled.'
p8329
tp8330
F2.9999999999999996
s(g2504
g2092
tp8331
F2.9999999999999996
s(g5407
S'would'
p8332
tp8333
F8
s(S'the'
S'dial.'
p8334
tp8335
F2
s(S'the'
g6016
tp8336
F2
s(S'all.'
p8337
S'I'
tp8338
F2
s(S'only'
S'kind'
tp8339
F2
s(g1019
S'to'
p8340
tp8341
F2.9999999999999996
s(g4103
S'the'
p8342
tp8343
F5
s(S'Charlie,'
g1671
tp8344
F2
s(S'she'
p8345
g425
tp8346
F2
s(g6970
S'of'
tp8347
F5
s(g4659
S'slide'
p8348
tp8349
F2
s(S'come'
p8350
S'home'
p8351
tp8352
F2
s(S'have'
g8171
tp8353
F2.9999999999999996
s(S'thought'
g8100
tp8354
F2
s(S'embarrassing'
p8355
g7734
tp8356
F2
s(S'one'
S'he'
tp8357
F2
s(S'As'
p8358
g3317
tp8359
F4
s(S'that'
S'kept'
tp8360
F2
s(S'up'
p8361
g6420
tp8362
F21
s(S'Then'
p8363
S'I'
tp8364
F4
s(S'the'
p8365
S'shock'
p8366
tp8367
F2.9999999999999996
s(S'read'
p8368
S'his'
tp8369
F2
s(g3375
S'any'
p8370
tp8371
F2.9999999999999996
s(S'Charlie,\x94'
p8372
S'Edward'
p8373
tp8374
F2
s(S'surprised'
g1668
tp8375
F2
s(S'my'
g1678
tp8376
F4
s(S'He'
p8377
S'pulled'
p8378
tp8379
F2
s(S'found'
p8380
S'a'
tp8381
F2
s(S'I'
S'answered.'
p8382
tp8383
F2
s(S'the'
S'mirror'
p8384
tp8385
F2
s(S'is'
p8386
S'going'
tp8387
F2
s(S'from'
p8388
g5448
tp8389
F32
s(g6215
S'down'
tp8390
F2
s(S'in'
p8391
S'and'
p8392
tp8393
F2
s(S'During'
p8394
S'the'
tp8395
F2
s(S'anyone'
p8396
S'but'
p8397
tp8398
F2
s(g2030
S'to'
p8399
tp8400
F7
s(S'answered,'
p8401
S'and'
tp8402
F2.9999999999999996
s(S'he'
p8403
g4824
tp8404
F44
s(S'My'
p8405
S'stomach'
p8406
tp8407
F2.9999999999999996
s(S'a'
S'big,'
p8408
tp8409
F2
s(S'the'
g3453
tp8410
F2
s(S'the'
S'kiss'
p8411
tp8412
F2
s(S'a'
S'bad'
p8413
tp8414
F2
s(S'the'
p8415
S'story'
p8416
tp8417
F2
s(S'open.'
p8418
S'I'
tp8419
F2
s(S'whether'
p8420
S'I'
tp8421
F2
s(S'He'
S'won\x92t'
p8422
tp8423
F2
s(S'we'
S'got'
tp8424
F2
s(S'"Can'
p8425
S'I'
tp8426
F2
s(S'be'
S'available'
p8427
tp8428
F2
s(S'strong'
p8429
S'and'
p8430
tp8431
F2
s(S'a'
S'human'
p8432
tp8433
F2
s(S'of'
S'Edward'
p8434
tp8435
F2
s(S'the'
S'cold'
p8436
tp8437
F2
s(g3450
g7978
tp8438
F2.9999999999999996
s(S'at'
S'Mike'
p8439
tp8440
F2
s(S'"That\'s'
p8441
S'really'
p8442
tp8443
F2
s(g1496
S'the'
tp8444
F4
s(S'seemed'
p8445
S'to'
tp8446
F10
s(S'He'
p8447
S'sighed,'
p8448
tp8449
F2
s(S'what'
S'his'
p8450
tp8451
F2.9999999999999996
s(S'your'
p8452
S'own'
p8453
tp8454
F2.9999999999999996
s(g1138
g675
tp8455
F2.9999999999999996
s(S'Alice,'
p8456
S'I'
tp8457
F2
s(g192
g5330
tp8458
F11.999999999999998
s(S'landed'
p8459
S'in'
p8460
tp8461
F2
s(S'Jamie'
p8462
S'is'
p8463
tp8464
F2.9999999999999996
s(S'know,'
g5812
tp8465
F2
s(g143
g8071
tp8466
F2
s(g3129
S'you'
p8467
tp8468
F5
s(S'entered'
p8469
g3851
tp8470
F2
s(S'them'
p8471
S'in'
p8472
tp8473
F2.9999999999999996
s(g405
g8255
tp8474
F2
s(S'of'
S'which'
tp8475
F2
s(S'he'
S'disappeared'
p8476
tp8477
F2
s(S'was'
g1346
tp8478
F5.9999999999999991
s(S'that'
g743
tp8479
F2
s(S'He'
p8480
g4862
tp8481
F2
s(S'remembered'
p8482
S'that'
tp8483
F2
s(S'thing'
S'that'
tp8484
F2
s(S'find'
g1973
tp8485
F5
s(S'the'
S'strange'
p8486
tp8487
F2
s(S'The'
p8488
S'one'
tp8489
F2
s(S'we'
p8490
S'would'
tp8491
F2
s(g7529
g2687
tp8492
F2
s(S'you'
p8493
S'seem'
tp8494
F2.9999999999999996
s(S'with'
p8495
S'our'
p8496
tp8497
F2
s(S'mine'
p8498
S'and'
p8499
tp8500
F2
s(S'we'
S'both'
p8501
tp8502
F2
s(g7659
S'look'
tp8503
F9
s(g2248
S'began'
p8504
tp8505
F2
s(S'that'
p8506
g6433
tp8507
F2
s(g4553
g3009
tp8508
F17
s(g1366
g645
tp8509
F2
s(S'the'
p8510
g6038
tp8511
F5
s(S'a'
S'little'
p8512
tp8513
F25
s(S'I'
S'hit'
p8514
tp8515
F2
s(S'his'
p8516
S'hand'
p8517
tp8518
F11.999999999999998
s(S'Rosalie,'
p8519
S'and'
tp8520
F2
s(S'the'
S'car.'
p8521
tp8522
F2
s(S'take'
S'a'
tp8523
F2.9999999999999996
s(g3145
S'small'
p8524
tp8525
F5
s(S'did'
S'they'
p8526
tp8527
F2
s(S'there'
p8528
S'was'
tp8529
F16
s(S'again,'
p8530
g756
tp8531
F5
s(S'was'
S'beautiful,'
p8532
tp8533
F2
s(g3160
g3075
tp8534
F4
s(g7943
S'hand'
p8535
tp8536
F16
s(S'food.'
p8537
S'I'
tp8538
F2
s(S'something'
p8539
S'I'
tp8540
F2
s(S'the'
g7931
tp8541
F5
s(S'my'
p8542
S'dad'
p8543
tp8544
F2
s(g6903
S'to'
tp8545
F11.999999999999998
s(S'the'
S'front'
p8546
tp8547
F9
s(S'my'
p8548
S'bag'
p8549
tp8550
F2.9999999999999996
s(g254
S'information'
p8551
tp8552
F5.9999999999999991
s(S'over'
p8553
S'to'
tp8554
F2
s(S'his'
p8555
g3611
tp8556
F2.9999999999999996
s(S'is'
p8557
g4806
tp8558
F2.9999999999999996
s(S'my'
p8559
S'teeth,'
p8560
tp8561
F2.9999999999999996
s(S'you'
p8562
g5290
tp8563
F5.9999999999999991
s(g1732
S'a'
tp8564
F2
s(S'she'
p8565
S'said.'
p8566
tp8567
F4
s(S'Kevin'
p8568
S'was'
tp8569
F2
s(g6354
g630
tp8570
F2
s(S'hands'
p8571
S'and'
tp8572
F4
s(S'I\x92ve'
p8573
g2166
tp8574
F2
s(S'people'
p8575
S'in'
tp8576
F2
s(S'to'
g1199
tp8577
F2.9999999999999996
s(S'the'
S'CD'
p8578
tp8579
F2.9999999999999996
s(S'of'
p8580
S'it.'
p8581
tp8582
F4
s(S'if'
p8583
g3002
tp8584
F2
s(S'on'
p8585
g7704
tp8586
F78
s(S'did'
p8587
S'she'
p8588
tp8589
F2.9999999999999996
s(S'up'
p8590
g2574
tp8591
F2
s(S'over'
p8592
S'the'
tp8593
F14
s(S'he'
S'thought'
p8594
tp8595
F2
s(S'the'
S'Seeker\x92s'
p8596
tp8597
F2.9999999999999996
s(S'school'
p8598
S'and'
tp8599
F2
s(S'to'
S'touch'
p8600
tp8601
F2.9999999999999996
s(S'like'
p8602
S'the'
p8603
tp8604
F13
s(S'could'
p8605
S'you'
tp8606
F2
s(g962
S'of'
tp8607
F4
s(S'that'
p8608
S"wasn't"
p8609
tp8610
F2.9999999999999996
s(S'his'
p8611
S'throat'
p8612
tp8613
F2
s(g6818
S'of'
tp8614
F2
s(g6644
S'my'
p8615
tp8616
F8
s(S'and'
p8617
S'a'
tp8618
F11.999999999999998
s(g8581
g6256
tp8619
F2.9999999999999996
s(S'the'
S"Chief's"
p8620
tp8621
F2
s(S'her'
S'friends'
p8622
tp8623
F2.9999999999999996
s(S'nodded'
S'in'
p8624
tp8625
F2
s(S'I'
g2041
tp8626
F30
s(S'each'
p8627
S'other,'
p8628
tp8629
F2
s(g2186
g6594
tp8630
F2
s(S'had'
p8631
g7897
tp8632
F2.9999999999999996
s(S'were'
p8633
S'always'
p8634
tp8635
F2
s(S'He'
p8636
S'took'
tp8637
F2
s(g2559
S'their'
tp8638
F5.9999999999999991
s(S'I'
S'was'
p8639
tp8640
F164
s(S'should'
p8641
S'be.'
p8642
tp8643
F2
s(S'she'
S'had'
p8644
tp8645
F7
s(g6821
S'she'
p8646
tp8647
F5
s(S'the'
S'other'
p8648
tp8649
F10
s(S'away.'
p8650
S'"I\'ll'
p8651
tp8652
F2
s.