(dp1
S'raining'
p2
I3
sS'yellow'
p3
I2
sS'four'
p4
I8
sS'protested,'
p5
I1
sS'hanging'
p6
I1
sS'unpleasantness,'
p7
I1
sS'increase'
p8
I1
sS'snowing'
p9
I1
sS'immature'
p10
I3
sS'innocence,'
p11
I1
sS'moonlight,'
p12
I1
sS'hibernating'
p13
I1
sS'screaming'
p14
I2
sS'prize'
p15
I1
sS'wooden'
p16
I1
sS'persisted'
p17
I1
sS'commented'
p18
I1
sS'spoken,'
p19
I1
sS'specially'
p20
I1
sS'her,'
p21
I8
sS'bacon'
p22
I1
sS'pulse'
p23
I3
sS'elegant'
p24
I1
sS'second'
p25
I11
sS'admitted,'
p26
I2
sS'scraped'
p27
I1
sS'snuggled'
p28
I1
sS'quite'
p29
I12
sS'essays,'
p30
I1
sS'thunder'
p31
I1
sS'cooking'
p32
I2
sS'fingers'
p33
I9
sS'designing'
p34
I1
sS'crouch'
p35
I2
sS'sunbeams'
p36
I1
sS'interrupting'
p37
I1
sS'here'
p38
I44
sS'reported'
p39
I2
sS'hers'
p40
I1
sS'kids'
p41
I8
sS'climbed'
p42
I3
sS'reedy,'
p43
I1
sS'finger,'
p44
I1
sS'apparently,'
p45
I1
sS'golden'
p46
I11
sS'explained'
p47
I7
sS'replace'
p48
I4
sS'brought'
p49
I7
sS'menace,'
p50
I1
sS'scarier'
p51
I1
sS'slivers'
p52
I1
sS'cheating'
p53
I1
sS'spoke'
p54
I11
sS'music'
p55
I6
sS'until'
p56
I19
sS'higher,'
p57
I1
sS'dry,'
p58
I1
sS'holy'
p59
I1
sS'relax'
p60
I3
sS'hurt'
p61
I6
sS'glass'
p62
I16
sS'hole'
p63
I1
sS'hold'
p64
I5
sS'unpack'
p65
I1
sS'brows,'
p66
I1
sS'locked'
p67
I6
sS'blade'
p68
I1
sS'plunged'
p69
I1
sS'locker'
p70
I2
sS'practicalities'
p71
I1
sS'exhale'
p72
I1
sS'example'
p73
I1
sS'en-en'
p74
I2
sS'overextend'
p75
I1
sS'want'
p76
I49
sS'statistics,'
p77
I1
sS'absolute'
p78
I2
sS'preferably'
p79
I1
sS'around,'
p80
I2
sS'groaned'
p81
I3
sS'travel'
p82
I1
sS'drying'
p83
I1
sS'damage'
p84
I1
sS'machine'
p85
I1
sS'how'
p86
I33
sS'hot'
p87
I5
sS'cheetah'
p88
I1
sS'preferable'
p89
I1
sS'backpedaled'
p90
I1
sS'beauty'
p91
I6
sS'erratic,'
p92
I1
sS'wrong'
p93
I7
sS'twined'
p94
I1
sS'pondered,'
p95
I1
sS'ice-cold,'
p96
I1
sS'calves'
p97
I1
sS'fictional'
p98
I1
sS'wink'
p99
I1
sS'beeping'
p100
I1
sS'specks'
p101
I1
sS'nonsensical'
p102
I1
sS'wind'
p103
I6
sS'sprawling'
p104
I1
sS'school,'
p105
I5
sS'dreamed'
p106
I1
sS'soothingly'
p107
I1
sS'fit'
p108
I6
sS'uncoordinated'
p109
I1
sS'fix'
p110
I2
sS'hidden'
p111
I3
sS'closed,'
p112
I1
sS'ready,'
p113
I3
sS'welcome,'
p114
I1
sS'silver'
p115
I10
sS'careful,'
p116
I1
sS'icy,'
p117
I1
sS'blushed'
p118
I3
sS'intended,'
p119
I1
sS'directly'
p120
I1
sS'bowls'
p121
I2
sS'parasites'
p122
I1
sS"we'd"
p123
I5
sS'borne'
p124
I1
sS'speed,'
p125
I1
sS'smirk'
p126
I1
sS'ponderings'
p127
I1
sS'cheerfully'
p128
I1
sS'assured'
p129
I3
sS'faculties'
p130
I1
sS'born,'
p131
I3
sS'checked'
p132
I1
sS'estimate'
p133
I1
sS'ate'
p134
I2
sS'exposing'
p135
I3
sS'centers,'
p136
I1
sS'disturbed'
p137
I1
sS'speeds'
p138
I2
sS'wash'
p139
I2
sS'spinning'
p140
I2
sS'worries,'
p141
I1
sS'bitten'
p142
I1
sS'tired'
p143
I1
sS'needed'
p144
I10
sS'master'
p145
I1
sS'listed'
p146
I1
sS'blossoms'
p147
I2
sS'legs'
p148
I4
sS'sure,'
p149
I2
sS'rummaged'
p150
I2
sS'easy,'
p151
I1
sS'frowned'
p152
I4
sS'was,'
p153
I5
sS'exultation'
p154
I1
sS'showed'
p155
I1
sS'coward'
p156
I1
sS'idly'
p157
I4
sS'shower'
p158
I1
sS'endure'
p159
I2
sS'feeling'
p160
I11
sS'old,'
p161
I4
sS'antagonistic'
p162
I1
sS'well,'
p163
I9
sS'hug'
p164
I3
sS'shrubs'
p165
I1
sS'tools,'
p166
I1
sS'person'
p167
I9
sS'responsible'
p168
I1
sS'eagerly'
p169
I3
sS'metallic'
p170
I1
sS'recommended'
p171
I1
sS'causing'
p172
I1
sS'doors'
p173
I2
sS"men's"
p174
I1
sS'shall'
p175
I1
sS'thrilled'
p176
I2
sS'object'
p177
I1
sS'mouth'
p178
I13
sS'reverence'
p179
I1
sS'long,'
p180
I3
sS'nodded,'
p181
I1
sS'door,'
p182
I11
sS'detectors'
p183
I1
sS'scream'
p184
I1
sS'came'
p185
I24
sS'saying'
p186
I5
sS'padded'
p187
I1
sS'terror,'
p188
I1
sS'gauge'
p189
I1
sS'tempted'
p190
I1
sS'recliner'
p191
I1
sS'touches'
p192
I1
sS'bush'
p193
I1
sS'touched'
p194
I7
sS'rich'
p195
I1
sS'green,'
p196
I1
sS'stammered'
p197
I1
sS'listened,'
p198
I1
sS'pocket'
p199
I3
sS'meeting,'
p200
I1
sS'lies,'
p201
I1
sS'altogether'
p202
I3
sS'tips'
p203
I2
sS'distracting'
p204
I1
sS'blanched'
p205
I1
sS'mesquites'
p206
I1
sS'eyelids'
p207
I1
sS'lurched'
p208
I1
sS'release'
p209
I1
sS'them,'
p210
I13
sS'respond'
p211
I2
sS'blew'
p212
I1
sS'fair'
p213
I6
sS'clarified'
p214
I1
sS'flaxen'
p215
I1
sS'radius'
p216
I1
sS'resigned'
p217
I2
sS'best'
p218
I11
sS'lots'
p219
I2
sS'men'
p220
I1
sS'pardoned,'
p221
I1
sS'gasps,'
p222
I1
sS'nature'
p223
I1
sS'rolled'
p224
I5
sS'smelled'
p225
I4
sS'souvenir'
p226
I1
sS'self-congratulatory'
p227
I1
sS'tendons'
p228
I1
sS'pity'
p229
I1
sS'accident'
p230
I1
sS'incense'
p231
I1
sS'drove,'
p232
I1
sS'ring,'
p233
I1
sS'planned'
p234
I1
sS'marrying'
p235
I2
sS'argue'
p236
I3
sS'adapted'
p237
I1
sS'asked'
p238
I42
sS'doubt,'
p239
I1
sS'excited,'
p240
I1
sS'money,'
p241
I1
sS'much'
p242
I62
sS'life'
p243
I17
sS'spit'
p244
I1
sS'needed,'
p245
I2
sS'wish'
p246
I8
sS'places'
p247
I1
sS'blond,'
p248
I1
sS'child'
p249
I5
sS'worked'
p250
I11
sS'spin'
p251
I4
sS'chill'
p252
I1
sS'contemplated'
p253
I2
sS'angry,'
p254
I3
sS'tried,'
p255
I1
sS'professionally'
p256
I1
sS'remembering'
p257
I4
sS'played'
p258
I1
sS'trees,'
p259
I1
sS'stiff,'
p260
I1
sS'player'
p261
I1
sS'eighteen'
p262
I5
sS'south,'
p263
I1
sS'said,'
p264
I21
sS'damaged'
p265
I4
sS'credit'
p266
I3
sS'things'
p267
I34
sS'harmony'
p268
I1
sS'passed,'
p269
I3
sS'fairly'
p270
I3
sS'effortlessly'
p271
I1
sS'middle-aged'
p272
I2
sS'echoed'
p273
I1
sS'thing,'
p274
I3
sS"subject's"
p275
I1
sS'opinions'
p276
I1
sS'bush,'
p277
I1
sS'sleepy'
p278
I1
sS'succeeding'
p279
I1
sS'ease'
p280
I5
sS'step,'
p281
I1
sS'had'
p282
I248
sS'innocent'
p283
I2
sS'har'
p284
I1
sS'has'
p285
I9
sS'disagreement'
p286
I2
sS'possible'
p287
I8
sS'possibly'
p288
I1
sS'not-quite-so-gentle'
p289
I1
sS'clustered'
p290
I1
sS'unique'
p291
I1
sS'desire'
p292
I4
sS'ha,'
p293
I1
sS'remind'
p294
I1
sS'steps'
p295
I3
sS'right'
p296
I35
sS'old'
p297
I18
sS'crowd'
p298
I4
sS'people'
p299
I18
sS'macabre'
p300
I1
sS'crown'
p301
I2
sS'commonplace'
p302
I1
sS'left,'
p303
I1
sS'shoelaces,'
p304
I1
sS'for'
p305
I245
sS'bottom'
p306
I2
sS'creative'
p307
I1
sS'fog'
p308
I1
sS'binder'
p309
I1
sS'shifting'
p310
I2
sS'defensive'
p311
I2
sS'losing'
p312
I2
sS'chain-link'
p313
I1
sS'despair'
p314
I2
sS'um,'
p315
I1
sS'slightly'
p316
I3
sS'raised'
p317
I12
sS'gauze'
p318
I2
sS'facility'
p319
I2
sS'material'
p320
I1
sS'honeymoon'
p321
I3
sS'son'
p322
I1
sS'shoots'
p323
I1
sS'eagerly,'
p324
I2
sS'fabric'
p325
I2
sS'constantly'
p326
I1
sS'civilized,'
p327
I1
sS'happy'
p328
I6
sS'offer'
p329
I1
sS'so,'
p330
I2
sS'back'
p331
I79
sS'kiss,'
p332
I1
sS'paneled'
p333
I1
sS"else's"
p334
I3
sS'inside'
p335
I17
sS'nicest'
p336
I2
sS'mighty'
p337
I1
sS'passenger'
p338
I3
sS'later'
p339
I6
sS'passenget'
p340
I1
sS'proves'
p341
I1
sS'exist'
p342
I3
sS'protested'
p343
I5
sS'floor'
p344
I14
sS'themicroscope'
p345
I1
sS'flood'
p346
I1
sS'role'
p347
I1
sS'smell'
p348
I9
sS'roll'
p349
I4
sS'palms'
p350
I1
sS'intent'
p351
I1
sS'smelling'
p352
I1
sS'rolling'
p353
I1
sS'fastened'
p354
I1
sS'sniffed'
p355
I2
sS'time'
p356
I53
sS'push'
p357
I1
sS'gown'
p358
I1
sS'stay,'
p359
I1
sS'chair'
p360
I6
sS'uneven'
p361
I1
sS'bridesmaid'
p362
I1
sS'cook,'
p363
I1
sS'jerk'
p364
I1
sS'choice'
p365
I8
sS'gloomy'
p366
I1
sS'mourn'
p367
I1
sS'child,'
p368
I1
sS'sun-browned'
p369
I1
sS'minute'
p370
I8
sS'poor,'
p371
I1
sS'tear'
p372
I3
sS'leave'
p373
I3
sS'settle'
p374
I1
sS'team'
p375
I2
sS'unaware'
p376
I1
sS'meadow'
p377
I1
sS'sigh'
p378
I2
sS'forty-year-olds'
p379
I2
sS'steaks'
p380
I1
sS'carpet,'
p381
I1
sS'current'
p382
I1
sS'bizarre,'
p383
I1
sS'pretty,'
p384
I1
sS'grandparents'
p385
I2
sS'understanding'
p386
I1
sS'tickets,'
p387
I1
sS'alone'
p388
I17
sS'along'
p389
I10
sS'brilliant'
p390
I8
sS'studied'
p391
I6
sS'wherever'
p392
I3
sS'concealed'
p393
I1
sS'love'
p394
I11
sS'prefer'
p395
I4
sS'bloody'
p396
I1
sS'packages,'
p397
I1
sS'red'
p398
I10
sS'working'
p399
I1
sS'positive'
p400
I2
sS'angry'
p401
I2
sS'tightly'
p402
I6
sS'filmy'
p403
I1
sS'opposed'
p404
I1
sS'wondering'
p405
I3
sS'almostsmug'
p406
I1
sS'adorable,'
p407
I1
sS'loving'
p408
I1
sS'scratched'
p409
I1
sS'introducing'
p410
I1
sS'afford'
p411
I1
sS'apparent'
p412
I1
sS'everywhere'
p413
I3
sS'blood,'
p414
I1
sS'deserved'
p415
I1
sS'film,'
p416
I1
sS'pretend'
p417
I1
sS'values'
p418
I1
sS'following'
p419
I2
sS'detached'
p420
I1
sS'sheeting'
p421
I2
sS'admired'
p422
I1
sS'mirrors'
p423
I1
sS'locks'
p424
I1
sS'graduation'
p425
I1
sS'allowed'
p426
I8
sS'scent,'
p427
I1
sS'winter'
p428
I1
sS'groceries,'
p429
I1
sS'listen,'
p430
I1
sS'hide,'
p431
I1
sS'spot'
p432
I1
sS'convincingly'
p433
I2
sS'horrified,'
p434
I1
sS'mirror,'
p435
I1
sS'such'
p436
I11
sS'suck'
p437
I2
sS'filthy'
p438
I1
sS'lids'
p439
I1
sS't-shirt,'
p440
I1
sS'natural'
p441
I1
sS'conscious'
p442
I3
sS'wheelchair'
p443
I1
sS'so'
p444
I135
sS'garlands'
p445
I1
sS'truce'
p446
I1
sS'pulled'
p447
I29
sS'scents'
p448
I1
sS'sporty,'
p449
I1
sS'kayaks'
p450
I1
sS'flips'
p451
I1
sS'years'
p452
I21
sS'course'
p453
I19
sS'experiments'
p454
I1
sS'deity'
p455
I1
sS'tendency'
p456
I1
sS'tore'
p457
I4
sS'embellishments'
p458
I1
sS'limbs'
p459
I2
sS'did,'
p460
I2
sS'sixties'
p461
I1
sS'voiced'
p462
I2
sS'creations'
p463
I1
sS'suspicion'
p464
I2
sS'revulsion'
p465
I3
sS'dead,'
p466
I2
sS'somehow,'
p467
I2
sS'mused'
p468
I2
sS'matches'
p469
I1
sS'year,'
p470
I2
sS'compelled'
p471
I2
sS'arriving'
p472
I1
sS'sorted'
p473
I1
sS'framed'
p474
I1
sS'twilight'
p475
I1
sS'maintaining'
p476
I1
sS'wrote'
p477
I1
sS'next,'
p478
I1
sS'instability'
p479
I1
sS"nurse's"
p480
I1
sS'stalling'
p481
I1
sS'square'
p482
I5
sS'graduated,'
p483
I1
sS'entering'
p484
I3
sS'curb,'
p485
I1
sS'small,'
p486
I4
sS'canvas'
p487
I1
sS'squared'
p488
I1
sS'wanderer,'
p489
I1
sS'seriously'
p490
I1
sS'trauma'
p491
I3
sS'inconspicuously'
p492
I1
sS'facedown'
p493
I1
sS'million'
p494
I3
sS'seventh'
p495
I1
sS'food,'
p496
I3
sS'bumps'
p497
I2
sS'complicated'
p498
I1
sS'besides'
p499
I4
sS'silhouetted'
p500
I1
sS'emotion'
p501
I5
sS'saving'
p502
I2
sS'anymore,'
p503
I1
sS'spoken'
p504
I3
sS'one'
p505
I129
sS'open'
p506
I22
sS'uncrossable'
p507
I1
sS'disrespect,'
p508
I1
sS'bite'
p509
I2
sS'waist'
p510
I4
sS'twenties'
p511
I1
sS'stuffed'
p512
I1
sS'bits'
p513
I1
sS'on,'
p514
I6
sS'much,'
p515
I1
sS'ridiculous'
p516
I2
sS'mumbled,'
p517
I1
sS'boyfriend'
p518
I1
sS'depressed'
p519
I1
sS'biohazard'
p520
I1
sS'coats'
p521
I1
sS'future'
p522
I5
sS'glossy'
p523
I1
sS'cavalier'
p524
I1
sS'wandering'
p525
I1
sS'damned'
p526
I1
sS'tasted'
p527
I2
sS'turned'
p528
I28
sS'argument'
p529
I4
sS'sad'
p530
I2
sS'say'
p531
I18
sS'buried'
p532
I1
sS'saw'
p533
I20
sS'sat'
p534
I19
sS'elongating'
p535
I1
sS'aside'
p536
I4
sS'note'
p537
I2
sS'take'
p538
I26
sS'wanting'
p539
I1
sS'blinding'
p540
I4
sS'atop'
p541
I2
sS"teacher's"
p542
I1
sS'handing'
p543
I2
sS'opposite'
p544
I1
sS'knew'
p545
I43
sS'talk'
p546
I5
sS'nice,'
p547
I1
sS'knee'
p548
I1
sS'inserted'
p549
I1
sS'pages'
p550
I1
sS'average'
p551
I2
sS'drive'
p552
I6
sS'crooked'
p553
I2
sS'something,'
p554
I2
sS'jittery'
p555
I1
sS'not,'
p556
I4
sS'walking'
p557
I6
sS'murmurs'
p558
I2
sS'clan,'
p559
I1
sS'bright'
p560
I7
sS'aggressive'
p561
I1
sS'imagined'
p562
I4
sS'slow'
p563
I4
sS'brooding,'
p564
I1
sS'outside'
p565
I9
sS'tears'
p566
I4
sS'going'
p567
I35
sS'outrage'
p568
I1
sS'blinds'
p569
I2
sS'guarded'
p570
I1
sS'usual,'
p571
I1
sS'assistant'
p572
I2
sS'lucidity'
p573
I1
sS'awkwardly,'
p574
I1
sS'blind,'
p575
I1
sS'borrow'
p576
I1
sS'worried'
p577
I8
sS'fenders'
p578
I1
sS'worries'
p579
I1
sS'uncover'
p580
I1
sS'where'
p581
I29
sS'vision'
p582
I2
sS'smooth,'
p583
I1
sS'job,'
p584
I2
sS'jumped'
p585
I2
sS'spartan'
p586
I1
sS'supermarket'
p587
I1
sS'concentrate'
p588
I3
sS'awards'
p589
I1
sS'graceful,'
p590
I1
sS'menacing'
p591
I1
sS'suppressed'
p592
I1
sS'concentrated'
p593
I5
sS'many'
p594
I19
sS'flipped'
p595
I2
sS'loudly'
p596
I4
sS'expression'
p597
I15
sS'backpack'
p598
I1
sS"can't"
p599
I22
sS'caring'
p600
I1
sS'unconsciousness'
p601
I1
sS'west'
p602
I1
sS'vacation'
p603
I1
sS'breath'
p604
I16
sS'reflective'
p605
I1
sS'reflex'
p606
I1
sS'virtuous,'
p607
I1
sS'wants'
p608
I2
sS'panic,'
p609
I1
sS'gist'
p610
I1
sS"actor's"
p611
I1
sS'thousand'
p612
I9
sS'formed'
p613
I1
sS'turtleneck'
p614
I1
sS'observe'
p615
I1
sS'queasy'
p616
I2
sS'easier'
p617
I1
sS'squeezed'
p618
I2
sS'situation'
p619
I3
sS'endured'
p620
I1
sS'spotlight'
p621
I2
sS'twists'
p622
I2
sS'edge,'
p623
I1
sS'graceful'
p624
I4
sS'plate-glass'
p625
I1
sS'threatens'
p626
I1
sS'raining,'
p627
I1
sS'edged'
p628
I3
sS'sickness'
p629
I1
sS'bulletproof'
p630
I1
sS'edges'
p631
I2
sS"host's"
p632
I3
sS'squeamishness'
p633
I1
sS'few,'
p634
I1
sS'tracking'
p635
I1
sS'summer'
p636
I5
sS'sprayed'
p637
I1
sS'being'
p638
I20
sS'exaggerating'
p639
I1
sS'rest'
p640
I18
sS'blondes'
p641
I1
sS'deceiving'
p642
I1
sS'color'
p643
I12
sS'loudly,'
p644
I3
sS'strange,'
p645
I1
sS'around'
p646
I57
sS'dark'
p647
I13
sS'traffic'
p648
I3
sS'bandage'
p649
I3
sS'sorry,'
p650
I4
sS'world'
p651
I10
sS'dare'
p652
I2
sS'stranger'
p653
I1
sS'paused,'
p654
I1
sS'full-scale'
p655
I1
sS'claw'
p656
I1
sS'blonde,'
p657
I1
sS'compassionate,'
p658
I1
sS'divine'
p659
I1
sS'thinks'
p660
I1
sS'memories'
p661
I6
sS'exit'
p662
I1
sS'dimples'
p663
I1
sS'unsuccessfully'
p664
I1
sS'think,'
p665
I3
sS'waited,'
p666
I1
sS'power'
p667
I2
sS'shushed'
p668
I2
sS'fished'
p669
I1
sS'stone'
p670
I3
sS'origins'
p671
I1
sS'favorite'
p672
I6
sS'slender'
p673
I2
sS'neighbor'
p674
I4
sS'act'
p675
I1
sS'doodling'
p676
I1
sS'luck'
p677
I4
sS'fervently'
p678
I1
sS'burning'
p679
I4
sS'image'
p680
I2
sS'forehead,'
p681
I3
sS'agreed,'
p682
I1
sS'parties'
p683
I1
sS'pivot'
p684
I1
sS'continent,'
p685
I1
sS'her'
p686
I169
sS'gleam'
p687
I2
sS'sealed'
p688
I1
sS'obvious,'
p689
I1
sS'complete'
p690
I3
sS'survived'
p691
I1
sS'with'
p692
I265
sS'buying'
p693
I1
sS"they're"
p694
I10
sS'rush'
p695
I3
sS'detachment,'
p696
I1
sS'ruse'
p697
I1
sS"sisters'"
p698
I2
sS'dirty'
p699
I1
sS'mopping'
p700
I1
sS'breathing,'
p701
I2
sS'torso'
p702
I1
sS'agree'
p703
I4
sS'rust'
p704
I1
sS'darker'
p705
I4
sS'gone'
p706
I18
sS'citizenship'
p707
I1
sS'exhausted'
p708
I1
sS'certain'
p709
I1
sS'awry'
p710
I1
sS'am'
p711
I15
sS'an'
p712
I84
sS'as'
p713
I281
sS'carved'
p714
I2
sS'fumbling'
p715
I1
sS'watched'
p716
I8
sS'no-vomiting'
p717
I1
sS'cream'
p718
I2
sS'tight'
p719
I3
sS'discussed,'
p720
I1
sS'forgot'
p721
I4
sS'gifts'
p722
I5
sS'sheepishly'
p723
I1
sS'brotherhood'
p724
I1
sS'cabinets,'
p725
I1
sS'snagged'
p726
I1
sS'someone,'
p727
I1
sS'thorn'
p728
I1
sS'groom'
p729
I1
sS'respectable,'
p730
I1
sS'impossibility'
p731
I1
sS'cheekbones,'
p732
I1
sS'finally,'
p733
I1
sS'consider'
p734
I1
sS'caused'
p735
I2
sS'instincts'
p736
I1
sS'debris'
p737
I1
sS'sister-in-law-to-be'
p738
I1
sS'reasoning'
p739
I2
sS'causes'
p740
I1
sS'content'
p741
I1
sS'hunting'
p742
I1
sS'millimeter,'
p743
I1
sS'dressing'
p744
I3
sS'smile'
p745
I16
sS'adapt'
p746
I1
sS'paying'
p747
I1
sS'overpowered'
p748
I1
sS'swallows'
p749
I1
sS'floated'
p750
I1
sS'condition'
p751
I1
sS'accompanying'
p752
I1
sS'joined'
p753
I1
sS'large'
p754
I3
sS'sand'
p755
I1
sS'sane'
p756
I1
sS'progressed,'
p757
I1
sS'small'
p758
I27
sS'hour,'
p759
I1
sS'past'
p760
I12
sS'pass'
p761
I1
sS'lifted,'
p762
I1
sS'contrast'
p763
I1
sS'full'
p764
I12
sS'hours'
p765
I3
sS'buzzing'
p766
I1
sS'yellowed'
p767
I1
sS'contrastingly'
p768
I1
sS'experience'
p769
I5
sS'yourself,'
p770
I3
sS'healthier'
p771
I1
sS'pick'
p772
I1
sS'action'
p773
I1
sS'sweetness'
p774
I1
sS"day's"
p775
I1
sS'followed'
p776
I7
sS'plink'
p777
I2
sS'strolling'
p778
I1
sS'conspiratorial'
p779
I1
sS'pulls'
p780
I1
sS'flowers,'
p781
I2
sS'fragrance'
p782
I1
sS'gorgeous'
p783
I1
sS'withered,'
p784
I1
sS'helps'
p785
I2
sS'fast-forwarding'
p786
I1
sS'door'
p787
I44
sS'company'
p788
I1
sS'corrected'
p789
I3
sS'doom'
p790
I2
sS'keeping'
p791
I7
sS'installing'
p792
I1
sS'sent'
p793
I3
sS'learn'
p794
I2
sS'knocked'
p795
I2
sS'male'
p796
I3
sS'beautiful'
p797
I15
sS'stated'
p798
I1
sS'accept'
p799
I1
sS'fiercely'
p800
I1
sS'sense'
p801
I12
sS'scar'
p802
I3
sS'dress'
p803
I6
sS'huge'
p804
I7
sS'dismissed'
p805
I1
sS'glowing'
p806
I2
sS'hugs'
p807
I1
sS'messy,'
p808
I1
sS'creature'
p809
I2
sS'never,'
p810
I3
sS'plant'
p811
I1
sS'plans'
p812
I3
sS'plane'
p813
I6
sS'waves'
p814
I2
sS'firsthand,'
p815
I1
sS'twisting'
p816
I2
sS'pucker'
p817
I1
sS'volleyball'
p818
I2
sS'wrench'
p819
I2
sS'deafening'
p820
I1
sS'patio'
p821
I2
sS'bowl'
p822
I3
sS'expecting,'
p823
I1
sS'attitude'
p824
I1
sS'paper'
p825
I5
sS'smiling'
p826
I9
sS'its'
p827
I22
sS'imaginings'
p828
I1
sS'rapidly'
p829
I1
sS'course,'
p830
I13
sS'truth,'
p831
I1
sS'tentatively'
p832
I1
sS'it,'
p833
I17
sS'skipped'
p834
I6
sS'sign,'
p835
I2
sS'snowball'
p836
I2
sS'skipper'
p837
I1
sS'great,'
p838
I1
sS'reassured'
p839
I1
sS'always'
p840
I22
sS'all,'
p841
I6
sS'found'
p842
I18
sS'status'
p843
I1
sS'begged'
p844
I1
sS'upstairs'
p845
I4
sS'bouquets'
p846
I2
sS'operation'
p847
I1
sS'electrical,'
p848
I1
sS'really'
p849
I30
sS'try'
p850
I14
sS'psychology'
p851
I1
sS'mattered'
p852
I2
sS'highway'
p853
I2
sS'nervously'
p854
I2
sS'blue,'
p855
I3
sS'murmur'
p856
I1
sS'imagine'
p857
I10
sS'rises'
p858
I1
sS'reproach'
p859
I1
sS'reaction,'
p860
I1
sS'attention,'
p861
I2
sS'carry-on'
p862
I1
sS"woman's"
p863
I5
sS'black,'
p864
I3
sS'contingency'
p865
I1
sS'engagement'
p866
I1
sS'gazed'
p867
I1
sS'rooted'
p868
I1
sS'gazes'
p869
I1
sS'three-seat'
p870
I1
sS'guess'
p871
I6
sS'heads'
p872
I2
sS'guest'
p873
I1
sS'other,'
p874
I2
sS'omnipresent'
p875
I1
sS'professional-looking'
p876
I1
sS'erupted'
p877
I1
sS'hyperventilating'
p878
I1
sS'first,'
p879
I4
sS'relationship'
p880
I1
sS'gaze,'
p881
I2
sS'immediate'
p882
I1
sS'cheekbones'
p883
I1
sS'two-bedroom'
p884
I1
sS'forward,'
p885
I1
sS'stifle'
p886
I1
sS'stairs'
p887
I5
sS'critically'
p888
I1
sS'determined'
p889
I1
sS'marriage'
p890
I8
sS'effortlessly,'
p891
I1
sS'hot,'
p892
I1
sS'insertion'
p893
I3
sS'blond'
p894
I4
sS'sell'
p895
I1
sS'amusement,'
p896
I1
sS'permanence'
p897
I1
sS'odd'
p898
I3
sS'wish,'
p899
I1
sS'silvery'
p900
I1
sS'also'
p901
I10
sS'brace'
p902
I1
sS'play'
p903
I5
sS'firsthand'
p904
I1
sS'swiftly'
p905
I4
sS'nasal'
p906
I1
sS'unused'
p907
I1
sS'honey,'
p908
I2
sS'refrigerator,'
p909
I1
sS'accepting'
p910
I1
sS'bustled'
p911
I1
sS'moss,'
p912
I1
sS'pliable'
p913
I1
sS'sometimes'
p914
I4
sS'cover'
p915
I5
sS'artistic'
p916
I1
sS'barren'
p917
I1
sS'silver,'
p918
I1
sS'strawberries,'
p919
I1
sS'dragged'
p920
I2
sS'cruiser'
p921
I5
sS'cursorily'
p922
I1
sS'overwhelmed'
p923
I2
sS'occupation'
p924
I3
sS'impact'
p925
I1
sS'failed'
p926
I4
sS'alive,'
p927
I2
sS'sunny'
p928
I1
sS"they'd"
p929
I6
sS'synchronization'
p930
I1
sS'closely'
p931
I1
sS'frightening'
p932
I2
sS'shouts'
p933
I1
sS'pleasures'
p934
I1
sS'cry'
p935
I3
sS'harebrained'
p936
I1
sS'obscure'
p937
I1
sS'river'
p938
I2
sS'morphed'
p939
I2
sS'insane'
p940
I1
sS'delicately'
p941
I1
sS'set'
p942
I8
sS'overwhelm'
p943
I1
sS'stronger,'
p944
I1
sS'see'
p945
I67
sS'overboard'
p946
I2
sS'unsettling'
p947
I1
sS'muted'
p948
I2
sS'movie'
p949
I5
sS'currently'
p950
I1
sS'girl,'
p951
I2
sS'monsters'
p952
I1
sS'throat-clearing'
p953
I2
sS'knowing'
p954
I6
sS'loose-fitting'
p955
I1
sS'untouched'
p956
I1
sS'incident'
p957
I1
sS'smoldering'
p958
I1
sS'pagan'
p959
I1
sS'last'
p960
I29
sS'barely'
p961
I9
sS"we've"
p962
I2
sS'whole'
p963
I12
sS'load'
p964
I1
sS'volcanic'
p965
I1
sS'town,'
p966
I2
sS'bell'
p967
I3
sS'acted'
p968
I1
sS'race,'
p969
I2
sS'hollow'
p970
I1
sS'adjoining'
p971
I1
sS'church'
p972
I1
sS'belt'
p973
I1
sS'worthless'
p974
I1
sS'acceptance'
p975
I2
sS'firm'
p976
I2
sS'resting'
p977
I1
sS'high-pitched'
p978
I1
sS'fire'
p979
I1
sS"what's"
p980
I2
sS'fund'
p981
I1
sS'awake'
p982
I1
sS'wheeled'
p983
I2
sS'straight'
p984
I8
sS'admire'
p985
I2
sS'pressed'
p986
I11
sS'leaning'
p987
I4
sS'kissing'
p988
I2
sS'brawny'
p989
I1
sS'hoping'
p990
I9
sS'agitation'
p991
I1
sS'waist,'
p992
I2
sS'binding'
p993
I1
sS'sighed,'
p994
I6
sS'beautifully'
p995
I1
sS'pheromone-riddled'
p996
I1
sS'funny'
p997
I1
sS'starlight'
p998
I1
sS'choking'
p999
I1
sS'playfulness,'
p1000
I1
sS'shorter'
p1001
I4
sS'rules'
p1002
I2
sS'virtually'
p1003
I1
sS'affairs'
p1004
I3
sS'flooded'
p1005
I1
sS'alert'
p1006
I1
sS'stack'
p1007
I1
sS'inches,'
p1008
I2
sS'concrete'
p1009
I1
sS'yet,'
p1010
I2
sS'politely'
p1011
I1
sS'red-haired'
p1012
I2
sS'salve'
p1013
I1
sS'surprises'
p1014
I1
sS'parents'
p1015
I3
sS'location'
p1016
I1
sS'crying'
p1017
I4
sS'surprised'
p1018
I11
sS'emergency'
p1019
I2
sS'couple'
p1020
I4
sS'fidgeting,'
p1021
I1
sS'suffering'
p1022
I1
sS'clutched'
p1023
I1
sS'baskets'
p1024
I1
sS'towel'
p1025
I1
sS'formal'
p1026
I2
sS'spine'
p1027
I2
sS'chorus'
p1028
I1
sS'surprise,'
p1029
I1
sS'spins'
p1030
I1
sS'spring'
p1031
I2
sS'palm'
p1032
I3
sS'sight'
p1033
I4
sS'curious'
p1034
I4
sS'sprint'
p1035
I2
sS'pale'
p1036
I10
sS'momentary'
p1037
I1
sS'literally,'
p1038
I1
sS'twinkle'
p1039
I2
sS'cupped'
p1040
I1
sS'behave'
p1041
I1
sS'odor'
p1042
I1
sS'agreement'
p1043
I1
sS'sigh,'
p1044
I1
sS'nowhere'
p1045
I1
sS'by'
p1046
I83
sS'anything'
p1047
I29
sS'elbows,and'
p1048
I1
sS'wrinkles'
p1049
I1
sS'deserves'
p1050
I3
sS'dramatically,'
p1051
I1
sS'wrinkled'
p1052
I2
sS'pursed,'
p1053
I1
sS'hometown'
p1054
I1
sS'into'
p1055
I113
sS'appropriate'
p1056
I3
sS'tall,'
p1057
I1
sS'unnerving'
p1058
I1
sS'span'
p1059
I1
sS'joking'
p1060
I1
sS'harnessed'
p1061
I1
sS'spending'
p1062
I3
sS'specifically'
p1063
I2
sS'lithe'
p1064
I1
sS'suit'
p1065
I4
sS'creosote'
p1066
I1
sS'self-conscious,'
p1067
I2
sS'rhetorical'
p1068
I1
sS'inches'
p1069
I2
sS'relaxed'
p1070
I9
sS'hiya,'
p1071
I1
sS'line'
p1072
I14
sS'open,'
p1073
I4
sS'up'
p1074
I121
sS'us'
p1075
I43
sS'mature'
p1076
I1
sS'faded'
p1077
I3
sS'alarm'
p1078
I1
sS'side,'
p1079
I5
sS'reconcile'
p1080
I1
sS'pencil'
p1081
I2
sS'raging'
p1082
I1
sS'fans,'
p1083
I1
sS'lost,'
p1084
I2
sS'skimming'
p1085
I1
sS'settled,'
p1086
I3
sS'beginning,'
p1087
I1
sS'definitely'
p1088
I2
sS'sedated,'
p1089
I1
sS'hell,'
p1090
I1
sS'faintly'
p1091
I1
sS'sides'
p1092
I1
sS'ago'
p1093
I4
sS'frozen,'
p1094
I1
sS'lane'
p1095
I1
sS'holey'
p1096
I1
sS'pedestrians'
p1097
I1
sS'age'
p1098
I2
sS'walked'
p1099
I31
sS'fresh'
p1100
I1
sS'having'
p1101
I5
sS'dealers,'
p1102
I1
sS'partial'
p1103
I1
sS'scooped'
p1104
I3
sS'softer'
p1105
I2
sS'gloomy,'
p1106
I1
sS'amiss'
p1107
I1
sS'gossip'
p1108
I2
sS'shrugged'
p1109
I3
sS'seemed'
p1110
I28
sS'concerned'
p1111
I2
sS'young'
p1112
I5
sS'send'
p1113
I3
sS'contours'
p1114
I1
sS'dislike'
p1115
I1
sS'resources'
p1116
I1
sS'stocked'
p1117
I1
sS'torture'
p1118
I1
sS'waters,'
p1119
I1
sS'continued'
p1120
I12
sS'wipe'
p1121
I1
sS'thoughtfully,'
p1122
I1
sS'detested'
p1123
I1
sS'glee,'
p1124
I1
sS'marry'
p1125
I2
sS"they've"
p1126
I2
sS'anxious'
p1127
I3
sS'cheap,'
p1128
I1
sS'bruise-like'
p1129
I1
sS'disheveled'
p1130
I1
sS"car's"
p1131
I1
sS'recruitment'
p1132
I1
sS'acclimating'
p1133
I1
sS'video'
p1134
I1
sS'enclosed'
p1135
I1
sS'pajamas'
p1136
I1
sS'that,'
p1137
I14
sS'sweats'
p1138
I1
sS'unknowns'
p1139
I1
sS'staying,'
p1140
I1
sS'twins'
p1141
I2
sS'flowing'
p1142
I1
sS'scenery'
p1143
I1
sS'led'
p1144
I1
sS'leg'
p1145
I1
sS'answered,'
p1146
I4
sS'unease'
p1147
I1
sS'let'
p1148
I35
sS'fifteen'
p1149
I1
sS'great'
p1150
I10
sS'receive'
p1151
I1
sS'involved'
p1152
I2
sS'surfacing,'
p1153
I1
sS'opinion'
p1154
I2
sS'makes'
p1155
I7
sS'panicked'
p1156
I4
sS'sienna'
p1157
I1
sS'standing'
p1158
I7
sS'confidence'
p1159
I3
sS'dreams,'
p1160
I1
sS'illegal'
p1161
I1
sS'theme'
p1162
I1
sS'next'
p1163
I20
sS'doubt'
p1164
I7
sS'turned,'
p1165
I1
sS'ball,'
p1166
I1
sS'box,'
p1167
I2
sS'turnoff'
p1168
I1
sS'occurred'
p1169
I1
sS'sharply'
p1170
I1
sS'baby'
p1171
I3
sS'gladly'
p1172
I1
sS'balls'
p1173
I1
sS'this'
p1174
I144
sS'athlete'
p1175
I1
sS'cherubic'
p1176
I1
sS'minister,'
p1177
I1
sS'thin'
p1178
I2
sS'high,'
p1179
I1
sS'slid'
p1180
I5
sS'bent'
p1181
I4
sS'process'
p1182
I2
sS'lock'
p1183
I2
sS'pieces'
p1184
I2
sS'high'
p1185
I2
sS'slip'
p1186
I5
sS'martyr'
p1187
I1
sS'weaken'
p1188
I1
sS'class,'
p1189
I6
sS'volunteer,'
p1190
I1
sS'mumbled'
p1191
I4
sS'pair'
p1192
I2
sS'tied'
p1193
I3
sS'notebook'
p1194
I1
sS'tomato'
p1195
I1
sS'pale,'
p1196
I2
sS'realized'
p1197
I7
sS'noises'
p1198
I3
sS'reminders'
p1199
I1
sS'realizes'
p1200
I2
sS'counted'
p1201
I1
sS'cushion'
p1202
I1
sS'move'
p1203
I4
sS'produced'
p1204
I1
sS'existence,'
p1205
I1
sS'perfect'
p1206
I13
sS'chosen'
p1207
I1
sS'shudder'
p1208
I1
sS'degrees'
p1209
I2
sS'hobby'
p1210
I1
sS'foolish,'
p1211
I1
sS'kiss'
p1212
I5
sS'cage'
p1213
I1
sS'realize'
p1214
I10
sS'wallowing'
p1215
I1
sS'traced'
p1216
I4
sS'lotof'
p1217
I1
sS'truth'
p1218
I3
sS'beneath'
p1219
I6
sS'traces'
p1220
I1
sS'glasses'
p1221
I1
sS'doing'
p1222
I14
sS'books'
p1223
I1
sS'irritation'
p1224
I2
sS'jagged'
p1225
I1
sS'tenth'
p1226
I1
sS'wander'
p1227
I1
sS'dismissal'
p1228
I1
sS'pony-tail,'
p1229
I1
sS'bad'
p1230
I11
sS'shut'
p1231
I3
sS'book,'
p1232
I1
sS'inhaling'
p1233
I1
sS'thrust'
p1234
I1
sS'embarrass'
p1235
I1
sS'bothered'
p1236
I3
sS'steering'
p1237
I1
sS'met,'
p1238
I2
sS'rainiest'
p1239
I2
sS'things,'
p1240
I2
sS'spill'
p1241
I1
sS'could'
p1242
I133
sS'length'
p1243
I1
sS'repeats'
p1244
I1
sS'latched'
p1245
I1
sS'lunchroom,'
p1246
I1
sS'anyone,'
p1247
I1
sS'yells'
p1248
I1
sS'scene'
p1249
I2
sS'soothing'
p1250
I1
sS'blows'
p1251
I1
sS'scent'
p1252
I6
sS'interest,'
p1253
I1
sS'decorations'
p1254
I3
sS'behaved'
p1255
I1
sS'painful'
p1256
I1
sS'stomach'
p1257
I15
sS'stars'
p1258
I1
sS'later,'
p1259
I3
sS'bother'
p1260
I4
sS'goodnight'
p1261
I1
sS'extraordinarily'
p1262
I1
sS'negatively'
p1263
I1
sS'counter'
p1264
I1
sS'false'
p1265
I2
sS'gently'
p1266
I5
sS'bad-tempered'
p1267
I1
sS'reassuring'
p1268
I2
sS'tonight'
p1269
I7
sS'gentle'
p1270
I3
sS'scanned,'
p1271
I1
sS'clearly'
p1272
I16
sS'viewed'
p1273
I1
sS'ganged'
p1274
I1
sS'scrap-book,'
p1275
I1
sS'documents'
p1276
I1
sS'dishes'
p1277
I3
sS'studying'
p1278
I1
sS'awed'
p1279
I1
sS'claw,'
p1280
I1
sS'warily'
p1281
I3
sS'petals'
p1282
I1
sS'courtesy'
p1283
I1
sS'lunch,'
p1284
I3
sS'device'
p1285
I1
sS'segment'
p1286
I1
sS'fervent'
p1287
I1
sS'stronger'
p1288
I2
sS'face'
p1289
I64
sS"you'll"
p1290
I6
sS'fact'
p1291
I11
sS'bring'
p1292
I4
sS'bedroom'
p1293
I1
sS'mean,'
p1294
I3
sS'rough'
p1295
I2
sS'trivial'
p1296
I1
sS'brink'
p1297
I1
sS'trying'
p1298
I27
sS'jaw'
p1299
I5
sS'jar'
p1300
I1
sS'should'
p1301
I25
sS'jag'
p1302
I1
sS'flinch'
p1303
I1
sS'smug,'
p1304
I1
sS'hope'
p1305
I8
sS'meant'
p1306
I13
sS'insight'
p1307
I1
sS'handle'
p1308
I7
sS'sweetie'
p1309
I4
sS'listened'
p1310
I3
sS"species'"
p1311
I1
sS'familiar'
p1312
I7
sS'lucky'
p1313
I6
sS'stuff'
p1314
I1
sS'rein'
p1315
I1
sS'are,'
p1316
I1
sS'guessing'
p1317
I3
sS'pronoun'
p1318
I1
sS'goading'
p1319
I1
sS'frame'
p1320
I2
sS'slanted'
p1321
I1
sS'once,'
p1322
I5
sS'end,'
p1323
I2
sS'packed'
p1324
I1
sS'wire'
p1325
I1
sS'cloudless'
p1326
I1
sS'exactly,'
p1327
I2
sS'ends'
p1328
I2
sS'notion'
p1329
I1
sS'grasp'
p1330
I2
sS'staring'
p1331
I13
sS'drug'
p1332
I1
sS'etc'
p1333
I1
sS'doorway'
p1334
I3
sS'figures'
p1335
I1
sS'puff'
p1336
I1
sS'adjusted'
p1337
I1
sS'snowfall'
p1338
I1
sS'pounced'
p1339
I1
sS'whispering'
p1340
I2
sS'glowered'
p1341
I2
sS'dazzling'
p1342
I1
sS'waste'
p1343
I1
sS'endearing,'
p1344
I1
sS'runway'
p1345
I1
sS'grinning'
p1346
I1
sS'experienced,'
p1347
I1
sS'outside,'
p1348
I1
sS'stuffing'
p1349
I1
sS'sad,'
p1350
I1
sS'site'
p1351
I1
sS'cafeteria,'
p1352
I3
sS'excessively'
p1353
I1
sS'demanded'
p1354
I7
sS'glared'
p1355
I1
sS'glares'
p1356
I1
sS'glaring'
p1357
I6
sS'conflicting'
p1358
I1
sS'ball'
p1359
I2
sS'lot,'
p1360
I1
sS'upon'
p1361
I3
sS'lights,'
p1362
I1
sS'wardrobe,'
p1363
I1
sS'afghan'
p1364
I1
sS'off'
p1365
I33
sS'overcast'
p1366
I1
sS'apricot,'
p1367
I1
sS'patterns'
p1368
I2
sS'doors,'
p1369
I2
sS'command'
p1370
I2
sS'drawing'
p1371
I2
sS'returned,'
p1372
I1
sS'newest'
p1373
I1
sS'bloodred'
p1374
I1
sS'less'
p1375
I8
sS'fragilely'
p1376
I1
sS'whisper,'
p1377
I1
sS'glum'
p1378
I1
sS'rooms'
p1379
I1
sS'innocent,'
p1380
I1
sS'temples,'
p1381
I1
sS'exquisite'
p1382
I1
sS'day'
p1383
I25
sS'chair,'
p1384
I3
sS'checking'
p1385
I2
sS'room,'
p1386
I9
sS'whispers'
p1387
I5
sS'increases'
p1388
I1
sS'five'
p1389
I7
sS'moment,'
p1390
I11
sS'whispery'
p1391
I1
sS'peeked'
p1392
I6
sS'debatable'
p1393
I1
sS'onion'
p1394
I1
sS'chairs'
p1395
I2
sS'shuddered'
p1396
I2
sS'parasite'
p1397
I1
sS'altogether,'
p1398
I1
sS'garage'
p1399
I3
sS'stagger'
p1400
I1
sS'nerves'
p1401
I1
sS'replacement'
p1402
I1
sS'thief'
p1403
I1
sS'immortal'
p1404
I6
sS'flush'
p1405
I1
sS'hissing'
p1406
I1
sS'avoid'
p1407
I5
sS'ground,'
p1408
I1
sS'shone'
p1409
I2
sS'does'
p1410
I10
sS'forgiven'
p1411
I1
sS'blurry'
p1412
I1
sS'blowing'
p1413
I1
sS'schedule'
p1414
I1
sS'pressure'
p1415
I4
sS'plates,'
p1416
I1
sS'breakable,'
p1417
I1
sS'easily,'
p1418
I2
sS'hiding'
p1419
I1
sS'gained'
p1420
I1
sS'sister'
p1421
I6
sS"grandmother's"
p1422
I1
sS'blackness'
p1423
I1
sS'bounded'
p1424
I1
sS'flailing'
p1425
I1
sS'commitment'
p1426
I2
sS'snuggling'
p1427
I1
sS'screamed'
p1428
I1
sS'disapproval'
p1429
I1
sS'scanty'
p1430
I1
sS'startled'
p1431
I1
sS'place,'
p1432
I5
sS'worked,'
p1433
I1
sS'function'
p1434
I1
sS'pixie'
p1435
I2
sS'vise,'
p1436
I1
sS'count'
p1437
I1
sS'evident'
p1438
I1
sS'official'
p1439
I2
sS'smooth'
p1440
I3
sS'triumphant'
p1441
I1
sS'excitement'
p1442
I3
sS'spot,'
p1443
I2
sS'problem'
p1444
I4
sS'profusion'
p1445
I1
sS'nurses'
p1446
I1
sS'recognize'
p1447
I4
sS'compared'
p1448
I1
sS'deadly'
p1449
I1
sS'useful,'
p1450
I1
sS'lately'
p1451
I1
sS'again,'
p1452
I14
sS'in,'
p1453
I3
sS'chance'
p1454
I4
sS'nurse,'
p1455
I1
sS'lasted'
p1456
I1
sS'gruffly'
p1457
I1
sS'announcer'
p1458
I1
sS'forest,'
p1459
I1
sS'lift'
p1460
I1
sS'searched'
p1461
I1
sS'mansion'
p1462
I1
sS'huffs'
p1463
I1
sS'saved'
p1464
I1
sS'party,'
p1465
I1
sS'melodramatic,'
p1466
I1
sS'blistering'
p1467
I1
sS'spikes,'
p1468
I1
sS'blanket'
p1469
I2
sS"driver's"
p1470
I1
sS'yanking'
p1471
I2
sS'save,'
p1472
I1
sS'tagging'
p1473
I1
sS'tickets'
p1474
I3
sS"we'll"
p1475
I3
sS'bewildered'
p1476
I1
sS'furrowed'
p1477
I1
sS'math'
p1478
I1
sS'nondescript'
p1479
I1
sS'relationship,'
p1480
I1
sS'speck'
p1481
I1
sS'jolt,'
p1482
I1
sS'allowed,'
p1483
I1
sS'others,'
p1484
I1
sS'sink,'
p1485
I1
sS'machines'
p1486
I1
sS'established'
p1487
I1
sS'above'
p1488
I7
sS'officially'
p1489
I3
sS'told'
p1490
I28
sS'crunch'
p1491
I1
sS'gritted'
p1492
I1
sS'tempo'
p1493
I1
sS'remarried'
p1494
I1
sS'protection'
p1495
I1
sS'pursuit'
p1496
I2
sS'celebration'
p1497
I1
sS'counter,'
p1498
I3
sS'daughter'
p1499
I1
sS'stressed'
p1500
I1
sS'mused,'
p1501
I2
sS'vapors'
p1502
I1
sS'glance'
p1503
I4
sS'total'
p1504
I2
sS'sweater'
p1505
I1
sS'chooses'
p1506
I1
sS'sunny,'
p1507
I1
sS'pierced'
p1508
I1
sS'siblings'
p1509
I3
sS'yard'
p1510
I4
sS'muttered,'
p1511
I3
sS'stammered,'
p1512
I1
sS'word'
p1513
I16
sS'wore'
p1514
I3
sS'work'
p1515
I13
sS'refusing'
p1516
I1
sS'worn'
p1517
I1
sS'mechanic'
p1518
I2
sS'elbow'
p1519
I6
sS'radiance'
p1520
I1
sS'indicated'
p1521
I1
sS'nozzle'
p1522
I2
sS'indifferent'
p1523
I1
sS'impassive'
p1524
I1
sS'provide'
p1525
I1
sS'verify'
p1526
I1
sS'far'
p1527
I20
sS'moron'
p1528
I1
sS'ordinary'
p1529
I2
sS'beach'
p1530
I2
sS'pizza'
p1531
I1
sS'weapons,'
p1532
I1
sS'after'
p1533
I29
sS'lab'
p1534
I3
sS'bared'
p1535
I1
sS'lay'
p1536
I4
sS'overdressed'
p1537
I1
sS'law'
p1538
I1
sS'lap'
p1539
I2
sS'chilled'
p1540
I1
sS'appreciate'
p1541
I2
sS'green'
p1542
I6
sS'order'
p1543
I4
sS'fragrant,'
p1544
I1
sS'office'
p1545
I3
sS'ears,'
p1546
I1
sS'choices,'
p1547
I1
sS'somewhere'
p1548
I6
sS'rock,'
p1549
I1
sS'carton'
p1550
I1
sS'then'
p1551
I68
sS'them'
p1552
I88
sS'ancient,'
p1553
I1
sS'safe'
p1554
I4
sS'break'
p1555
I5
sS'young,'
p1556
I1
sS'they'
p1557
I80
sS'exhaled'
p1558
I4
sS'rocky'
p1559
I1
sS'reasonably'
p1560
I1
sS'reasonable'
p1561
I1
sS'flyers'
p1562
I1
sS'goodness,'
p1563
I2
sS'lifted'
p1564
I4
sS'admit,'
p1565
I2
sS'hosted'
p1566
I1
sS'hooked'
p1567
I1
sS'remorse'
p1568
I1
sS'forth'
p1569
I1
sS'leftovers'
p1570
I1
sS'mulled'
p1571
I1
sS'admits'
p1572
I1
sS'dashing'
p1573
I1
sS"people's"
p1574
I1
sS'recovering'
p1575
I1
sS'created'
p1576
I4
sS'creates'
p1577
I1
sS'flawless'
p1578
I3
sS'delved'
p1579
I2
sS'footsteps'
p1580
I1
sS'droned'
p1581
I2
sS'poofy'
p1582
I1
sS'another'
p1583
I21
sS'thick'
p1584
I7
sS"he'll"
p1585
I2
sS'compromise'
p1586
I4
sS'observations'
p1587
I1
sS'airy'
p1588
I1
sS'tourniquet'
p1589
I1
sS'offhand'
p1590
I1
sS'happily'
p1591
I5
sS'rejected'
p1592
I1
sS'cereal'
p1593
I1
sS'wasted'
p1594
I4
sS'dog,'
p1595
I1
sS'target'
p1596
I1
sS'hike'
p1597
I1
sS'air,'
p1598
I1
sS'iron'
p1599
I3
sS'manned'
p1600
I1
sS'shy,'
p1601
I1
sS'forced'
p1602
I3
sS'quieter'
p1603
I2
sS'convenient'
p1604
I2
sS'often,'
p1605
I1
sS'devastatingly,'
p1606
I1
sS'forces'
p1607
I1
sS'circles'
p1608
I1
sS'anatomy'
p1609
I1
sS'basilisk'
p1610
I1
sS'neighborhoods'
p1611
I1
sS'swamp'
p1612
I1
sS'aunt'
p1613
I1
sS'sun'
p1614
I10
sS'responded'
p1615
I4
sS'dredged'
p1616
I1
sS'subtly'
p1617
I1
sS'subtle'
p1618
I1
sS'enjoyed'
p1619
I2
sS'sewn'
p1620
I2
sS'trilled'
p1621
I1
sS'deepest'
p1622
I1
sS'roses,'
p1623
I2
sS'wizened'
p1624
I1
sS'run,'
p1625
I1
sS'sews'
p1626
I1
sS'personality'
p1627
I3
sS'do'
p1628
I64
sS'preferred'
p1629
I2
sS'frowning'
p1630
I1
sS'happiest'
p1631
I2
sS'headlong'
p1632
I1
sS'runs'
p1633
I1
sS'sky,'
p1634
I1
sS'exchanged'
p1635
I2
sS'unmet'
p1636
I1
sS'insurgents'
p1637
I1
sS'steak'
p1638
I2
sS'steal'
p1639
I2
sS'smoldered'
p1640
I1
sS'package,'
p1641
I1
sS'freesia'
p1642
I2
sS'reacted'
p1643
I2
sS'observed'
p1644
I1
sS'facts'
p1645
I1
sS'depends'
p1646
I1
sS'miserable'
p1647
I1
sS'optimum'
p1648
I1
sS'because,'
p1649
I1
sS'away'
p1650
I46
sS'unable'
p1651
I3
sS'drawn'
p1652
I2
sS'we'
p1653
I59
sS'terms'
p1654
I1
sS'packages'
p1655
I2
sS'kitchen'
p1656
I9
sS'cop'
p1657
I1
sS'shield,'
p1658
I1
sS'encounter,'
p1659
I1
sS'cave,'
p1660
I1
sS'gradually,'
p1661
I1
sS'obsolete,'
p1662
I1
sS'connected,'
p1663
I1
sS'gasped'
p1664
I10
sS'requests'
p1665
I1
sS'disappears'
p1666
I1
sS'old-fashioned'
p1667
I2
sS'tone'
p1668
I11
sS'royal'
p1669
I1
sS'excess'
p1670
I1
sS'oblivious'
p1671
I1
sS'refill'
p1672
I1
sS'speak'
p1673
I8
sS'gratitude'
p1674
I2
sS'unhappily'
p1675
I1
sS'condemned'
p1676
I1
sS'dozens'
p1677
I1
sS'easy'
p1678
I15
sS'wide,'
p1679
I1
sS'attacked'
p1680
I1
sS'applied'
p1681
I4
sS'east'
p1682
I1
sS'plans,'
p1683
I1
sS'air'
p1684
I11
sS'engine,'
p1685
I1
sS'voice'
p1686
I48
sS'mealtime'
p1687
I1
sS'mistake'
p1688
I2
sS'cylinder'
p1689
I2
sS'faith,'
p1690
I1
sS'dumped'
p1691
I1
sS'girls,'
p1692
I1
sS'dizzy'
p1693
I4
sS'brake'
p1694
I1
sS"girls'"
p1695
I2
sS'perform'
p1696
I1
sS'seventy-five'
p1697
I1
sS'descend'
p1698
I1
sS'plates'
p1699
I1
sS'wheel'
p1700
I1
sS'necessities'
p1701
I1
sS'swell'
p1702
I2
sS'hang'
p1703
I1
sS'evil'
p1704
I1
sS'hand'
p1705
I61
sS'kept'
p1706
I28
sS'soak'
p1707
I1
sS'cryotank,'
p1708
I1
sS'ragged'
p1709
I1
sS'contact'
p1710
I1
sS'musical'
p1711
I1
sS"she'll"
p1712
I3
sS'cap,'
p1713
I1
sS'quintessential'
p1714
I1
sS'victim'
p1715
I2
sS'adding'
p1716
I1
sS'heart-shaped'
p1717
I1
sS'similarities'
p1718
I1
sS"ma'am"
p1719
I1
sS'spread'
p1720
I2
sS'transformed'
p1721
I1
sS"weren'talways"
p1722
I1
sS'boxes'
p1723
I1
sS'glitch'
p1724
I1
sS'cooler'
p1725
I2
sS'grizzly'
p1726
I1
sS'lapsed'
p1727
I1
sS'night'
p1728
I16
sS'antique'
p1729
I1
sS'loving,'
p1730
I1
sS'honored'
p1731
I1
sS'lashes'
p1732
I2
sS'born'
p1733
I2
sS'gawked'
p1734
I2
sS'confusing'
p1735
I1
sS'tonight,'
p1736
I3
sS'humor'
p1737
I2
sS'purple'
p1738
I2
sS'reflexively'
p1739
I1
sS'unavoidable'
p1740
I1
sS'comments'
p1741
I1
sS'uncomfortable,'
p1742
I1
sS'denied'
p1743
I1
sS'adorable'
p1744
I1
sS'peer'
p1745
I1
sS'post'
p1746
I1
sS'months'
p1747
I4
sS'prisoners'
p1748
I1
sS'float'
p1749
I1
sS'bound'
p1750
I3
sS'cry,'
p1751
I1
sS'balanced'
p1752
I1
sS'tint,'
p1753
I1
sS'strangely'
p1754
I2
sS'familiar,'
p1755
I1
sS'unchanging'
p1756
I1
sS'fight'
p1757
I3
sS'accordingly'
p1758
I1
sS'way'
p1759
I51
sS'was'
p1760
I778
sS'war'
p1761
I1
sS'snowy'
p1762
I1
sS'taken'
p1763
I8
sS'same,'
p1764
I1
sS'true'
p1765
I5
sS'absent'
p1766
I1
sS'throw'
p1767
I3
sS'braver'
p1768
I2
sS'braved'
p1769
I1
sS'crystal'
p1770
I3
sS'emotional'
p1771
I1
sS'curious,'
p1772
I1
sS'promises'
p1773
I2
sS'medication'
p1774
I1
sS'muscular'
p1775
I1
sS'evidence'
p1776
I2
sS'guessed'
p1777
I4
sS'promised'
p1778
I4
sS'brother,'
p1779
I1
sS'physical'
p1780
I1
sS'dying'
p1781
I1
sS'grasp,'
p1782
I1
sS'bed,'
p1783
I4
sS'interested'
p1784
I1
sS'holding'
p1785
I5
sS'staggered,'
p1786
I1
sS'unwilling'
p1787
I1
sS'brothers'
p1788
I2
sS'welcome'
p1789
I2
sS'convincing'
p1790
I1
sS'update'
p1791
I1
sS'occasion'
p1792
I1
sS'cheated'
p1793
I1
sS'alertly'
p1794
I1
sS'together'
p1795
I23
sS'reception'
p1796
I2
sS'necessitated'
p1797
I1
sS'concept'
p1798
I4
sS'vampires'
p1799
I8
sS'diplomacy'
p1800
I1
sS'dance'
p1801
I2
sS'indicating'
p1802
I1
sS'supplement'
p1803
I1
sS'grateful'
p1804
I4
sS'battle'
p1805
I2
sS'certainly'
p1806
I2
sS'flash'
p1807
I1
sS'agony,'
p1808
I1
sS'rhythm'
p1809
I2
sS'terror'
p1810
I1
sS'donned'
p1811
I1
sS'brown'
p1812
I7
sS'rectangle,'
p1813
I1
sS'mine,'
p1814
I7
sS'trouble'
p1815
I2
sS"soul's"
p1816
I1
sS'evaded'
p1817
I1
sS'turns'
p1818
I2
sS'gun'
p1819
I4
sS'gut'
p1820
I1
sS'guy'
p1821
I2
sS'regret'
p1822
I1
sS'full-grown'
p1823
I1
sS'luck,'
p1824
I3
sS'scarcity'
p1825
I1
sS'helpless'
p1826
I1
sS'snipers'
p1827
I1
sS'appear'
p1828
I1
sS'shared'
p1829
I1
sS'appeal'
p1830
I1
sS'sallower,'
p1831
I1
sS'pause'
p1832
I4
sS'obsessing'
p1833
I1
sS"hadn't"
p1834
I22
sS'roaring'
p1835
I1
sS'teacher'
p1836
I5
sS'change'
p1837
I10
sS'flames'
p1838
I1
sS'twenty-seven'
p1839
I1
sS'usually'
p1840
I7
sS'pillow'
p1841
I1
sS'homecoming'
p1842
I1
sS'regardless'
p1843
I2
sS'marked'
p1844
I2
sS'illumination'
p1845
I1
sS'market'
p1846
I2
sS'stage-whispered'
p1847
I1
sS'prove'
p1848
I2
sS'incident,'
p1849
I1
sS'live'
p1850
I12
sS'bluffing'
p1851
I1
sS'soft,'
p1852
I4
sS'entrance'
p1853
I1
sS'suicide,'
p1854
I1
sS'sting,'
p1855
I1
sS'hesitated'
p1856
I1
sS'wondering,'
p1857
I1
sS'trilling'
p1858
I1
sS'cute,'
p1859
I1
sS'car'
p1860
I37
sS'cap'
p1861
I1
sS'labeled'
p1862
I1
sS'can'
p1863
I33
sS'big,'
p1864
I5
sS'cab'
p1865
I2
sS'heart'
p1866
I10
sS'hears'
p1867
I2
sS'chip'
p1868
I1
sS"didn't"
p1869
I98
sS'paused'
p1870
I6
sS'heard'
p1871
I21
sS'chin'
p1872
I3
sS'occur'
p1873
I1
sS'discussion'
p1874
I1
sS'means'
p1875
I2
sS'wandering,'
p1876
I1
sS'product'
p1877
I1
sS'staircase'
p1878
I2
sS'sacrifice'
p1879
I2
sS'southern'
p1880
I2
sS'disgusted'
p1881
I2
sS'heroes'
p1882
I1
sS'lifting'
p1883
I1
sS'remember'
p1884
I11
sS'whenever'
p1885
I4
sS'candles'
p1886
I1
sS'crept'
p1887
I1
sS'memory,'
p1888
I4
sS'typical'
p1889
I1
sS'no,'
p1890
I1
sS'serving'
p1891
I1
sS'slack,'
p1892
I1
sS'playful'
p1893
I1
sS'brain'
p1894
I5
sS'cold'
p1895
I12
sS'vocation'
p1896
I1
sS'physically,'
p1897
I1
sS'curly'
p1898
I2
sS'birthdays'
p1899
I3
sS'curls'
p1900
I2
sS'window'
p1901
I7
sS'halt'
p1902
I1
sS'nod'
p1903
I1
sS'introduce'
p1904
I4
sS'adrenaline'
p1905
I2
sS'half'
p1906
I7
sS'not'
p1907
I185
sS'now'
p1908
I49
sS'hall'
p1909
I3
sS'nor'
p1910
I3
sS'streaks'
p1911
I1
sS'chuckled'
p1912
I6
sS'drop'
p1913
I2
sS"human's"
p1914
I1
sS'outrageously'
p1915
I1
sS'birthday,'
p1916
I10
sS'entirely'
p1917
I8
sS'unloaded'
p1918
I1
sS'prompted'
p1919
I1
sS'challenged'
p1920
I1
sS'hurried'
p1921
I6
sS'goose'
p1922
I2
sS'car,'
p1923
I5
sS'year'
p1924
I7
sS'erratically'
p1925
I1
sS'happen'
p1926
I8
sS'calling'
p1927
I3
sS'pills'
p1928
I2
sS'amusement'
p1929
I2
sS'opened'
p1930
I12
sS'could,'
p1931
I1
sS'thirst'
p1932
I1
sS'hastily'
p1933
I1
sS'looking'
p1934
I26
sS'receiving'
p1935
I1
sS'shows'
p1936
I2
sS'defenses'
p1937
I1
sS'cars'
p1938
I6
sS'fire,'
p1939
I1
sS'diagnostic'
p1940
I1
sS'grimacing'
p1941
I1
sS'unwanted'
p1942
I1
sS'rebel'
p1943
I2
sS'obligation'
p1944
I1
sS'ominous'
p1945
I1
sS'inevitable'
p1946
I1
sS'card'
p1947
I3
sS'care'
p1948
I6
sS'tear-streaked'
p1949
I1
sS'vehemently'
p1950
I1
sS'honest'
p1951
I1
sS'tangled'
p1952
I2
sS'perfection,'
p1953
I1
sS'blind'
p1954
I3
sS'benefited'
p1955
I1
sS'impossibly'
p1956
I1
sS'fibers,'
p1957
I1
sS'yourself'
p1958
I6
sS'ended,'
p1959
I1
sS'impossible'
p1960
I8
sS'ring'
p1961
I5
sS'drove'
p1962
I7
sS'tomorrow'
p1963
I5
sS'size'
p1964
I2
sS'sheet'
p1965
I1
sS'silent'
p1966
I6
sS'caught'
p1967
I10
sS'lightened'
p1968
I2
sS'friend'
p1969
I7
sS'lobbing'
p1970
I1
sS'thaw'
p1971
I1
sS'mostly'
p1972
I4
sS'that'
p1973
I421
sS'pots,'
p1974
I1
sS'explain,'
p1975
I1
sS'occupation,'
p1976
I1
sS'eliminated'
p1977
I1
sS'flowers'
p1978
I4
sS'than'
p1979
I89
sS'scalpel'
p1980
I2
sS'apples'
p1981
I1
sS'accessed'
p1982
I1
sS'troublesome'
p1983
I1
sS'angel'
p1984
I2
sS'remained'
p1985
I2
sS'clomping'
p1986
I1
sS'distorted'
p1987
I1
sS'anger'
p1988
I7
sS'breakfast'
p1989
I1
sS'slab'
p1990
I1
sS'armed,'
p1991
I1
sS'grinned,'
p1992
I1
sS'online'
p1993
I1
sS'objective'
p1994
I1
sS'swelled'
p1995
I1
sS'cheeks,'
p1996
I1
sS'begin'
p1997
I3
sS'neatly'
p1998
I1
sS'impossible,'
p1999
I1
sS'forever'
p2000
I5
sS'sprinting'
p2001
I1
sS'steady'
p2002
I3
sS'mesmerized'
p2003
I1
sS'sunset'
p2004
I1
sS'rambling'
p2005
I1
sS'fifty'
p2006
I1
sS'discovered'
p2007
I2
sS'fifth'
p2008
I4
sS'ground'
p2009
I1
sS'invited,'
p2010
I1
sS'title'
p2011
I1
sS'stained'
p2012
I1
sS'only'
p2013
I73
sS'shrill'
p2014
I1
sS'truly'
p2015
I2
sS'cannot'
p2016
I1
sS'windshield,'
p2017
I1
sS'celebrate'
p2018
I1
sS'appreciatively'
p2019
I1
sS'leather'
p2020
I1
sS'keyed'
p2021
I1
sS'friends,'
p2022
I5
sS'husband'
p2023
I3
sS'gleamed'
p2024
I1
sS'burst'
p2025
I2
sS'physically'
p2026
I2
sS'eaves,'
p2027
I1
sS'fanned'
p2028
I1
sS'anchored'
p2029
I1
sS'asleep'
p2030
I4
sS'hell'
p2031
I5
sS'sport'
p2032
I1
sS'concern'
p2033
I2
sS'come,'
p2034
I1
sS'one-handed,'
p2035
I1
sS'between'
p2036
I12
sS'unanimous'
p2037
I1
sS'tiles,'
p2038
I1
sS'notice'
p2039
I6
sS'stretching,'
p2040
I1
sS'coordinationally'
p2041
I1
sS'blame'
p2042
I1
sS'hurts'
p2043
I2
sS'broil'
p2044
I1
sS'propaganda'
p2045
I1
sS'fought,'
p2046
I1
sS'comes'
p2047
I2
sS'invitingly'
p2048
I1
sS'hostile,'
p2049
I1
sS'jeans'
p2050
I1
sS'wound,'
p2051
I1
sS'four,'
p2052
I1
sS"couldn't"
p2053
I50
sS'actually'
p2054
I3
sS'muttered'
p2055
I9
sS'cares'
p2056
I1
sS'informed'
p2057
I3
sS'punished'
p2058
I1
sS'wheezing'
p2059
I1
sS'prehistoric'
p2060
I1
sS'these'
p2061
I12
sS'trick'
p2062
I1
sS"clock's"
p2063
I1
sS'care,'
p2064
I1
sS'one-armed'
p2065
I1
sS'soil'
p2066
I1
sS'post-breakup'
p2067
I1
sS'pleads'
p2068
I1
sS'embrace'
p2069
I1
sS'heels'
p2070
I1
sS'commanded'
p2071
I1
sS'worry'
p2072
I6
sS'develop'
p2073
I1
sS'food'
p2074
I7
sS'gorging'
p2075
I1
sS'document'
p2076
I1
sS'finish'
p2077
I1
sS'closest'
p2078
I2
sS'enjoyment'
p2079
I1
sS'arctic'
p2080
I1
sS'tradition'
p2081
I1
sS'mentally'
p2082
I1
sS'enchanting'
p2083
I1
sS'complained'
p2084
I1
sS'lit,'
p2085
I1
sS'severe'
p2086
I1
sS'alleviate'
p2087
I1
sS'heaps'
p2088
I1
sS'am,'
p2089
I2
sS'neon'
p2090
I1
sS'bronze-haired'
p2091
I1
sS'actually,'
p2092
I2
sS'foot'
p2093
I3
sS'civilized'
p2094
I1
sS'growled'
p2095
I4
sS'rule,'
p2096
I1
sS'touch'
p2097
I7
sS'speed'
p2098
I1
sS'death'
p2099
I7
sS'thinking'
p2100
I7
sS'mirrored'
p2101
I2
sS'either,'
p2102
I2
sS'struck'
p2103
I2
sS'real'
p2104
I7
sS'propped'
p2105
I1
sS'hover'
p2106
I1
sS'frown'
p2107
I2
sS'read'
p2108
I5
sS'stung'
p2109
I2
sS'early'
p2110
I10
sS'listening'
p2111
I3
sS'using'
p2112
I3
sS'lady'
p2113
I1
sS'fortune'
p2114
I1
sS'pounds'
p2115
I3
sS'miracle'
p2116
I2
sS'halfheartedly'
p2117
I1
sS'hero,'
p2118
I1
sS'verbal'
p2119
I1
sS'exposed'
p2120
I2
sS'limits,'
p2121
I1
sS'duration'
p2122
I1
sS'squirm'
p2123
I2
sS'conservative'
p2124
I1
sS'business'
p2125
I1
sS'strained'
p2126
I3
sS'flinched'
p2127
I3
sS'tuition'
p2128
I1
sS'credits'
p2129
I1
sS'leftover'
p2130
I1
sS'exciting'
p2131
I1
sS'narrowly,'
p2132
I1
sS'comparison'
p2133
I2
sS'mid-thought'
p2134
I1
sS'boxy,'
p2135
I1
sS'shrinking'
p2136
I1
sS'your'
p2137
I82
sS'stare'
p2138
I9
sS'stuttered'
p2139
I2
sS'prepare'
p2140
I2
sS'area'
p2141
I1
sS'assumed'
p2142
I2
sS'posture,'
p2143
I1
sS'start'
p2144
I6
sS'low'
p2145
I4
sS'lot'
p2146
I22
sS'politeness'
p2147
I1
sS'you,'
p2148
I17
sS'protest,'
p2149
I1
sS'toned'
p2150
I1
sS'species,'
p2151
I1
sS'tones'
p2152
I1
sS'subdue'
p2153
I1
sS'momentarily'
p2154
I1
sS'warm,'
p2155
I1
sS'describe'
p2156
I2
sS'moved'
p2157
I6
sS'scanned'
p2158
I1
sS'yon'
p2159
I1
sS'unwelcome'
p2160
I2
sS'cabinets'
p2161
I1
sS'fifty-five'
p2162
I1
sS'valid'
p2163
I1
sS'you'
p2164
I295
sS'forcing'
p2165
I1
sS'poor'
p2166
I2
sS'hospital,'
p2167
I2
sS'move,'
p2168
I1
sS'drift'
p2169
I2
sS'flattened'
p2170
I1
sS'suited'
p2171
I1
sS'building'
p2172
I10
sS'since'
p2173
I13
sS'pointing'
p2174
I1
sS'month'
p2175
I1
sS'thoughtful'
p2176
I1
sS'dreadful'
p2177
I1
sS'meant,'
p2178
I1
sS'foster'
p2179
I2
sS'moist,'
p2180
I1
sS'very'
p2181
I50
sS'horror'
p2182
I10
sS'decide'
p2183
I2
sS'intoxicating,'
p2184
I1
sS'exhibition,'
p2185
I1
sS'securely'
p2186
I3
sS'heaven'
p2187
I3
sS'sedation'
p2188
I2
sS'cookies'
p2189
I1
sS'fence'
p2190
I1
sS'streets'
p2191
I2
sS'answer,'
p2192
I2
sS'covens,'
p2193
I1
sS'casual'
p2194
I2
sS'chuckle'
p2195
I1
sS'darkness'
p2196
I6
sS'scorching'
p2197
I1
sS'emotions'
p2198
I3
sS'him,'
p2199
I20
sS'apologized'
p2200
I2
sS'learned'
p2201
I1
sS'trauma,'
p2202
I1
sS'excitement,'
p2203
I1
sS'loose'
p2204
I1
sS'answers'
p2205
I3
sS'trunk'
p2206
I1
sS'marring'
p2207
I1
sS'strong'
p2208
I13
sS'floodgate'
p2209
I1
sS'colored'
p2210
I1
sS'ahead'
p2211
I5
sS'vegetarian'
p2212
I1
sS'exceptionally'
p2213
I1
sS'maybe,'
p2214
I2
sS'amount'
p2215
I2
sS'sealing'
p2216
I1
sS'shuffle'
p2217
I2
sS'family'
p2218
I16
sS'ask'
p2219
I11
sS'lurked'
p2220
I1
sS'trained'
p2221
I1
sS'unpleasantness'
p2222
I1
sS'story,'
p2223
I1
sS'conventional'
p2224
I1
sS'injure'
p2225
I1
sS'pregnant,'
p2226
I1
sS'revelation'
p2227
I1
sS'grapes'
p2228
I1
sS'mysterious'
p2229
I2
sS'injury'
p2230
I1
sS'entails'
p2231
I1
sS'lush'
p2232
I1
sS'surprisingly'
p2233
I1
sS'excuse'
p2234
I1
sS'broke'
p2235
I3
sS'hurry'
p2236
I5
sS'respected'
p2237
I1
sS'offended'
p2238
I2
sS'nine'
p2239
I1
sS'history'
p2240
I1
sS'sapphires'
p2241
I2
sS'pushed'
p2242
I7
sS'phrase'
p2243
I2
sS'species'
p2244
I4
sS'firmly'
p2245
I1
sS'stayed'
p2246
I7
sS'foreseen'
p2247
I3
sS'tried'
p2248
I27
sS'rude'
p2249
I2
sS'gasp'
p2250
I2
sS'twenty-nine'
p2251
I1
sS'a'
I719
sS'workstation'
p2252
I1
sS'tank-resistant'
p2253
I1
sS'appatently'
p2254
I1
sS'overnight'
p2255
I1
sS'dream'
p2256
I11
sS'help'
p2257
I14
sS'soon'
p2258
I17
sS'held'
p2259
I24
sS'tousled'
p2260
I2
sS'gray-haired'
p2261
I1
sS'seeming'
p2262
I1
sS'exact'
p2263
I2
sS'fair,'
p2264
I1
sS'absence'
p2265
I1
sS'full,'
p2266
I1
sS"haven't"
p2267
I4
sS'evening'
p2268
I3
sS'ya'
p2269
I1
sS"you've"
p2270
I2
sS'sweeping'
p2271
I1
sS'unhealing'
p2272
I1
sS'fine,'
p2273
I6
sS'trailed'
p2274
I1
sS'fully'
p2275
I3
sS'stopped'
p2276
I3
sS"isn't"
p2277
I7
sS'referred'
p2278
I1
sS'heavy'
p2279
I5
sS'thirteenth'
p2280
I1
sS'house,'
p2281
I6
sS'lab,'
p2282
I1
sS'squishy'
p2283
I1
sS'beyond'
p2284
I1
sS'event'
p2285
I2
sS'steered'
p2286
I1
sS'miss'
p2287
I8
sS'surrounded'
p2288
I4
sS'safety'
p2289
I2
sS'evolved,'
p2290
I1
sS'outrun'
p2291
I2
sS'keening'
p2292
I1
sS'bass'
p2293
I1
sS'dirt'
p2294
I1
sS'sleeveless,'
p2295
I1
sS'houses'
p2296
I1
sS'reason'
p2297
I15
sS'base'
p2298
I1
sS'put'
p2299
I22
sS'dishwasher'
p2300
I1
sS'perceptible'
p2301
I1
sS'terrible'
p2302
I1
sS'terribly'
p2303
I1
sS'expecting'
p2304
I3
sS'blush'
p2305
I1
sS'scar-softening'
p2306
I1
sS'interrupted,'
p2307
I1
sS'talked'
p2308
I1
sS'minutes,'
p2309
I5
sS'mist'
p2310
I1
sS'earliest,'
p2311
I1
sS'blossom'
p2312
I1
sS'pinned'
p2313
I1
sS'station'
p2314
I2
sS'dreaming,'
p2315
I1
sS'hundred'
p2316
I13
sS'challenge'
p2317
I2
sS'slosh'
p2318
I1
sS'boredom'
p2319
I1
sS'sign'
p2320
I4
sS'serious,'
p2321
I2
sS'grew'
p2322
I5
sS'anticipate'
p2323
I1
sS'hesitating'
p2324
I1
sS'bride'
p2325
I3
sS'uncanny'
p2326
I1
sS'toward'
p2327
I18
sS'newborns'
p2328
I1
sS'withered'
p2329
I1
sS'awaking'
p2330
I1
sS'cooked,'
p2331
I1
sS'lid'
p2332
I2
sS'lie'
p2333
I3
sS'half-smile'
p2334
I1
sS'flaming'
p2335
I1
sS'lit'
p2336
I1
sS'lip'
p2337
I1
sS'useless'
p2338
I1
sS"angel's"
p2339
I1
sS'experienced'
p2340
I2
sS'experiences'
p2341
I1
sS'salary'
p2342
I2
sS'clear'
p2343
I13
sS'clean'
p2344
I2
sS'blend'
p2345
I2
sS'stunned'
p2346
I2
sS'homework,'
p2347
I2
sS'flicker'
p2348
I2
sS'giggled'
p2349
I5
sS'two-year-olds'
p2350
I1
sS'flicked'
p2351
I2
sS'gelled'
p2352
I1
sS'with,'
p2353
I1
sS'appropriately,'
p2354
I1
sS'northern'
p2355
I1
sS'paranoid'
p2356
I1
sS'unwillingly'
p2357
I4
sS'darted'
p2358
I2
sS'moments'
p2359
I1
sS'pretty'
p2360
I9
sS'flighty'
p2361
I1
sS'circle'
p2362
I2
sS'as,'
p2363
I1
sS'briefly'
p2364
I3
sS'waterproof'
p2365
I1
sS'trees'
p2366
I4
sS'feels'
p2367
I2
sS'pretending'
p2368
I1
sS'speckles'
p2369
I1
sS'during'
p2370
I4
sS'catches'
p2371
I1
sS'fianc\xe9'
p2372
I1
sS'sacrificed'
p2373
I1
sS'sacrifices'
p2374
I1
sS'seventeen'
p2375
I1
sS'disapproving'
p2376
I1
sS'throwing'
p2377
I5
sS'crackle'
p2378
I1
sS'nostalgically'
p2379
I1
sS'close'
p2380
I15
sS'heartbeats'
p2381
I1
sS'wow'
p2382
I1
sS'won'
p2383
I1
sS'years,'
p2384
I3
sS'probably'
p2385
I6
sS'pictured'
p2386
I1
sS'upstairs,'
p2387
I1
sS'unconscious'
p2388
I3
sS'missing'
p2389
I5
sS'distinguish'
p2390
I1
sS'abruptly'
p2391
I2
sS'both'
p2392
I17
sS'assistant,'
p2393
I2
sS"wouldn't"
p2394
I27
sS'sensitive'
p2395
I1
sS'picture,'
p2396
I1
sS'forgotten'
p2397
I8
sS'liked'
p2398
I3
sS'headed'
p2399
I8
sS'cryotank'
p2400
I2
sS'near-constant'
p2401
I1
sS'whatever'
p2402
I7
sS'likes'
p2403
I1
sS'mumble'
p2404
I1
sS'compromise,'
p2405
I1
sS'flee,'
p2406
I1
sS'described'
p2407
I2
sS'damp'
p2408
I2
sS'assumed,'
p2409
I1
sS'reciprocate'
p2410
I1
sS'coarse'
p2411
I1
sS'empty'
p2412
I10
sS'lived'
p2413
I19
sS'like,'
p2414
I1
sS'wet'
p2415
I5
sS'else'
p2416
I12
sS'lives'
p2417
I6
sS'look'
p2418
I45
sS'pace'
p2419
I3
sS'while'
p2420
I30
sS'ought'
p2421
I2
sS'pack'
p2422
I2
sS'listen'
p2423
I3
sS'smacked'
p2424
I1
sS'terminator'
p2425
I1
sS'ready'
p2426
I3
sS'reception,'
p2427
I1
sS'communal'
p2428
I1
sS'anymore'
p2429
I8
sS'clear,'
p2430
I2
sS'thoughtlessly'
p2431
I1
sS'grand'
p2432
I1
sS'conflict'
p2433
I2
sS'used'
p2434
I15
sS'classmates'
p2435
I1
sS'optic'
p2436
I1
sS'almost-adult'
p2437
I1
sS'read,'
p2438
I2
sS'censure'
p2439
I1
sS'changed,'
p2440
I1
sS'idling'
p2441
I1
sS'older'
p2442
I6
sS'obviously'
p2443
I5
sS'salon,'
p2444
I1
sS'chore'
p2445
I1
sS'cave'
p2446
I1
sS'wise,'
p2447
I1
sS'shivering'
p2448
I2
sS'desk'
p2449
I10
sS'breathtaking'
p2450
I1
sS'winced'
p2451
I2
sS'limbs,'
p2452
I1
sS'throats'
p2453
I1
sS'brand-new'
p2454
I1
sS'questioned'
p2455
I1
sS'transformation'
p2456
I1
sS'sprinted'
p2457
I2
sS'march'
p2458
I3
sS'evaluate'
p2459
I1
sS'showing'
p2460
I2
sS'albino'
p2461
I1
sS'enthusiastically'
p2462
I1
sS'game'
p2463
I1
sS'throat,'
p2464
I2
sS'popular'
p2465
I1
sS'last,'
p2466
I3
sS'creation'
p2467
I1
sS'some'
p2468
I45
sS'lips'
p2469
I26
sS'fanfare'
p2470
I1
sS'describing'
p2471
I1
sS'vacationed'
p2472
I1
sS'pounding'
p2473
I1
sS'sleek,'
p2474
I1
sS'minimal'
p2475
I1
sS'eating'
p2476
I2
sS'facility,'
p2477
I1
sS'step'
p2478
I4
sS'become'
p2479
I5
sS'taboo'
p2480
I1
sS'shine'
p2481
I2
sS'faith'
p2482
I1
sS'forget,'
p2483
I1
sS'surprising,'
p2484
I1
sS'warned,'
p2485
I1
sS'crouch,'
p2486
I1
sS'shiny'
p2487
I5
sS'block'
p2488
I1
sS'seeing'
p2489
I1
sS'within'
p2490
I4
sS'nonsense'
p2491
I1
sS'gilt'
p2492
I1
sS'growled,'
p2493
I1
sS'sprawled'
p2494
I1
sS'rolls'
p2495
I1
sS'smells'
p2496
I1
sS'furtively'
p2497
I2
sS'worshipped'
p2498
I1
sS'mistakes,'
p2499
I4
sS'intimidating,'
p2500
I1
sS'confessing'
p2501
I1
sS'himself'
p2502
I8
sS'registered'
p2503
I3
sS'authority'
p2504
I1
sS'dull'
p2505
I2
sS'flickers'
p2506
I1
sS'skull'
p2507
I1
sS'accustomed'
p2508
I1
sS"female's"
p2509
I1
sS"family-to-be's"
p2510
I1
sS'hesitantly'
p2511
I1
sS'ordered'
p2512
I1
sS'smile,'
p2513
I4
sS'cotton'
p2514
I2
sS'objection'
p2515
I1
sS'fears'
p2516
I1
sS'nap'
p2517
I1
sS'smiling,'
p2518
I1
sS'themselves,'
p2519
I1
sS'automatically,'
p2520
I2
sS'smiles'
p2521
I1
sS'draw'
p2522
I2
sS'bodies,'
p2523
I2
sS'pretended'
p2524
I1
sS'averting'
p2525
I1
sS'drag'
p2526
I1
sS'smiled'
p2527
I18
sS'cloud-covered'
p2528
I1
sS'reservation'
p2529
I1
sS'restrained'
p2530
I1
sS'temperament'
p2531
I1
sS'practically'
p2532
I1
sS'required'
p2533
I1
sS'clenched'
p2534
I3
sS'resistance,'
p2535
I1
sS"she's"
p2536
I5
sS'sounded'
p2537
I7
sS'pry'
p2538
I1
sS'harrumphed'
p2539
I1
sS'cheerful'
p2540
I2
sS'helped'
p2541
I4
sS'go'
p2542
I27
sS'quickly,'
p2543
I6
sS'assignment,'
p2544
I1
sS'nose'
p2545
I8
sS'cluttered'
p2546
I1
sS'artlessly'
p2547
I1
sS'friendly'
p2548
I4
sS'wave'
p2549
I1
sS'squeaked'
p2550
I1
sS'rebuked'
p2551
I1
sS'cellular'
p2552
I1
sS'telling'
p2553
I3
sS'yourselves'
p2554
I1
sS'crowed'
p2555
I1
sS'stiff'
p2556
I2
sS'positions'
p2557
I2
sS'button'
p2558
I1
sS'flickered'
p2559
I3
sS'teeth,'
p2560
I5
sS'panic-stricken'
p2561
I1
sS'picker'
p2562
I1
sS'boots'
p2563
I4
sS'decreed'
p2564
I1
sS'jump'
p2565
I3
sS'picked'
p2566
I5
sS'opaque'
p2567
I1
sS'vampire'
p2568
I8
sS'stance'
p2569
I1
sS'commercial'
p2570
I2
sS'believed'
p2571
I4
sS'focused'
p2572
I3
sS'canals'
p2573
I1
sS'mystery,'
p2574
I1
sS'justice'
p2575
I1
sS"weren't"
p2576
I10
sS'play,'
p2577
I1
sS'examining'
p2578
I1
sS'intruded,'
p2579
I1
sS'nearest'
p2580
I1
sS'manage'
p2581
I2
sS'nerves,'
p2582
I1
sS'cloud'
p2583
I1
sS'strapped'
p2584
I1
sS'remains'
p2585
I1
sS'camera'
p2586
I9
sS'vehicle'
p2587
I2
sS'simpler'
p2588
I1
sS'cheeks'
p2589
I4
sS'started'
p2590
I11
sS'violent,'
p2591
I1
sS'salad'
p2592
I1
sS'ride'
p2593
I3
sS'meet'
p2594
I4
sS'control'
p2595
I7
sS'escapes'
p2596
I1
sS'comprehend,'
p2597
I1
sS'escaped'
p2598
I1
sS'pulling'
p2599
I3
sS'sought'
p2600
I2
sS'wonderful'
p2601
I2
sS'skirt'
p2602
I2
sS'dishrags'
p2603
I1
sS'instinctively'
p2604
I1
sS'circular'
p2605
I1
sS'escape,'
p2606
I1
sS'link,'
p2607
I1
sS'longest'
p2608
I1
sS'unbreakable'
p2609
I1
sS'hand,'
p2610
I3
sS'tiptoes'
p2611
I1
sS"won't"
p2612
I15
sS'brittle'
p2613
I1
sS'steel'
p2614
I1
sS'immune'
p2615
I2
sS'banquet'
p2616
I1
sS'articulation'
p2617
I1
sS'hands'
p2618
I24
sS'front'
p2619
I26
sS'egotistical,'
p2620
I1
sS'slide'
p2621
I6
sS'mode'
p2622
I1
sS'shaking'
p2623
I3
sS'upward'
p2624
I1
sS'showering'
p2625
I1
sS'attachments'
p2626
I2
sS'steadied'
p2627
I1
sS'measure'
p2628
I1
sS'secretly'
p2629
I1
sS'entertainment'
p2630
I1
sS'armor'
p2631
I4
sS'time,'
p2632
I12
sS'peace-loving'
p2633
I1
sS'obsessive'
p2634
I1
sS'sand,'
p2635
I1
sS'humiliating'
p2636
I2
sS'darkly'
p2637
I1
sS'strap'
p2638
I1
sS'completely'
p2639
I10
sS'intruder'
p2640
I1
sS'drowning'
p2641
I1
sS'hostile'
p2642
I1
sS'route'
p2643
I1
sS'tennis,'
p2644
I1
sS'times'
p2645
I9
sS'foolishly,'
p2646
I1
sS'powerful'
p2647
I3
sS'date'
p2648
I3
sS'similar,'
p2649
I1
sS'four-hour'
p2650
I1
sS'precisely'
p2651
I2
sS"you're"
p2652
I16
sS'be,'
p2653
I1
sS'bears'
p2654
I1
sS'squinting'
p2655
I1
sS'adopted'
p2656
I5
sS'attack'
p2657
I2
sS'wrapped'
p2658
I6
sS'perfectly'
p2659
I6
sS'final'
p2660
I1
sS'groggily'
p2661
I1
sS'exactly'
p2662
I16
sS'fuzzy'
p2663
I1
sS'overwhelming'
p2664
I1
sS'herself'
p2665
I6
sS'neck'
p2666
I10
sS'bed'
p2667
I7
sS"body's"
p2668
I2
sS'dumb'
p2669
I1
sS'curiosity,'
p2670
I1
sS'bet'
p2671
I1
sS'enforced'
p2672
I1
sS'thwarted'
p2673
I1
sS'lightly'
p2674
I1
sS'carrots'
p2675
I1
sS'need'
p2676
I30
sS'bleached'
p2677
I2
sS'able'
p2678
I8
sS'relatives'
p2679
I1
sS'gunned'
p2680
I1
sS'fuels'
p2681
I1
sS'mileage'
p2682
I1
sS'floundered'
p2683
I1
sS'passionately'
p2684
I1
sS'connected'
p2685
I2
sS'quantifiable'
p2686
I1
sS'expired'
p2687
I1
sS'stereo'
p2688
I5
sS'upset'
p2689
I2
sS'staid,'
p2690
I1
sS'pictures'
p2691
I9
sS'impression'
p2692
I2
sS'qualms'
p2693
I1
sS'anyway'
p2694
I7
sS'unfathomable'
p2695
I3
sS'parked'
p2696
I4
sS'soldiers'
p2697
I1
sS'slow,'
p2698
I1
sS'shield'
p2699
I1
sS'loveable'
p2700
I1
sS'envy'
p2701
I2
sS'earned'
p2702
I1
sS'winner'
p2703
I1
sS'hopeful'
p2704
I3
sS'brighter'
p2705
I3
sS'rasp'
p2706
I1
sS'thunderous'
p2707
I1
sS'fuel'
p2708
I1
sS'topa2'
p2709
I1
sS'mortality'
p2710
I1
sS'slows'
p2711
I1
sS'below,'
p2712
I1
sS'endless'
p2713
I1
sS'gray'
p2714
I3
sS'had,'
p2715
I4
sS'talking,'
p2716
I1
sS'gust'
p2717
I1
sS'houses,'
p2718
I1
sS'she'
p2719
I127
sS'flit'
p2720
I1
sS'grab'
p2721
I3
sS'spotted'
p2722
I3
sS'shrouded'
p2723
I1
sS'freeze'
p2724
I1
sS'driveway'
p2725
I1
sS'desperate'
p2726
I1
sS'placed'
p2727
I4
sS'nightmare'
p2728
I2
sS'horribly'
p2729
I1
sS'staring,'
p2730
I1
sS'mind,'
p2731
I4
sS'state'
p2732
I3
sS'correctly'
p2733
I2
sS'horrible'
p2734
I1
sS'expects,'
p2735
I1
sS'hit,'
p2736
I1
sS'tent'
p2737
I2
sS'vigorous,'
p2738
I1
sS'asked,'
p2739
I11
sS'interfere'
p2740
I1
sS'blinked'
p2741
I1
sS'human,'
p2742
I3
sS'key'
p2743
I2
sS'police'
p2744
I3
sS'thank'
p2745
I1
sS'hits'
p2746
I2
sS'gingery'
p2747
I1
sS'ten,'
p2748
I1
sS'distracting,'
p2749
I1
sS'admit'
p2750
I5
sS'huts,'
p2751
I1
sS'invisible'
p2752
I3
sS'together,'
p2753
I2
sS'sense,'
p2754
I2
sS'shoulder,'
p2755
I2
sS'erased'
p2756
I2
sS'quit'
p2757
I1
sS'inhale'
p2758
I1
sS'addition'
p2759
I1
sS'thanked'
p2760
I1
sS'leaned,'
p2761
I1
sS'quiz'
p2762
I1
sS'slowly'
p2763
I11
sS'garter'
p2764
I3
sS'shoulders'
p2765
I3
sS'senses'
p2766
I2
sS'sensed'
p2767
I1
sS'smoking'
p2768
I1
sS'novel'
p2769
I1
sS'noiselessly'
p2770
I1
sS'harder'
p2771
I5
sS'owns'
p2772
I1
sS'surface'
p2773
I4
sS'examined'
p2774
I5
sS'clergyman,'
p2775
I1
sS'began'
p2776
I17
sS'parts'
p2777
I1
sS'northwest'
p2778
I1
sS'party'
p2779
I3
sS'tapped'
p2780
I1
sS'heartbeat,'
p2781
I1
sS'fierce'
p2782
I3
sS'frequently'
p2783
I2
sS'pull'
p2784
I4
sS'reflection'
p2785
I3
sS'intercede'
p2786
I1
sS'glower'
p2787
I1
sS'well'
p2788
I22
sS'silver-wrapped'
p2789
I2
sS'drowns'
p2790
I1
sS'grasped'
p2791
I1
sS'taller'
p2792
I1
sS'enormously'
p2793
I1
sS'condemned,'
p2794
I1
sS'skill'
p2795
I1
sS'coordination'
p2796
I1
sS'setup,'
p2797
I1
sS'knowing,'
p2798
I1
sS'size,'
p2799
I1
sS'homework'
p2800
I1
sS'crushed'
p2801
I1
sS'unseen'
p2802
I2
sS'immediately'
p2803
I8
sS'prominent'
p2804
I1
sS'alcohol-soaked'
p2805
I1
sS'nameplate'
p2806
I1
sS'fingerprints'
p2807
I1
sS'lose'
p2808
I1
sS'drizzly'
p2809
I2
sS'glare'
p2810
I3
sS'belonged'
p2811
I3
sS'presents,'
p2812
I2
sS'library'
p2813
I1
sS'warmer'
p2814
I1
sS'home'
p2815
I15
sS'liking'
p2816
I1
sS'drizzle'
p2817
I1
sS'before,'
p2818
I5
sS'pinpoint'
p2819
I1
sS'recognize,'
p2820
I1
sS'objected'
p2821
I1
sS'e-mail'
p2822
I2
sS'cradle'
p2823
I1
sS'fretted'
p2824
I2
sS'reaching'
p2825
I3
sS'she,'
p2826
I1
sS'chokes'
p2827
I1
sS'instinct'
p2828
I1
sS'choked'
p2829
I6
sS'recognized'
p2830
I5
sS'puppies'
p2831
I2
sS'tongue'
p2832
I1
sS'goal,'
p2833
I1
sS'sluggishly,'
p2834
I1
sS'times,'
p2835
I1
sS'strategy'
p2836
I1
sS'impatience'
p2837
I1
sS'noticed'
p2838
I9
sS'accountant'
p2839
I1
sS'notices'
p2840
I1
sS'prophetic'
p2841
I1
sS'north'
p2842
I2
sS'hazardous'
p2843
I2
sS'hi'
p2844
I2
sS'gain'
p2845
I2
sS'decisions,'
p2846
I2
sS'ha'
p2847
I2
sS'eat'
p2848
I3
sS'he'
p2849
I353
sS'notice,'
p2850
I1
sS'cells'
p2851
I1
sS'unlock'
p2852
I1
sS'signed'
p2853
I1
sS'limit'
p2854
I1
sS'piece'
p2855
I4
sS'display'
p2856
I1
sS'flecked'
p2857
I1
sS'universal'
p2858
I1
sS'penny'
p2859
I1
sS'twist'
p2860
I4
sS'slumber,'
p2861
I1
sS'kissed'
p2862
I6
sS'lopsided'
p2863
I1
sS'suspiciously'
p2864
I1
sS'virtuously'
p2865
I1
sS'yours,'
p2866
I2
sS'star'
p2867
I1
sS'inescapable'
p2868
I1
sS'stay'
p2869
I10
sS'inescapably'
p2870
I1
sS'foil'
p2871
I1
sS'stab'
p2872
I1
sS'friends'
p2873
I8
sS'yell'
p2874
I1
sS'diagnosis'
p2875
I1
sS'scowl,'
p2876
I1
sS'demand'
p2877
I1
sS'knelt'
p2878
I1
sS'fist,'
p2879
I1
sS'whose'
p2880
I7
sS'up,'
p2881
I15
sS'presents'
p2882
I8
sS'sorry'
p2883
I3
sS'fists'
p2884
I1
sS'void'
p2885
I1
sS'affect'
p2886
I1
sS'today,'
p2887
I2
sS'vast'
p2888
I1
sS'skills'
p2889
I1
sS'present,'
p2890
I1
sS'convenience'
p2891
I1
sS'prattled'
p2892
I1
sS'heading'
p2893
I2
sS'clothes'
p2894
I6
sS'beauty,'
p2895
I1
sS'force'
p2896
I6
sS'quilt'
p2897
I2
sS'me,'
p2898
I53
sS'likely'
p2899
I4
sS'even'
p2900
I46
sS'trapping'
p2901
I1
sS'lights'
p2902
I9
sS'new'
p2903
I42
sS'net'
p2904
I1
sS'ever'
p2905
I22
sS'niche'
p2906
I1
sS"parents'"
p2907
I1
sS'pancakes'
p2908
I1
sS'inhaled'
p2909
I1
sS'never'
p2910
I57
sS'drew'
p2911
I1
sS'met'
p2912
I6
sS"aren't"
p2913
I6
sS'dry'
p2914
I2
sS'light,'
p2915
I2
sS'ignoring'
p2916
I3
sS'taped'
p2917
I2
sS'permit'
p2918
I1
sS'eyebrows'
p2919
I4
sS'fragrances'
p2920
I1
sS'latched,'
p2921
I1
sS'sliced'
p2922
I2
sS'ninety'
p2923
I1
sS'guests'
p2924
I1
sS'jackets'
p2925
I1
sS'head-on'
p2926
I1
sS'exception,'
p2927
I1
sS'arms'
p2928
I13
sS'movie,'
p2929
I1
sS'call'
p2930
I9
sS'calm'
p2931
I5
sS'survive'
p2932
I1
sS'type'
p2933
I1
sS'tell'
p2934
I20
sS'potatoes,'
p2935
I1
sS'wars'
p2936
I3
sS'warn'
p2937
I1
sS'warm'
p2938
I6
sS'adult'
p2939
I3
sS'shelters'
p2940
I1
sS'gorgeous,'
p2941
I1
sS'eyebrow,'
p2942
I1
sS'room'
p2943
I29
sS'awakening'
p2944
I1
sS'roof'
p2945
I2
sS'arm,'
p2946
I3
sS'root'
p2947
I1
sS'give'
p2948
I16
sS'involve'
p2949
I1
sS'blank,'
p2950
I1
sS'aging'
p2951
I1
sS'braids'
p2952
I1
sS'amazing'
p2953
I3
sS'answer'
p2954
I16
sS'replacing'
p2955
I1
sS'vicious'
p2956
I1
sS'curiosity'
p2957
I2
sS'attempt'
p2958
I3
sS'grin,'
p2959
I1
sS'fault,'
p2960
I3
sS'still,'
p2961
I4
sS'cold,'
p2962
I2
sS'sheltering'
p2963
I1
sS'hibernation'
p2964
I1
sS'down,'
p2965
I3
sS'responsive'
p2966
I1
sS'windshield'
p2967
I1
sS'before'
p2968
I57
sS'then,'
p2969
I11
sS'personal'
p2970
I2
sS'better'
p2971
I13
sS'weeks'
p2972
I3
sS'panther,'
p2973
I1
sS'weakness'
p2974
I2
sS'piano,'
p2975
I2
sS'week,'
p2976
I1
sS'brightness'
p2977
I1
sS'sleepless'
p2978
I2
sS'leaned'
p2979
I7
sS'went'
p2980
I29
sS'side'
p2981
I19
sS'bone'
p2982
I2
sS'mean'
p2983
I15
sS'taught'
p2984
I1
sS'trading'
p2985
I1
sS'hatch'
p2986
I1
sS'stealing'
p2987
I1
sS'navy'
p2988
I1
sS'temporary'
p2989
I2
sS'velvet'
p2990
I1
sS'particles'
p2991
I1
sS'profession,'
p2992
I1
sS'start,'
p2993
I2
sS'is,'
p2994
I2
sS'surprise'
p2995
I6
sS'sluggish'
p2996
I1
sS'remoteness'
p2997
I1
sS'turning'
p2998
I1
sS'linear'
p2999
I1
sS'city'
p3000
I5
sS'skin,'
p3001
I4
sS'struggle'
p3002
I1
sS'aisle'
p3003
I4
sS'starts'
p3004
I1
sS'messages'
p3005
I2
sS'childishly'
p3006
I1
sS'moved,'
p3007
I1
sS'loud'
p3008
I6
sS'features'
p3009
I1
sS'hyperactively'
p3010
I1
sS'comforted'
p3011
I1
sS'floors'
p3012
I1
sS'ditch'
p3013
I1
sS'hood'
p3014
I3
sS'girls'
p3015
I2
sS'twisted'
p3016
I5
sS'dwell'
p3017
I2
sS'favor,'
p3018
I1
sS'bouncing'
p3019
I1
sS'gym'
p3020
I2
sS'floor,'
p3021
I1
sS'somewhat'
p3022
I1
sS'distance'
p3023
I5
sS'anxiety'
p3024
I3
sS'body,'
p3025
I6
sS'bitterness'
p3026
I1
sS'matter'
p3027
I8
sS'louder'
p3028
I5
sS'silly'
p3029
I4
sS'childlike'
p3030
I1
sS'mind'
p3031
I30
sS'mine'
p3032
I19
sS'seen'
p3033
I16
sS'seem'
p3034
I14
sS'sounding'
p3035
I2
sS'seek'
p3036
I2
sS'do,'
p3037
I4
sS'point,'
p3038
I4
sS"do'"
p3039
I1
sS'chest'
p3040
I5
sS'chess'
p3041
I1
sS'tell,'
p3042
I2
sS'wrists'
p3043
I2
sS'accident-prone,'
p3044
I1
sS'regular'
p3045
I2
sS'see,'
p3046
I4
sS'hood,'
p3047
I1
sS'medical'
p3048
I1
sS'breathes'
p3049
I1
sS'points'
p3050
I1
sS'breathed'
p3051
I4
sS'annoyed'
p3052
I1
sS'nice-looking'
p3053
I1
sS'cake'
p3054
I1
sS'ear,'
p3055
I1
sS'explain'
p3056
I4
sS'folded'
p3057
I1
sS'lisps'
p3058
I1
sS'field,'
p3059
I1
sS'folks'
p3060
I1
sS'folder'
p3061
I1
sS'wearing'
p3062
I5
sS'tiles'
p3063
I1
sS'colorful'
p3064
I1
sS'stop'
p3065
I10
sS'coast'
p3066
I1
sS'patted'
p3067
I2
sS'smug'
p3068
I2
sS'bat'
p3069
I1
sS'whooshing'
p3070
I1
sS'bag'
p3071
I12
sS'microscope'
p3072
I3
sS'softly'
p3073
I4
sS'weekend,'
p3074
I1
sS'counters'
p3075
I1
sS'ears'
p3076
I9
sS'fluffs'
p3077
I1
sS'laughing,'
p3078
I2
sS'decided'
p3079
I16
sS'spattered'
p3080
I1
sS'subject'
p3081
I7
sS'said'
p3082
I71
sS'stairs,'
p3083
I4
sS'scrap'
p3084
I1
sS"there's"
p3085
I1
sS'sorts'
p3086
I1
sS'vows'
p3087
I1
sS'ignorance'
p3088
I1
sS'cousin'
p3089
I4
sS'picking'
p3090
I2
sS'suggested'
p3091
I3
sS'uncertainty'
p3092
I1
sS'against'
p3093
I23
sS'appeared'
p3094
I3
sS'gathering'
p3095
I1
sS'inquisitive'
p3096
I1
sS'lanterns'
p3097
I2
sS'loaded'
p3098
I1
sS'now,'
p3099
I18
sS'tan,'
p3100
I1
sS'abdominal'
p3101
I1
sS'asks'
p3102
I1
sS'ceiling,'
p3103
I1
sS'three'
p3104
I16
sS'tiny'
p3105
I7
sS'sedated'
p3106
I1
sS'interest'
p3107
I2
sS'basic'
p3108
I1
sS'entered'
p3109
I2
sS'lovely'
p3110
I3
sS'threw'
p3111
I4
sS'deeper'
p3112
I2
sS'spring,'
p3113
I1
sS'suppress'
p3114
I2
sS'sunshine'
p3115
I2
sS'shattering'
p3116
I1
sS'tapping'
p3117
I3
sS'personally'
p3118
I1
sS'regretted'
p3119
I1
sS'unpopular'
p3120
I1
sS'exception'
p3121
I3
sS'tank'
p3122
I3
sS'reddish'
p3123
I1
sS'slices,'
p3124
I1
sS'okay,'
p3125
I1
sS'remaining'
p3126
I2
sS'ugly'
p3127
I1
sS'near'
p3128
I2
sS'melted'
p3129
I1
sS'suppose'
p3130
I2
sS'balance'
p3131
I2
sS'worse,'
p3132
I1
sS'thought,'
p3133
I2
sS'seven'
p3134
I6
sS'is'
p3135
I126
sS'it'
p3136
I354
sS'shame'
p3137
I1
sS'in'
p3138
I524
sS'disappear'
p3139
I3
sS'if'
p3140
I96
sS'grown'
p3141
I3
sS'growl'
p3142
I2
sS'make'
p3143
I32
sS'practice,'
p3144
I1
sS'filtered'
p3145
I2
sS'delight'
p3146
I1
sS'waterfall'
p3147
I1
sS'opportunity'
p3148
I1
sS'stiffened'
p3149
I1
sS'thoughts'
p3150
I9
sS'kid'
p3151
I2
sS'practiced'
p3152
I1
sS'settled'
p3153
I4
sS'failing'
p3154
I1
sS'qualities'
p3155
I1
sS'cool,'
p3156
I1
sS'yours'
p3157
I3
sS'handkerchief-sized'
p3158
I1
sS'left'
p3159
I21
sS'dream,'
p3160
I3
sS'just'
p3161
I94
sS'versed'
p3162
I1
sS'sporting'
p3163
I2
sS'assigned'
p3164
I1
sS'human'
p3165
I40
sS'doubts,'
p3166
I1
sS'yes'
p3167
I3
sS'yet'
p3168
I11
sS'impending'
p3169
I1
sS'soda,'
p3170
I1
sS'character'
p3171
I1
sS'jeweler'
p3172
I1
sS'crescent-shaped'
p3173
I1
sS'save'
p3174
I4
sS'ago,'
p3175
I2
sS'fluidity'
p3176
I1
sS'reuse'
p3177
I1
sS'fact,'
p3178
I2
sS'involuntary'
p3179
I1
sS'ducts'
p3180
I1
sS'background'
p3181
I2
sS'tenuous,'
p3182
I1
sS'highly'
p3183
I1
sS'shoulder'
p3184
I6
sS'bad,'
p3185
I1
sS'patience'
p3186
I2
sS'unnecessary'
p3187
I3
sS'touch,'
p3188
I2
sS'deal'
p3189
I5
sS'assimilating'
p3190
I2
sS'somehow'
p3191
I3
sS'dead'
p3192
I5
sS'tripped'
p3193
I3
sS'shapes'
p3194
I1
sS'dense'
p3195
I1
sS'daytime'
p3196
I1
sS'arguing'
p3197
I1
sS'meanings'
p3198
I1
sS'novelties'
p3199
I1
sS'burn'
p3200
I2
sS'told,'
p3201
I1
sS'super'
p3202
I1
sS'yelling'
p3203
I1
sS'conceal'
p3204
I1
sS'magazine'
p3205
I1
sS'afternoon'
p3206
I3
sS'automatically'
p3207
I4
sS'nerve'
p3208
I1
sS'thinner'
p3209
I1
sS'lied'
p3210
I4
sS'low,'
p3211
I1
sS'down'
p3212
I58
sS'lies'
p3213
I2
sS'chime'
p3214
I1
sS'frightened'
p3215
I4
sS'annoyance'
p3216
I1
sS'midnight,'
p3217
I1
sS'flying'
p3218
I2
sS'jealousy'
p3219
I1
sS'prepared,'
p3220
I1
sS'victorious'
p3221
I1
sS'fraction'
p3222
I2
sS'secondhand'
p3223
I1
sS'form'
p3224
I3
sS'lie,'
p3225
I1
sS'titters'
p3226
I1
sS'assessment'
p3227
I1
sS'attached'
p3228
I1
sS'trends'
p3229
I1
sS'temper'
p3230
I1
sS'discovery,'
p3231
I1
sS'classic'
p3232
I1
sS'die,'
p3233
I1
sS'stirrings'
p3234
I1
sS'explained,'
p3235
I2
sS'handed'
p3236
I7
sS"kitchen's"
p3237
I1
sS'ribbons'
p3238
I2
sS'willingness,'
p3239
I1
sS'felt'
p3240
I35
sS'diet'
p3241
I3
sS'fell'
p3242
I4
sS'hissed,'
p3243
I1
sS'weekend'
p3244
I3
sS'ribbon,'
p3245
I2
sS'assume'
p3246
I6
sS'blushing'
p3247
I3
sS'jacket'
p3248
I2
sS'alert,'
p3249
I1
sS'teeth'
p3250
I10
sS'precise'
p3251
I2
sS'managed'
p3252
I4
sS'skip'
p3253
I3
sS'bogusly'
p3254
I1
sS'souls'
p3255
I5
sS'skin'
p3256
I29
sS'continued,'
p3257
I3
sS'suicide'
p3258
I1
sS'father'
p3259
I5
sS'blocking'
p3260
I2
sS'answered'
p3261
I8
sS'finally'
p3262
I14
sS'me'
p3263
I409
sS'string'
p3264
I1
sS'strangers,'
p3265
I2
sS'soul,'
p3266
I5
sS'uneventful'
p3267
I1
sS'attractive,'
p3268
I1
sS'rang,'
p3269
I1
sS'hugest'
p3270
I1
sS'did'
p3271
I54
sS'die'
p3272
I3
sS'item'
p3273
I1
sS'stapled'
p3274
I1
sS'grimace'
p3275
I1
sS'round'
p3276
I1
sS'anesthetic'
p3277
I1
sS'unexpected'
p3278
I1
sS'fearing'
p3279
I2
sS'else,'
p3280
I3
sS'dealing'
p3281
I1
sS'inconsequential'
p3282
I1
sS'run'
p3283
I7
sS'sphere,'
p3284
I1
sS'suspect'
p3285
I1
sS'silly,'
p3286
I2
sS'filled'
p3287
I8
sS'growls'
p3288
I1
sS'wait'
p3289
I8
sS'box'
p3290
I11
sS'boy'
p3291
I10
sS'salvage'
p3292
I1
sS'bruises'
p3293
I1
sS'grinned'
p3294
I1
sS'half-opened,'
p3295
I1
sS'suggestion'
p3296
I1
sS'here,'
p3297
I11
sS'shook'
p3298
I8
sS'genuinely'
p3299
I1
sS'teenage'
p3300
I1
sS'useful'
p3301
I1
sS'merely'
p3302
I2
sS'sweating'
p3303
I2
sS'sharper'
p3304
I1
sS'visit'
p3305
I3
sS'ways,'
p3306
I1
sS'perm'
p3307
I1
sS'lessened'
p3308
I1
sS'adoringly'
p3309
I1
sS'rigid'
p3310
I2
sS'effort'
p3311
I5
sS'capturing'
p3312
I1
sS'fictionalized'
p3313
I1
sS'avoiding'
p3314
I1
sS'soul'
p3315
I29
sS'sour'
p3316
I2
sS'growing'
p3317
I2
sS'making'
p3318
I18
sS'arrive'
p3319
I3
sS'lords'
p3320
I1
sS'crazy'
p3321
I2
sS'aisle,'
p3322
I1
sS'predict'
p3323
I1
sS'confused'
p3324
I3
sS'pointedly'
p3325
I1
sS'battered'
p3326
I1
sS'pink'
p3327
I5
sS'buffed,'
p3328
I1
sS'pine'
p3329
I1
sS'till'
p3330
I9
sS'swore'
p3331
I1
sS'pins'
p3332
I1
sS'sworn'
p3333
I2
sS'pathway'
p3334
I1
sS'map'
p3335
I3
sS'designer'
p3336
I1
sS'may'
p3337
I2
sS'mad'
p3338
I1
sS'tablecloth'
p3339
I1
sS'destructive'
p3340
I1
sS'classroom,'
p3341
I2
sS'man'
p3342
I19
sS'omen'
p3343
I1
sS'maybe'
p3344
I10
sS'silence'
p3345
I10
sS'tall'
p3346
I5
sS'gesture'
p3347
I2
sS'shoes'
p3348
I1
sS'wishing'
p3349
I2
sS'entity'
p3350
I1
sS'introductions'
p3351
I1
sS'shake'
p3352
I3
sS'view,'
p3353
I1
sS'klutz'
p3354
I1
sS'group'
p3355
I1
sS'monitor'
p3356
I1
sS'interesting'
p3357
I4
sS'main'
p3358
I2
sS'truest'
p3359
I1
sS'tucked'
p3360
I2
sS'rattled'
p3361
I1
sS'argue,'
p3362
I1
sS'lunch'
p3363
I6
sS'touching'
p3364
I1
sS'shoe,'
p3365
I1
sS'opens,'
p3366
I1
sS'kids,'
p3367
I1
sS'killed'
p3368
I3
sS'aware,'
p3369
I1
sS'rock'
p3370
I1
sS'vogue'
p3371
I1
sS'nattering'
p3372
I1
sS'treacherous'
p3373
I1
sS'or,'
p3374
I1
sS'girl'
p3375
I11
sS'living'
p3376
I12
sS'miles'
p3377
I4
sS'thin,'
p3378
I2
sS'correct'
p3379
I2
sS'assurance'
p3380
I1
sS'earlier'
p3381
I1
sS'monster'
p3382
I1
sS'sideways'
p3383
I2
sS'stunning,'
p3384
I1
sS'pumping'
p3385
I1
sS'spied'
p3386
I1
sS'language'
p3387
I6
sS'rule'
p3388
I2
sS'drizzling'
p3389
I1
sS"dress's"
p3390
I1
sS'thing'
p3391
I23
sS'think'
p3392
I65
sS'waited'
p3393
I13
sS'first'
p3394
I39
sS'cheese'
p3395
I1
sS'fleeing'
p3396
I1
sS'question'
p3397
I11
sS'crib'
p3398
I1
sS'but,'
p3399
I3
sS'fast'
p3400
I6
sS'carry'
p3401
I3
sS'sounds'
p3402
I3
sS'eye,'
p3403
I3
sS'little'
p3404
I46
sS'arch'
p3405
I1
sS'slept'
p3406
I1
sS'immortals'
p3407
I1
sS'anyone'
p3408
I12
sS'outsiders,'
p3409
I1
sS'speaking'
p3410
I5
sS'eyes'
p3411
I86
sS'sound,'
p3412
I4
sS'accurately'
p3413
I1
sS'blacklist'
p3414
I2
sS'eyed'
p3415
I1
sS'seat'
p3416
I14
sS'scraping'
p3417
I1
sS'immortal,'
p3418
I1
sS'were'
p3419
I180
sS'inferring'
p3420
I1
sS'lullaby'
p3421
I3
sS'voices'
p3422
I6
sS'spectacle'
p3423
I1
sS'coming,'
p3424
I1
sS'occupied'
p3425
I1
sS'clung'
p3426
I3
sS'answering'
p3427
I1
sS'isolate'
p3428
I1
sS'shocked'
p3429
I2
sS'potential'
p3430
I1
sS'haste'
p3431
I1
sS'wonder'
p3432
I5
sS'switching'
p3433
I1
sS'pain'
p3434
I12
sS'trace'
p3435
I3
sS'normal'
p3436
I7
sS'track'
p3437
I2
sS'paid'
p3438
I1
sS'voice,'
p3439
I4
sS'sheets'
p3440
I1
sS'complaints'
p3441
I2
sS'tugging'
p3442
I2
sS'conspicuous'
p3443
I1
sS'especially'
p3444
I2
sS'wreathed'
p3445
I1
sS'gracefully'
p3446
I1
sS'alone,'
p3447
I3
sS'repeatedly'
p3448
I1
sS'shop'
p3449
I2
sS'shot'
p3450
I4
sS'show'
p3451
I5
sS'bedside'
p3452
I1
sS'corner'
p3453
I11
sS'curled'
p3454
I1
sS'enthusiast'
p3455
I1
sS'fend'
p3456
I1
sS'enough'
p3457
I32
sS'black'
p3458
I19
sS'enthusiasm'
p3459
I3
sS'awareness'
p3460
I1
sS'get'
p3461
I75
sS'hostage'
p3462
I1
sS'nearly'
p3463
I8
sS'wheeze'
p3464
I2
sS'gel'
p3465
I1
sS'seared'
p3466
I1
sS'snorted'
p3467
I1
sS'morning'
p3468
I6
sS'accounts,'
p3469
I1
sS'stupid'
p3470
I4
sS'fringes,'
p3471
I1
sS'finishing'
p3472
I1
sS'worrying'
p3473
I2
sS'silently'
p3474
I4
sS'tux'
p3475
I2
sS'declared'
p3476
I3
sS'heartbeats,'
p3477
I1
sS'stipulation'
p3478
I2
sS'calendar'
p3479
I1
sS'eyepiece'
p3480
I1
sS'camping'
p3481
I1
sS'label'
p3482
I1
sS"father's"
p3483
I2
sS'behind'
p3484
I21
sS'herself,'
p3485
I1
sS'reading'
p3486
I2
sS'moaned'
p3487
I1
sS'across'
p3488
I13
sS'oversized'
p3489
I2
sS'whispered'
p3490
I14
sS'pained'
p3491
I1
sS'killing'
p3492
I1
sS'honest,'
p3493
I2
sS'mutters,'
p3494
I1
sS'disappointment'
p3495
I2
sS'spare'
p3496
I1
sS'traded'
p3497
I3
sS'among'
p3498
I5
sS'accusation'
p3499
I1
sS'stretched'
p3500
I6
sS'cancel'
p3501
I1
sS'distracted,'
p3502
I1
sS'considering'
p3503
I1
sS'destroyed'
p3504
I3
sS'unusual'
p3505
I3
sS'capable'
p3506
I2
sS'mark'
p3507
I1
sS'shopping'
p3508
I2
sS'offered'
p3509
I4
sS'suns,'
p3510
I1
sS'gripped'
p3511
I1
sS'those'
p3512
I12
sS'breakfast,'
p3513
I1
sS'sound'
p3514
I26
sS'stacked'
p3515
I1
sS'problem,'
p3516
I4
sS'eventually'
p3517
I1
sS'rubbing'
p3518
I1
sS'sleeping'
p3519
I2
sS'middle'
p3520
I5
sS'sudden'
p3521
I4
sS'ferns'
p3522
I1
sS'movements'
p3523
I2
sS'bags'
p3524
I1
sS'different'
p3525
I13
sS'harsh'
p3526
I2
sS'doctor'
p3527
I3
sS'pay'
p3528
I3
sS'same'
p3529
I23
sS'speech'
p3530
I3
sS'arguments'
p3531
I1
sS'stepped'
p3532
I6
sS'chatter,'
p3533
I1
sS'movement,'
p3534
I1
sS'extended'
p3535
I1
sS'knowledge,'
p3536
I1
sS'running'
p3537
I8
sS'guardians'
p3538
I1
sS'bathroom,'
p3539
I1
sS'totally'
p3540
I1
sS'businesslike'
p3541
I1
sS'bottle'
p3542
I1
sS'absence,'
p3543
I1
sS'bag,'
p3544
I4
sS'lumbered'
p3545
I1
sS'summers,'
p3546
I1
sS'money'
p3547
I6
sS'thudding'
p3548
I1
sS'pile'
p3549
I5
sS'wife,'
p3550
I2
sS'obligingly'
p3551
I1
sS'grit'
p3552
I1
sS'presentable'
p3553
I1
sS'considerately'
p3554
I1
sS'tensed'
p3555
I1
sS'sight,'
p3556
I2
sS'mom'
p3557
I13
sS'less-alarming'
p3558
I1
sS'disappointed'
p3559
I1
sS'grin'
p3560
I1
sS'possessive'
p3561
I1
sS'indecipherable'
p3562
I1
sS'identifying'
p3563
I1
sS'facing'
p3564
I1
sS'audience'
p3565
I3
sS'either'
p3566
I10
sS'served'
p3567
I1
sS'voluntarily'
p3568
I1
sS'second,'
p3569
I12
sS'images'
p3570
I1
sS'matching'
p3571
I2
sS'spasm'
p3572
I1
sS'booming'
p3573
I1
sS'pocket,'
p3574
I2
sS'overly'
p3575
I3
sS'expressing'
p3576
I1
sS'claustrophobia'
p3577
I1
sS'linoleum'
p3578
I2
sS'knife'
p3579
I2
sS'deadbolt'
p3580
I1
sS'airways'
p3581
I1
sS'seconds'
p3582
I3
sS'unopened'
p3583
I1
sS'broken'
p3584
I3
sS'obsession,'
p3585
I1
sS'giggle'
p3586
I2
sS'violence'
p3587
I5
sS'community,'
p3588
I1
sS'pockets'
p3589
I3
sS'mixed'
p3590
I1
sS'out,'
p3591
I5
sS'road'
p3592
I3
sS'quietly'
p3593
I5
sS'decimated'
p3594
I1
sS'whiter'
p3595
I1
sS'spreading'
p3596
I1
sS'staircase,'
p3597
I1
sS'strip'
p3598
I1
sS'morning,'
p3599
I4
sS'paraphernalia'
p3600
I1
sS'distracted'
p3601
I3
sS'hysterical'
p3602
I1
sS'tobacco,'
p3603
I1
sS'bookstore'
p3604
I1
sS'gore'
p3605
I1
sS'walkway'
p3606
I2
sS'downstairs'
p3607
I3
sS'anatomy,'
p3608
I1
sS'romantic'
p3609
I1
sS"wasn't"
p3610
I55
sS'billowed'
p3611
I1
sS'peeking'
p3612
I1
sS'faces,'
p3613
I1
sS'deep'
p3614
I15
sS'examine'
p3615
I3
sS"she'd"
p3616
I13
sS'acclimates'
p3617
I1
sS'girlfriend'
p3618
I1
sS'lifetime'
p3619
I1
sS'film'
p3620
I1
sS'fill'
p3621
I1
sS'tedious'
p3622
I1
sS'again'
p3623
I38
sS'depth'
p3624
I1
sS'field'
p3625
I1
sS'wet,'
p3626
I2
sS'sick,'
p3627
I1
sS'students'
p3628
I9
sS'planet,'
p3629
I1
sS'awkwardly'
p3630
I3
sS'remote'
p3631
I1
sS'rekindled'
p3632
I1
sS'tightened'
p3633
I2
sS'midstride'
p3634
I1
sS'starting'
p3635
I4
sS'forget'
p3636
I7
sS'slung'
p3637
I1
sS'translation,'
p3638
I1
sS'expressions'
p3639
I1
sS'children'
p3640
I6
sS'shattered'
p3641
I2
sS'red-hot'
p3642
I1
sS'day,'
p3643
I4
sS'mother,'
p3644
I3
sS'footsteps,'
p3645
I1
sS'enjoying'
p3646
I1
sS'expression,'
p3647
I1
sS'sitting'
p3648
I13
sS'bowery'
p3649
I1
sS'aware'
p3650
I10
sS'sun,'
p3651
I1
sS'bleach'
p3652
I1
sS'difference'
p3653
I5
sS'elated'
p3654
I1
sS'washing'
p3655
I3
sS'along,'
p3656
I1
sS'nine,'
p3657
I1
sS'undulated'
p3658
I1
sS'grabs'
p3659
I2
sS'winds'
p3660
I1
sS'quiet,'
p3661
I4
sS'further'
p3662
I1
sS'partners,'
p3663
I1
sS'chafing'
p3664
I1
sS'dial'
p3665
I2
sS'stood'
p3666
I13
sS'gash,'
p3667
I1
sS'youngest,'
p3668
I2
sS'unmatching'
p3669
I1
sS'tribute'
p3670
I2
sS'public'
p3671
I2
sS'movement'
p3672
I6
sS'ranged'
p3673
I1
sS'operating'
p3674
I3
sS'knife,'
p3675
I1
sS'fantasies'
p3676
I1
sS'search'
p3677
I1
sS'airport'
p3678
I1
sS'narrow'
p3679
I2
sS'tottered'
p3680
I1
sS'bright,'
p3681
I1
sS'extinction'
p3682
I1
sS'armed'
p3683
I1
sS'archangel'
p3684
I1
sS'eye'
p3685
I3
sS'composure'
p3686
I1
sS'hillock'
p3687
I2
sS'wiped'
p3688
I2
sS'two'
p3689
I28
sS'guard,'
p3690
I1
sS'error'
p3691
I1
sS'wobbles'
p3692
I1
sS'diamond'
p3693
I1
sS'cedars'
p3694
I2
sS'staggering'
p3695
I1
sS'brisk'
p3696
I1
sS"family's"
p3697
I3
sS'landed'
p3698
I3
sS'particular'
p3699
I5
sS'nineteen'
p3700
I1
sS'town'
p3701
I16
sS'none'
p3702
I4
sS'hour'
p3703
I6
sS'intercepted'
p3704
I1
sS'snickered,'
p3705
I1
sS"dancer's"
p3706
I1
sS'abandon'
p3707
I1
sS'nothing,'
p3708
I1
sS'marble'
p3709
I3
sS'lingered'
p3710
I3
sS'stubborn'
p3711
I2
sS'onslaught'
p3712
I1
sS'share'
p3713
I3
sS'seventeen-year-old'
p3714
I1
sS'conceding'
p3715
I1
sS'numbers'
p3716
I2
sS'sharp'
p3717
I8
sS'needs'
p3718
I1
sS'awkward'
p3719
I4
sS'cocking'
p3720
I1
sS'comfort'
p3721
I3
sS'pressing'
p3722
I1
sS'maps'
p3723
I1
sS'painful,'
p3724
I1
sS'blood'
p3725
I9
sS'coming'
p3726
I12
sS'gravel,'
p3727
I1
sS'response'
p3728
I6
sS'bleak'
p3729
I1
sS'crowded'
p3730
I2
sS'coat'
p3731
I1
sS'map,'
p3732
I1
sS'upholstered'
p3733
I1
sS'coal'
p3734
I1
sS'pleasure'
p3735
I1
sS'hesitated,'
p3736
I1
sS'need,'
p3737
I1
sS"that's"
p3738
I11
sS'rounded'
p3739
I1
sS'wall,'
p3740
I1
sS'through'
p3741
I77
sS'steady,'
p3742
I2
sS'existence'
p3743
I2
sS'suffer'
p3744
I1
sS'thrilling'
p3745
I1
sS'fissure'
p3746
I1
sS'late'
p3747
I7
sS'microscopic'
p3748
I1
sS'toes,'
p3749
I1
sS'good'
p3750
I39
sS'thinking,'
p3751
I1
sS'seeking'
p3752
I1
sS'males'
p3753
I1
sS'encouraging'
p3754
I2
sS'walls'
p3755
I5
sS'complain'
p3756
I1
sS'association'
p3757
I1
sS'easily'
p3758
I4
sS'huddle'
p3759
I1
sS'pregnant'
p3760
I2
sS'resentment,'
p3761
I1
sS'fluttered'
p3762
I1
sS'habits'
p3763
I1
sS'ex-wife,'
p3764
I1
sS'watched,'
p3765
I2
sS'everyone'
p3766
I13
sS'difficult,'
p3767
I1
sS'house'
p3768
I21
sS'hard'
p3769
I27
sS'idea'
p3770
I10
sS'oil'
p3771
I1
sS'fist'
p3772
I2
sS'childish'
p3773
I1
sS'acting'
p3774
I1
sS'dejectedly'
p3775
I1
sS'computer,'
p3776
I2
sS'flowed'
p3777
I3
sS'print'
p3778
I1
sS'cloaks,'
p3779
I2
sS'pleasant'
p3780
I2
sS'extraordinary'
p3781
I1
sS'disposition'
p3782
I1
sS'backed'
p3783
I1
sS'beginning'
p3784
I2
sS'chairs,'
p3785
I1
sS'demands,'
p3786
I1
sS'muscles,'
p3787
I1
sS'needing'
p3788
I1
sS'indebted'
p3789
I1
sS'embraces'
p3790
I1
sS'doctor,'
p3791
I1
sS'been,'
p3792
I3
sS'trembling,'
p3793
I1
sS'embraced'
p3794
I1
sS'heights'
p3795
I1
sS'precariously'
p3796
I1
sS'senses,'
p3797
I2
sS'twenty'
p3798
I2
sS'family,'
p3799
I5
sS'least'
p3800
I18
sS'paint'
p3801
I2
sS'statement'
p3802
I1
sS'smoothed'
p3803
I1
sS'muscles'
p3804
I2
sS'needle'
p3805
I1
sS'sensation'
p3806
I5
sS'draped'
p3807
I2
sS'part'
p3808
I13
sS'believe'
p3809
I14
sS'embrace,'
p3810
I1
sS'carnage'
p3811
I1
sS'peaked'
p3812
I1
sS'incision'
p3813
I1
sS'gotten'
p3814
I5
sS'supposed'
p3815
I7
sS'curtains'
p3816
I1
sS'marinade'
p3817
I1
sS'creases'
p3818
I3
sS'fading'
p3819
I2
sS'mountain'
p3820
I1
sS'built'
p3821
I1
sS'scrubby'
p3822
I1
sS'reflection,'
p3823
I1
sS'couch'
p3824
I2
sS'build'
p3825
I1
sS'facts,'
p3826
I1
sS'province'
p3827
I1
sS'serene'
p3828
I2
sS'over-helpful'
p3829
I1
sS'eggs'
p3830
I2
sS'conspicuously'
p3831
I1
sS'most'
p3832
I22
sS"fore'ter"
p3833
I1
sS'refrigerator'
p3834
I1
sS'giggling'
p3835
I1
sS'myeyes'
p3836
I1
sS'cramped'
p3837
I1
sS'amazed'
p3838
I1
sS'sector'
p3839
I1
sS'particularly'
p3840
I1
sS'followed,'
p3841
I1
sS'carefully'
p3842
I11
sS'hopped'
p3843
I1
sS'fine'
p3844
I9
sS'find'
p3845
I22
sS'depended'
p3846
I1
sS'nervous'
p3847
I2
sS'ruin'
p3848
I1
sS'unhappy'
p3849
I1
sS'chimed'
p3850
I1
sS'diplomats,'
p3851
I1
sS'toddlers'
p3852
I1
sS'silk'
p3853
I1
sS'spikes'
p3854
I1
sS'remove'
p3855
I4
sS'common'
p3856
I2
sS'tended'
p3857
I2
sS'individual'
p3858
I1
sS'acquaintances,'
p3859
I1
sS'response,'
p3860
I1
sS'feared'
p3861
I2
sS'enveloped'
p3862
I1
sS'please'
p3863
I4
sS'burned'
p3864
I3
sS'responses'
p3865
I1
sS'missile-proof'
p3866
I2
sS'folding'
p3867
I2
sS'reverse'
p3868
I1
sS'restaurant'
p3869
I1
sS'foreign'
p3870
I1
sS'tightens'
p3871
I1
sS'repair,'
p3872
I1
sS'point'
p3873
I13
sS'simple'
p3874
I1
sS'newborn'
p3875
I1
sS'simply'
p3876
I2
sS'forgetting,'
p3877
I1
sS'talents,'
p3878
I1
sS'expensive'
p3879
I5
sS'weaving'
p3880
I1
sS'raise'
p3881
I1
sS'instrument'
p3882
I1
sS'secret'
p3883
I8
sS'omniscient'
p3884
I1
sS'meeting'
p3885
I3
sS'recovered,'
p3886
I1
sS'gas'
p3887
I5
sS'instant,'
p3888
I1
sS'dissension'
p3889
I1
sS'understand'
p3890
I9
sS'peaceful,'
p3891
I1
sS'resisted'
p3892
I1
sS'cake,'
p3893
I2
sS'unnecessarily'
p3894
I1
sS'bile'
p3895
I1
sS'fur'
p3896
I2
sS'raw'
p3897
I1
sS'solid'
p3898
I3
sS'irises'
p3899
I1
sS'candles,'
p3900
I1
sS'replaced'
p3901
I2
sS'fun'
p3902
I5
sS'grip'
p3903
I5
sS'century'
p3904
I2
sS'ones,'
p3905
I1
sS'perilously'
p3906
I1
sS'husband,'
p3907
I1
sS'personal,'
p3908
I1
sS'development'
p3909
I1
sS'keys'
p3910
I1
sS'yesterday'
p3911
I1
sS'desks'
p3912
I1
sS'moment'
p3913
I18
sS'purpose'
p3914
I1
sS'task'
p3915
I1
sS'werewolf'
p3916
I1
sS'spent'
p3917
I4
sS'hyperventilation'
p3918
I1
sS'spend'
p3919
I6
sS'echoing'
p3920
I1
sS'memories,'
p3921
I1
sS'matter,'
p3922
I1
sS'irresistible,'
p3923
I1
sS'shape'
p3924
I2
sS'circling'
p3925
I1
sS'lives,'
p3926
I1
sS'alternative'
p3927
I1
sS'letting'
p3928
I2
sS'cut'
p3929
I7
sS'hated'
p3930
I2
sS'danger'
p3931
I4
sS'shouting'
p3932
I1
sS'cue'
p3933
I1
sS'bravery'
p3934
I1
sS'scowled'
p3935
I1
sS'excited'
p3936
I4
sS'hates'
p3937
I1
sS'ridiculously'
p3938
I1
sS'big'
p3939
I14
sS'jerked'
p3940
I2
sS'bit'
p3941
I9
sS'jobs,'
p3942
I1
sS'miffed'
p3943
I2
sS'flux'
p3944
I1
sS'jolted'
p3945
I1
sS'bamboo'
p3946
I1
sS'often'
p3947
I3
sS'absolutely'
p3948
I3
sS"girl's"
p3949
I1
sS'mirror'
p3950
I5
sS'ourselves'
p3951
I1
sS'scale'
p3952
I1
sS'decision'
p3953
I2
sS'pile,'
p3954
I1
sS'epic'
p3955
I1
sS'good,'
p3956
I4
sS'laughing'
p3957
I5
sS'lounged'
p3958
I1
sS'remembered'
p3959
I6
sS'yoga,'
p3960
I1
sS'taught,'
p3961
I1
sS'tripping'
p3962
I2
sS'goods'
p3963
I2
sS'truck'
p3964
I25
sS'conciliatory'
p3965
I1
sS'piled'
p3966
I1
sS'hope,'
p3967
I2
sS'aliens'
p3968
I1
sS'boy,'
p3969
I3
sS'concerned,'
p3970
I1
sS'calming'
p3971
I1
sS'plane,'
p3972
I1
sS'overpower'
p3973
I1
sS'forward'
p3974
I8
sS'bored'
p3975
I1
sS'impossiblypainful'
p3976
I1
sS'hoped'
p3977
I6
sS'boys'
p3978
I1
sS'darkness,'
p3979
I2
sS'planet'
p3980
I5
sS'aversion'
p3981
I2
sS'helpful,'
p3982
I1
sS'devastating'
p3983
I2
sS'constant'
p3984
I2
sS'metal'
p3985
I1
sS'blushed,'
p3986
I1
sS'single'
p3987
I2
sS"town's"
p3988
I1
sS'curl'
p3989
I1
sS'pecks'
p3990
I1
sS'plugged'
p3991
I1
sS'brushing'
p3992
I1
sS'neck,'
p3993
I2
sS'prepared'
p3994
I2
sS'intensified'
p3995
I1
sS'utterly'
p3996
I1
sS'admiring'
p3997
I2
sS'implied'
p3998
I1
sS'pulsing'
p3999
I1
sS'intricate'
p4000
I1
sS'dime,'
p4001
I2
sS'compose'
p4002
I1
sS'blaze'
p4003
I2
sS'gravel'
p4004
I1
sS'gray,'
p4005
I1
sS'startlingly'
p4006
I1
sS'putting'
p4007
I4
sS'surgeon'
p4008
I1
sS'entire'
p4009
I2
sS'shock'
p4010
I5
sS'relax,'
p4011
I1
sS'unsatisfied'
p4012
I1
sS'safe,'
p4013
I1
sS'bleeding'
p4014
I1
sS'uncomfortably'
p4015
I1
sS'uncomfortable'
p4016
I5
sS'confided'
p4017
I1
sS'giving'
p4018
I2
sS'access'
p4019
I2
sS'anywhere'
p4020
I4
sS'body'
p4021
I36
sS'exchange'
p4022
I1
sS'apologetic'
p4023
I1
sS'river,'
p4024
I1
sS'bachelor'
p4025
I3
sS'sink'
p4026
I1
sS'others'
p4027
I9
sS'lovely,'
p4028
I3
sS'greeneryoutside'
p4029
I1
sS'extreme'
p4030
I2
sS'talent'
p4031
I1
sS'lower-income'
p4032
I1
sS'eating,'
p4033
I1
sS'added,'
p4034
I3
sS'honor'
p4035
I1
sS'named'
p4036
I6
sS'blizzard'
p4037
I1
sS'private'
p4038
I1
sS'names'
p4039
I6
sS'themselves'
p4040
I6
sS'assailed'
p4041
I1
sS'excitedly'
p4042
I2
sS'upcoming'
p4043
I1
sS'trait'
p4044
I1
sS'name,'
p4045
I12
sS'dripping'
p4046
I5
sS'train'
p4047
I3
sS'ashamed'
p4048
I2
sS'gruff'
p4049
I1
sS'obvious'
p4050
I6
sS'rectangle'
p4051
I1
sS'soon-to-be'
p4052
I1
sS'water,'
p4053
I2
sS'bones'
p4054
I2
sS'building,'
p4055
I1
sS'native'
p4056
I2
sS'awkwardness'
p4057
I1
sS'holds'
p4058
I1
sS'responsibilities'
p4059
I1
sS'snipping'
p4060
I1
sS'forest'
p4061
I2
sS'grimaced'
p4062
I1
sS'stock'
p4063
I1
sS'buildings'
p4064
I1
sS'waters'
p4065
I1
sS'collection'
p4066
I2
sS'fluid'
p4067
I1
sS'sadistic'
p4068
I1
sS'lines'
p4069
I9
sS'chief'
p4070
I1
sS'furious'
p4071
I2
sS'lined'
p4072
I3
sS'wanted,'
p4073
I1
sS'adjust'
p4074
I3
sS'wedding'
p4075
I13
sS'whimpered'
p4076
I1
sS'symbols'
p4077
I1
sS'hugged'
p4078
I2
sS'breaths,'
p4079
I1
sS'winning'
p4080
I1
sS'kindergarten'
p4081
I1
sS'willing'
p4082
I2
sS'rough,'
p4083
I1
sS'dad'
p4084
I7
sS'greater'
p4085
I2
sS'instead'
p4086
I5
sS'insisting'
p4087
I1
sS'kindness'
p4088
I1
sS'grudgingly'
p4089
I1
sS'serpentine'
p4090
I1
sS'snowdrift'
p4091
I1
sS'warned'
p4092
I2
sS'least,'
p4093
I1
sS'embellished'
p4094
I1
sS'bothturned'
p4095
I1
sS'winked'
p4096
I1
sS'pantry'
p4097
I1
sS'most,'
p4098
I1
sS'accumulated'
p4099
I1
sS'popping'
p4100
I1
sS'lungs,'
p4101
I1
sS'barrier,'
p4102
I1
sS'hedges'
p4103
I1
sS"don't,"
p4104
I1
sS'mate'
p4105
I1
sS'flushing'
p4106
I1
sS'lecture'
p4107
I1
sS'wincing'
p4108
I1
sS'announced'
p4109
I2
sS'approached'
p4110
I2
sS'fourteen'
p4111
I1
sS'decorations,'
p4112
I1
sS'afterward'
p4113
I1
sS'retriever'
p4114
I1
sS'cured'
p4115
I1
sS'curiously,'
p4116
I1
sS'south'
p4117
I1
sS'braced'
p4118
I1
sS'reaches'
p4119
I1
sS'embarrassed'
p4120
I2
sS'reached'
p4121
I12
sS'grins,'
p4122
I1
sS'braces'
p4123
I1
sS'ancient'
p4124
I3
sS'thirties'
p4125
I1
sS'monkey'
p4126
I1
sS'wistfully'
p4127
I1
sS'scans'
p4128
I1
sS'gear'
p4129
I1
sS'eavesdrop'
p4130
I1
sS'nobody'
p4131
I2
sS'loved'
p4132
I6
sS'shampoo'
p4133
I1
sS'flashed'
p4134
I3
sS'boyish'
p4135
I1
sS'loves'
p4136
I1
sS'flashes'
p4137
I1
sS'imaginative'
p4138
I1
sS'wakes'
p4139
I1
sS'tidy'
p4140
I1
sS'comfortable'
p4141
I9
sS'unlikely'
p4142
I1
sS'have'
p4143
I162
sS'throat'
p4144
I12
sS'apparently'
p4145
I5
sS'acceleration'
p4146
I2
sS'looks,'
p4147
I1
sS'mix'
p4148
I1
sS'expected,'
p4149
I4
sS'parka'
p4150
I1
sS'unless'
p4151
I1
sS'mortal'
p4152
I1
sS"where's"
p4153
I1
sS'eight'
p4154
I3
sS'sedan'
p4155
I1
sS'enthusiastic'
p4156
I1
sS'gather'
p4157
I2
sS'concern,'
p4158
I1
sS'park,'
p4159
I1
sS'rendezvous'
p4160
I3
sS'lions,'
p4161
I1
sS'normally'
p4162
I1
sS'searching,'
p4163
I1
sS'gasping'
p4164
I1
sS'fifty-seven'
p4165
I1
sS'knowledge'
p4166
I3
sS'team,'
p4167
I1
sS'fumbled'
p4168
I1
sS'exceptional'
p4169
I1
sS'beat'
p4170
I3
sS'stripes'
p4171
I1
sS'bear'
p4172
I5
sS'beam'
p4173
I1
sS'eyebrow'
p4174
I2
sS'anything,'
p4175
I4
sS'motherhood'
p4176
I1
sS'exists'
p4177
I2
sS'racked'
p4178
I1
sS'intensity'
p4179
I2
sS'enhanced'
p4180
I1
sS'phases'
p4181
I1
sS'pattern'
p4182
I3
sS'difficulties'
p4183
I1
sS'routine'
p4184
I2
sS'pursed'
p4185
I1
sS'nudged'
p4186
I2
sS'he,'
p4187
I1
sS'squared-off'
p4188
I1
sS'exist,'
p4189
I1
sS'instant'
p4190
I1
sS'joke'
p4191
I1
sS'taking'
p4192
I11
sS'trips'
p4193
I1
sS'fulfilled'
p4194
I1
sS'assure'
p4195
I1
sS'busted'
p4196
I2
sS'swallow'
p4197
I1
sS'phase,'
p4198
I1
sS'glorious'
p4199
I2
sS'otherwise'
p4200
I2
sS'comment'
p4201
I1
sS'teasing'
p4202
I2
sS'laugh'
p4203
I4
sS'done,'
p4204
I2
sS'rippled,'
p4205
I1
sS'pity,'
p4206
I1
sS"it's"
p4207
I27
sS'gaze'
p4208
I2
sS'curtain'
p4209
I1
sS'copied'
p4210
I1
sS'protective,'
p4211
I1
sS'home,'
p4212
I5
sS'angled'
p4213
I1
sS'perplexed'
p4214
I1
sS'received'
p4215
I1
sS'looked,'
p4216
I1
sS'finished'
p4217
I5
sS'tense'
p4218
I2
sS'volunteer'
p4219
I1
sS'crustiness'
p4220
I1
sS'plain'
p4221
I3
sS'appearance'
p4222
I1
sS'stay-at-home,'
p4223
I1
sS'rectangular'
p4224
I2
sS'hampering'
p4225
I1
sS'ill'
p4226
I1
sS'at'
p4227
I229
sS'hand-eye'
p4228
I1
sS'planets'
p4229
I2
sS'sister,'
p4230
I3
sS'almost'
p4231
I24
sS'started,'
p4232
I1
sS'weighed'
p4233
I1
sS'claimed'
p4234
I1
sS'partner'
p4235
I1
sS'tumbled'
p4236
I1
sS'though,'
p4237
I9
sS'grimaced,'
p4238
I1
sS'slammed'
p4239
I5
sS'injured'
p4240
I1
sS'tighten'
p4241
I1
sS'practice'
p4242
I2
sS'sisters'
p4243
I1
sS'judgment'
p4244
I1
sS'center'
p4245
I5
sS'overshadowed'
p4246
I1
sS'thought'
p4247
I47
sS'position'
p4248
I4
sS'hesitates,'
p4249
I1
sS'usual'
p4250
I8
sS'nicknames'
p4251
I1
sS'nails,'
p4252
I1
sS'older,'
p4253
I2
sS'seats'
p4254
I2
sS'protecting'
p4255
I1
sS'flashlight'
p4256
I1
sS'work,'
p4257
I1
sS'slower,'
p4258
I1
sS'add'
p4259
I1
sS'citizen'
p4260
I1
sS'match'
p4261
I1
sS'loss,'
p4262
I1
sS'seat,'
p4263
I3
sS'gurgles,'
p4264
I1
sS'nickname,'
p4265
I2
sS'naturally'
p4266
I2
sS'like'
p4267
I135
sS'inviting'
p4268
I1
sS'sofa'
p4269
I3
sS'admitted'
p4270
I6
sS'works'
p4271
I1
sS'soft'
p4272
I13
sS'heel'
p4273
I1
sS'simple,'
p4274
I1
sS'alive'
p4275
I1
sS'hair'
p4276
I42
sS'ostracism'
p4277
I1
sS'convey'
p4278
I1
sS'recommendation'
p4279
I1
sS'proper'
p4280
I1
sS'happens'
p4281
I1
sS'bulbous'
p4282
I1
sS'highlighting'
p4283
I1
sS'pleasant,'
p4284
I1
sS'thud,'
p4285
I1
sS'burned,'
p4286
I1
sS'slight'
p4287
I3
sS'stuff,'
p4288
I1
sS'applause,'
p4289
I1
sS'host'
p4290
I26
sS'snapped'
p4291
I2
sS'noisy'
p4292
I1
sS'about'
p4293
I77
sS'tray'
p4294
I4
sS'introduced'
p4295
I1
sS'awkward,'
p4296
I1
sS'backpackers'
p4297
I1
sS'planners'
p4298
I1
sS'socks'
p4299
I1
sS'female'
p4300
I2
sS'shocked,'
p4301
I1
sS'dizzying'
p4302
I1
sS'minute,'
p4303
I1
sS'doorknob,'
p4304
I2
sS'biggest'
p4305
I1
sS'rumors'
p4306
I2
sS'earsplitting'
p4307
I1
sS'ivory'
p4308
I1
sS'buy'
p4309
I6
sS'brand'
p4310
I1
sS'but'
p4311
I141
sS'repeated'
p4312
I2
sS'plague'
p4313
I2
sS'children,'
p4314
I4
sS'misty'
p4315
I2
sS'students,'
p4316
I2
sS'dangerous'
p4317
I1
sS'variations'
p4318
I1
sS'flip'
p4319
I1
sS'minutes'
p4320
I4
sS'excruciatingly'
p4321
I1
sS'pin'
p4322
I1
sS'whisper'
p4323
I5
sS'wide-eyed'
p4324
I1
sS'shooting'
p4325
I2
sS'pit'
p4326
I1
sS'unintelligible'
p4327
I1
sS'accident,'
p4328
I2
sS'dressed'
p4329
I3
sS'oak'
p4330
I1
sS'mimic'
p4331
I1
sS'wondered,'
p4332
I1
sS'surreal'
p4333
I1
sS'bake,'
p4334
I1
sS'ducked'
p4335
I3
sS'granite'
p4336
I1
sS'dresses'
p4337
I1
sS'traumatic'
p4338
I1
sS'wallow'
p4339
I1
sS'gloriously'
p4340
I1
sS'stirred'
p4341
I1
sS'jab'
p4342
I1
sS'friendly,'
p4343
I1
sS'predictable,'
p4344
I1
sS'sleek'
p4345
I1
sS'sleep'
p4346
I5
sS'appetite'
p4347
I1
sS'hate'
p4348
I1
sS'poorly'
p4349
I3
sS'under'
p4350
I39
sS'regrets'
p4351
I2
sS'risk'
p4352
I3
sS'tears,'
p4353
I1
sS'every'
p4354
I19
sS'jack'
p4355
I1
sS'fireplace'
p4356
I1
sS'school'
p4357
I20
sS'pooled'
p4358
I1
sS'cause'
p4359
I3
sS'flashy'
p4360
I1
sS'enjoy'
p4361
I5
sS'created,'
p4362
I1
sS'feathery'
p4363
I1
sS'shoulders,'
p4364
I1
sS'direct'
p4365
I1
sS'guardedly'
p4366
I1
sS'street'
p4367
I2
sS'emptiness'
p4368
I1
sS'blue'
p4369
I8
sS'lesser'
p4370
I2
sS'hide'
p4371
I7
sS'supplied'
p4372
I2
sS'creased,'
p4373
I1
sS'fall'
p4374
I8
sS'dashboard'
p4375
I1
sS'kicked'
p4376
I1
sS'shimmery'
p4377
I1
sS'stared'
p4378
I13
sS'hundreds'
p4379
I4
sS'wedding,'
p4380
I4
sS'represented'
p4381
I1
sS'path'
p4382
I3
sS'stares'
p4383
I1
sS'hideously'
p4384
I1
sS'leaves'
p4385
I2
sS'changed'
p4386
I11
sS'sterile,'
p4387
I1
sS'red,'
p4388
I2
sS'changes'
p4389
I2
sS'grumbled'
p4390
I1
sS'breath,'
p4391
I4
sS'visibly'
p4392
I1
sS'feelings'
p4393
I3
sS'visible'
p4394
I1
sS'would'
p4395
I151
sS'hospital'
p4396
I5
sS'spiky'
p4397
I2
sS'distributing'
p4398
I1
sS'asset'
p4399
I1
sS'used,'
p4400
I1
sS'breathe'
p4401
I2
sS'mush'
p4402
I1
sS'phone'
p4403
I3
sS'breaths'
p4404
I1
sS'excellent'
p4405
I1
sS'off,'
p4406
I4
sS'must'
p4407
I19
sS'shoot'
p4408
I2
sS'join'
p4409
I2
sS'caramel-colored'
p4410
I1
sS'my'
p4411
I714
sS'quarrel'
p4412
I1
sS'loosen'
p4413
I1
sS'generically'
p4414
I1
sS'overheard'
p4415
I1
sS'mouth,'
p4416
I1
sS'keep'
p4417
I15
sS'returned'
p4418
I4
sS'ceremony'
p4419
I4
sS'end'
p4420
I17
sS'drummed'
p4421
I1
sS'trill'
p4422
I1
sS'scolding'
p4423
I1
sS'talk,'
p4424
I1
sS'righting'
p4425
I1
sS'aching'
p4426
I1
sS'widespread'
p4427
I1
sS'eyeballs'
p4428
I1
sS'description'
p4429
I1
sS'mouths'
p4430
I2
sS'mess'
p4431
I1
sS'unscratched,'
p4432
I1
sS'poked'
p4433
I1
sS'burly'
p4434
I1
sS'snarling'
p4435
I1
sS'accusation,'
p4436
I2
sS'upside'
p4437
I1
sS'ultimate'
p4438
I2
sS'aloud'
p4439
I1
sS'over'
p4440
I64
sS'clench'
p4441
I2
sS'expects'
p4442
I1
sS'oven'
p4443
I1
sS'clapped'
p4444
I1
sS'glances'
p4445
I2
sS'beside'
p4446
I11
sS'writing'
p4447
I2
sS'perfectly,'
p4448
I1
sS'strand'
p4449
I1
sS'fade'
p4450
I1
sS'glanced'
p4451
I8
sS'denizens'
p4452
I1
sS'carefully,'
p4453
I4
sS'shadows'
p4454
I1
sS'stinking'
p4455
I1
sS'several'
p4456
I9
sS'swaying'
p4457
I1
sS'potatoes'
p4458
I2
sS'filling'
p4459
I1
sS'each'
p4460
I14
sS'glance,'
p4461
I1
sS'driving'
p4462
I4
sS'god'
p4463
I1
sS'psychic'
p4464
I1
sS'washed'
p4465
I2
sS'laid'
p4466
I2
sS'swirling'
p4467
I2
sS'gauze,'
p4468
I1
sS'got'
p4469
I30
sS'clamps'
p4470
I1
sS'perception'
p4471
I1
sS'free'
p4472
I13
sS'rain'
p4473
I13
sS'wanted'
p4474
I24
sS'go,'
p4475
I3
sS'days'
p4476
I12
sS'habitations'
p4477
I1
sS'labored'
p4478
I1
sS'soda'
p4479
I2
sS'onto'
p4480
I3
sS'rang'
p4481
I4
sS'already'
p4482
I28
sS'too,'
p4483
I11
sS'pyres'
p4484
I1
sS'primary'
p4485
I1
sS'awoke'
p4486
I1
sS'smugly'
p4487
I1
sS'bandaged'
p4488
I1
sS'sarcasm'
p4489
I1
sS'top'
p4490
I16
sS'fiction'
p4491
I1
sS'too'
p4492
I70
sS'wildly'
p4493
I1
sS'sheepishly,'
p4494
I1
sS'toe'
p4495
I2
sS'blunt,'
p4496
I1
sS'ceiling'
p4497
I1
sS'murder'
p4498
I1
sS'centered'
p4499
I4
sS'tool'
p4500
I1
sS'took'
p4501
I41
sS'ankle'
p4502
I1
sS'included,'
p4503
I1
sS'healed'
p4504
I4
sS'brushed'
p4505
I4
sS'covens'
p4506
I1
sS'classes'
p4507
I5
sS'to,'
p4508
I1
sS'fashion'
p4509
I2
sS'ran'
p4510
I6
sS'talking'
p4511
I7
sS'lunchtime'
p4512
I2
sS'thoroughly'
p4513
I4
sS'snow'
p4514
I8
sS'ribbon'
p4515
I1
sS'laughed'
p4516
I9
sS'effectiveness'
p4517
I1
sS'tangled,'
p4518
I1
sS"who've"
p4519
I1
sS'though'
p4520
I24
sS'rumble'
p4521
I1
sS'plenty'
p4522
I1
sS'glow'
p4523
I1
sS'clock'
p4524
I1
sS'flow'
p4525
I3
sS'freeway'
p4526
I1
sS'orderly'
p4527
I1
sS'contacted'
p4528
I1
sS'random'
p4529
I1
sS'colors'
p4530
I2
sS'radio'
p4531
I4
sS'earth'
p4532
I1
sS'smiled,'
p4533
I2
sS'spite'
p4534
I1
sS'shot,'
p4535
I1
sS'disgust'
p4536
I1
sS'relocated,'
p4537
I1
sS'hostility'
p4538
I1
sS'watch'
p4539
I6
sS'color,'
p4540
I2
sS'blinking'
p4541
I1
sS'despite'
p4542
I5
sS'fast-forward,'
p4543
I1
sS'goodbyes'
p4544
I1
sS'anxiously'
p4545
I4
sS'delay,'
p4546
I1
sS'situation,'
p4547
I1
sS'boring'
p4548
I1
sS'automatic'
p4549
I1
sS'thanks'
p4550
I5
sS'habit'
p4551
I1
sS'nut'
p4552
I1
sS'nightmare,'
p4553
I1
sS'resist'
p4554
I1
sS'disturbing'
p4555
I1
sS'temptation'
p4556
I2
sS'face,'
p4557
I11
sS'player,'
p4558
I1
sS'grandmother'
p4559
I1
sS'finger'
p4560
I3
sS'hopefully'
p4561
I3
sS'confusion'
p4562
I1
sS'weak'
p4563
I6
sS'however'
p4564
I3
sS'wear'
p4565
I3
sS'news'
p4566
I5
sS'sipped'
p4567
I1
sS'faced'
p4568
I4
sS'protect'
p4569
I4
sS'fault'
p4570
I4
sS'extracts'
p4571
I1
sS'tenderly,'
p4572
I1
sS'faces'
p4573
I9
sS'gasoline,'
p4574
I1
sS'varied,'
p4575
I1
sS'snores'
p4576
I1
sS'trust'
p4577
I2
sS'stomped'
p4578
I2
sS'bathroom'
p4579
I7
sS'incomparable'
p4580
I1
sS'teacher,'
p4581
I2
sS'been'
p4582
I88
sS'quickly'
p4583
I15
sS'were,'
p4584
I2
sS'confident'
p4585
I1
sS'deep,'
p4586
I3
sS'expected'
p4587
I9
sS'glided'
p4588
I2
sS'catch'
p4589
I5
sS'strangest'
p4590
I1
sS'teachers'
p4591
I1
sS'cracked'
p4592
I1
sS'atmosphere,'
p4593
I1
sS'procedure'
p4594
I1
sS'dad,'
p4595
I2
sS'wound'
p4596
I2
sS'forehead'
p4597
I4
sS'embarrassment,'
p4598
I1
sS'worry,'
p4599
I3
sS'harming'
p4600
I1
sS'impasse,'
p4601
I1
sS'greeted'
p4602
I3
sS'characters'
p4603
I1
sS'insisted'
p4604
I4
sS'made,'
p4605
I1
sS'mentioning'
p4606
I1
sS'shortly'
p4607
I1
sS'incredulously'
p4608
I2
sS"mother's"
p4609
I5
sS'possessed'
p4610
I1
sS'ocean'
p4611
I2
sS'incapable'
p4612
I1
sS'mother'
p4613
I20
sS'hearts'
p4614
I1
sS'outnumbered'
p4615
I1
sS'leagues'
p4616
I1
sS'gawking'
p4617
I4
sS'bruise'
p4618
I1
sS'rodent'
p4619
I1
sS'perfect,'
p4620
I3
sS'furry'
p4621
I1
sS'humanity'
p4622
I1
sS'gave'
p4623
I9
sS'casting'
p4624
I2
sS'mounds'
p4625
I1
sS'ramrod'
p4626
I1
sS'melting'
p4627
I2
sS'gift'
p4628
I5
sS'specific'
p4629
I2
sS'eyelet'
p4630
I1
sS'rustling'
p4631
I1
sS'successfully'
p4632
I1
sS'escape'
p4633
I4
sS'orange-flecked'
p4634
I1
sS'ice'
p4635
I3
sS'everything'
p4636
I13
sS'icy'
p4637
I2
sS'core'
p4638
I1
sS'who'
p4639
I48
sS'precaution,'
p4640
I1
sS'club,'
p4641
I1
sS'disappeared'
p4642
I5
sS'hung'
p4643
I4
sS'newcomer'
p4644
I1
sS'engaged'
p4645
I2
sS'inflections'
p4646
I1
sS'eaves'
p4647
I1
sS'shards'
p4648
I1
sS'dinner'
p4649
I4
sS'plus'
p4650
I1
sS'twitch'
p4651
I1
sS'froze'
p4652
I1
sS'presence'
p4653
I1
sS'difference,'
p4654
I1
sS'cafeteria'
p4655
I4
sS'existed'
p4656
I3
sS'occurred,'
p4657
I1
sS'sunlight'
p4658
I3
sS'class'
p4659
I17
sS'stuck'
p4660
I5
sS'fought'
p4661
I2
sS'head'
p4662
I37
sS'heal'
p4663
I1
sS'heat'
p4664
I3
sS'hear'
p4665
I21
sS'nodded'
p4666
I8
sS"o'clock,"
p4667
I1
sS'bargain'
p4668
I1
sS'more'
p4669
I79
sS'brightly'
p4670
I2
sS'forearm'
p4671
I1
sS'shined'
p4672
I1
sS'suspicions'
p4673
I2
sS'sometime'
p4674
I1
sS'diplomatic,'
p4675
I1
sS'shines'
p4676
I1
sS'simply,'
p4677
I1
sS'willingly'
p4678
I2
sS'no'
p4679
I59
sS'tip'
p4680
I2
sS'setting'
p4681
I1
sS'soundly'
p4682
I1
sS'implant'
p4683
I1
sS'picture'
p4684
I6
sS'dark,'
p4685
I1
sS'flushed'
p4686
I3
sS'reassuringly'
p4687
I1
sS'longer'
p4688
I12
sS'serious'
p4689
I5
sS'remarkable'
p4690
I1
sS'focus'
p4691
I3
sS'signed,'
p4692
I1
sS'gentle,'
p4693
I2
sS'anyway,'
p4694
I2
sS'row'
p4695
I2
sS'cooped'
p4696
I1
sS'contemplating'
p4697
I1
sS'charge'
p4698
I1
sS'asking'
p4699
I3
sS'word,'
p4700
I2
sS'slowly,'
p4701
I2
sS'furrows'
p4702
I1
sS'advantage'
p4703
I3
sS'unfamiliar'
p4704
I4
sS'cook'
p4705
I1
sS'winning,'
p4706
I1
sS'cool'
p4707
I7
sS'married,'
p4708
I2
sS'sighed'
p4709
I19
sS'impressive'
p4710
I1
sS'level'
p4711
I1
sS'brother'
p4712
I6
sS'quick'
p4713
I2
sS'red-faced'
p4714
I1
sS'drier'
p4715
I1
sS'slower'
p4716
I1
sS'widened'
p4717
I3
sS'slowed'
p4718
I1
sS'hair,'
p4719
I5
sS'comforting'
p4720
I1
sS'enchanting,'
p4721
I1
sS'fear'
p4722
I8
sS'distaste'
p4723
I2
sS'darkest'
p4724
I1
sS'thrice-over'
p4725
I1
sS'stomach,'
p4726
I2
sS'pushed,'
p4727
I1
sS'goes'
p4728
I1
sS'guilt,'
p4729
I1
sS'funds,'
p4730
I1
sS'water'
p4731
I2
sS'apprehensively,'
p4732
I1
sS'crippled'
p4733
I1
sS'chest,'
p4734
I1
sS'arcadia'
p4735
I1
sS'standout'
p4736
I1
sS'noticeable'
p4737
I1
sS'healthy'
p4738
I1
sS'guilty'
p4739
I2
sS'proud'
p4740
I1
sS'noticeably'
p4741
I1
sS'beautiful,'
p4742
I5
sS'mimicked'
p4743
I1
sS'case,'
p4744
I2
sS'morals'
p4745
I1
sS'myself,'
p4746
I4
sS'swallowed'
p4747
I2
sS'handled'
p4748
I2
sS'scan'
p4749
I1
sS'sports'
p4750
I1
sS'frothy'
p4751
I1
sS'memory'
p4752
I24
sS'today'
p4753
I15
sS'teased'
p4754
I1
sS'inherited'
p4755
I1
sS'chocolate'
p4756
I1
sS'truck,'
p4757
I7
sS'and,'
p4758
I4
sS'edible'
p4759
I1
sS'thousands'
p4760
I1
sS'wrong,'
p4761
I1
sS'laughter'
p4762
I5
sS'stream'
p4763
I1
sS'choke'
p4764
I1
sS'unarmed'
p4765
I1
sS'stroke'
p4766
I1
sS'dropped'
p4767
I8
sS'provoke'
p4768
I1
sS'requirements'
p4769
I1
sS'afterlife'
p4770
I1
sS'secured'
p4771
I1
sS'vital'
p4772
I1
sS'reluctantly,'
p4773
I1
sS'information'
p4774
I10
sS'birthday'
p4775
I16
sS'floral'
p4776
I1
sS'classroom'
p4777
I1
sS'branches'
p4778
I1
sS'drained'
p4779
I1
sS'liquid'
p4780
I2
sS'different,'
p4781
I3
sS'stupidly'
p4782
I1
sS'minivan,'
p4783
I1
sS'glancing'
p4784
I1
sS'ambush,'
p4785
I1
sS'conversation,'
p4786
I2
sS'mom,'
p4787
I2
sS'weather,'
p4788
I1
sS'dreading'
p4789
I2
sS"he's"
p4790
I16
sS"he'd"
p4791
I23
sS'souls,'
p4792
I1
sS'corner,'
p4793
I1
sS'happened'
p4794
I6
sS'nomads'
p4795
I1
sS'appraised'
p4796
I1
sS'delighted'
p4797
I1
sS'underneath'
p4798
I3
sS'feathered'
p4799
I1
sS'gushing'
p4800
I1
sS'term'
p4801
I3
sS'name'
p4802
I25
sS'ridiculous,'
p4803
I1
sS'possibilities'
p4804
I1
sS'soon,'
p4805
I2
sS'cheerleader,'
p4806
I1
sS'waved'
p4807
I3
sS'trunks'
p4808
I1
sS'catching'
p4809
I1
sS'farewell'
p4810
I1
sS'treading'
p4811
I1
sS'attracted'
p4812
I1
sS"shouldn't"
p4813
I4
sS'whispered,'
p4814
I1
sS'overflowing'
p4815
I1
sS'maneuver'
p4816
I1
sS'theory'
p4817
I1
sS'contain'
p4818
I1
sS'unfriendly'
p4819
I1
sS'turn'
p4820
I4
sS'place'
p4821
I20
sS'retreating'
p4822
I1
sS'childhood'
p4823
I1
sS'fences,'
p4824
I1
sS'clumsy'
p4825
I1
sS'soaring'
p4826
I1
sS'self-denial'
p4827
I1
sS'millions'
p4828
I1
sS'tingling'
p4829
I1
sS'given'
p4830
I12
sS'plastic'
p4831
I2
sS'terrifying'
p4832
I1
sS'white'
p4833
I26
sS'hardwired'
p4834
I1
sS'greenly'
p4835
I1
sS'humans'
p4836
I8
sS'hurtful'
p4837
I1
sS'huh'
p4838
I1
sS'grunt'
p4839
I1
sS'wide'
p4840
I4
sS'return,'
p4841
I2
sS'cards'
p4842
I1
sS'outcome'
p4843
I1
sS'oath'
p4844
I1
sS'powder'
p4845
I1
sS'and'
p4846
I694
sS'straddles'
p4847
I1
sS'fall,'
p4848
I2
sS'fifty-eight'
p4849
I1
sS'stern,'
p4850
I1
sS'any'
p4851
I47
sS'deserted'
p4852
I1
sS'wandered'
p4853
I1
sS'late,'
p4854
I2
sS'urge'
p4855
I1
sS'sure'
p4856
I42
sS'tornado'
p4857
I1
sS'clearer'
p4858
I1
sS'boiling'
p4859
I2
sS'odorless'
p4860
I1
sS'cleared'
p4861
I5
sS'gruffly,'
p4862
I1
sS'strength,'
p4863
I1
sS'considered'
p4864
I7
sS'adopt'
p4865
I1
sS'hungry'
p4866
I6
sS'playing'
p4867
I2
sS'idea,'
p4868
I3
sS'cluttering'
p4869
I1
sS'senior'
p4870
I2
sS'permeable'
p4871
I1
sS'beading'
p4872
I1
sS'cheap'
p4873
I3
sS'hack'
p4874
I1
sS'hands,'
p4875
I3
sS'joke,'
p4876
I1
sS'gulp'
p4877
I1
sS'fickle'
p4878
I1
sS'instep'
p4879
I1
sS'passing'
p4880
I1
sS"humans'"
p4881
I1
sS'fifties'
p4882
I2
sS'allotted'
p4883
I1
sS'space,'
p4884
I2
sS'expectation'
p4885
I1
sS'neither'
p4886
I3
sS'ribs,'
p4887
I1
sS'joked'
p4888
I1
sS'hoped,'
p4889
I1
sS'probably,'
p4890
I1
sS'bought'
p4891
I4
sS'discussing'
p4892
I1
sS'ignored'
p4893
I3
sS'college'
p4894
I4
sS'parking'
p4895
I6
sS'quizzing'
p4896
I1
sS'ways'
p4897
I6
sS'weapons'
p4898
I1
sS'relief,'
p4899
I1
sS'eighty-first'
p4900
I1
sS'toying'
p4901
I2
sS'arrival'
p4902
I1
sS'unbitten'
p4903
I1
sS'good-looking'
p4904
I1
sS'unusually'
p4905
I1
sS'come'
p4906
I24
sS'reaction'
p4907
I9
sS'his,'
p4908
I2
sS'quiet'
p4909
I9
sS'way,'
p4910
I4
sS'duty'
p4911
I1
sS'champion,'
p4912
I1
sS'bricks'
p4913
I1
sS'hunched'
p4914
I2
sS'pop'
p4915
I1
sS'satisfaction'
p4916
I1
sS'pole'
p4917
I1
sS'approval'
p4918
I1
sS'bizarre'
p4919
I1
sS'teammate'
p4920
I1
sS'coupe'
p4921
I1
sS'peaceful'
p4922
I2
sS'hardly'
p4923
I6
sS'engine'
p4924
I8
sS'direction'
p4925
I6
sS'blessing'
p4926
I2
sS'surreptitiously'
p4927
I1
sS'minister'
p4928
I1
sS'careful'
p4929
I8
sS'case'
p4930
I4
sS'shaft'
p4931
I1
sS'myself'
p4932
I50
sS'cupping'
p4933
I1
sS'cash'
p4934
I1
sS'cast'
p4935
I2
sS'life,'
p4936
I6
sS'drive,'
p4937
I1
sS'someone'
p4938
I14
sS'punched'
p4939
I1
sS'minds'
p4940
I1
sS'nonessentials,'
p4941
I1
sS'sides,'
p4942
I1
sS'resentful'
p4943
I1
sS'vivid'
p4944
I1
sS'reminded'
p4945
I10
sS'check'
p4946
I3
sS'shifts'
p4947
I2
sS'bows'
p4948
I1
sS'eighteen,'
p4949
I2
sS'events'
p4950
I3
sS'week'
p4951
I3
sS'muffled'
p4952
I1
sS'driven'
p4953
I1
sS'devoid'
p4954
I1
sS'delicate'
p4955
I3
sS'tiny,'
p4956
I2
sS'changing'
p4957
I3
sS'vowed'
p4958
I2
sS'numb,'
p4959
I1
sS'brain,'
p4960
I1
sS'without'
p4961
I29
sS'flakes'
p4962
I1
sS'relief'
p4963
I8
sS'model'
p4964
I1
sS'modem'
p4965
I1
sS'bodies'
p4966
I3
sS'when'
p4967
I86
sS'guided'
p4968
I1
sS'violent'
p4969
I2
sS'kill'
p4970
I5
sS'reality'
p4971
I1
sS'satin'
p4972
I2
sS'guides'
p4973
I1
sS'captured'
p4974
I1
sS'blow'
p4975
I2
sS'hint'
p4976
I4
sS'rose'
p4977
I5
sS'seems'
p4978
I3
sS'except'
p4979
I4
sS'lets'
p4980
I1
sS'gym,'
p4981
I2
sS'scrapbook'
p4982
I1
sS'flashing'
p4983
I1
sS'sucked'
p4984
I1
sS'bones,'
p4985
I1
sS'kills'
p4986
I1
sS'papers'
p4987
I1
sS'fridge'
p4988
I2
sS'loaner'
p4989
I1
sS'accepted'
p4990
I3
sS'vanished'
p4991
I1
sS'standstill'
p4992
I1
sS'towed'
p4993
I1
sS'syrup-colored'
p4994
I1
sS'buttery,'
p4995
I1
sS'shrouds,'
p4996
I1
sS'respect'
p4997
I2
sS'canteen'
p4998
I1
sS'slice'
p4999
I1
sS'mood'
p5000
I5
sS'slick'
p5001
I1
sS'moot'
p5002
I1
sS'light-flecked'
p5003
I1
sS'exiled'
p5004
I1
sS'almost-black'
p5005
I1
sS'silently,'
p5006
I1
sS'nails'
p5007
I1
sS'cringing'
p5008
I1
sS'polite'
p5009
I2
sS'terrified'
p5010
I4
sS'on'
p5011
I226
sS'jeep'
p5012
I1
sS'worksheet'
p5013
I1
sS'indestructibility'
p5014
I1
sS'tensed,'
p5015
I1
sS'masked,'
p5016
I1
sS'stand'
p5017
I4
sS'free,'
p5018
I1
sS'or'
p5019
I68
sS'communication'
p5020
I1
sS'attachments,'
p5021
I1
sS'cursed'
p5022
I1
sS'spinal'
p5023
I1
sS'rising'
p5024
I1
sS'hammering,'
p5025
I1
sS'names,'
p5026
I2
sS'sloshing'
p5027
I1
sS'unisex'
p5028
I1
sS'strictly'
p5029
I1
sS'there'
p5030
I59
sS'disposed'
p5031
I1
sS'valley'
p5032
I1
sS'pottery,'
p5033
I1
sS'faster'
p5034
I6
sS'classes,'
p5035
I2
sS'grass'
p5036
I1
sS'creeping'
p5037
I3
sS'strongly'
p5038
I3
sS'taste'
p5039
I3
sS'cringed'
p5040
I2
sS'pillow,'
p5041
I2
sS'stages,'
p5042
I1
sS'stumbled'
p5043
I2
sS'idiot'
p5044
I2
sS'quick,'
p5045
I3
sS'roses'
p5046
I4
sS'odd,'
p5047
I1
sS'requested'
p5048
I1
sS'trip'
p5049
I4
sS'separate'
p5050
I2
sS'symbol'
p5051
I1
sS'bullets'
p5052
I2
sS'included'
p5053
I2
sS'missed'
p5054
I4
sS'wife'
p5055
I4
sS'odds'
p5056
I1
sS'curve'
p5057
I1
sS'all'
p5058
I111
sS'lace'
p5059
I2
sS'flail,'
p5060
I1
sS'lack'
p5061
I3
sS'son,'
p5062
I1
sS'speak,'
p5063
I1
sS'surgical'
p5064
I1
sS'follow'
p5065
I2
sS'catastrophe'
p5066
I1
sS'liar,'
p5067
I1
sS'switched'
p5068
I2
sS'sparkling'
p5069
I1
sS'granola'
p5070
I2
sS'chicken-and-rice'
p5071
I1
sS'woman'
p5072
I10
sS'everyone,'
p5073
I1
sS'worse'
p5074
I8
sS'song'
p5075
I1
sS'inhumanly'
p5076
I1
sS'ticked'
p5077
I1
sS'roe'
p5078
I1
sS'worst'
p5079
I5
sS'fad'
p5080
I1
sS'gangly'
p5081
I1
sS'list'
p5082
I3
sS'prolonged'
p5083
I1
sS'blankly'
p5084
I1
sS'weak,'
p5085
I1
sS'conflicted'
p5086
I1
sS'ten'
p5087
I3
sS'direction,'
p5088
I1
sS'should,'
p5089
I1
sS'design'
p5090
I1
sS'belief'
p5091
I1
sS'what'
p5092
I85
sS'deeply'
p5093
I2
sS'mind-reading'
p5094
I1
sS'brief'
p5095
I5
sS'version'
p5096
I1
sS'fathoms'
p5097
I1
sS'racing'
p5098
I1
sS'toes'
p5099
I1
sS'when,'
p5100
I1
sS'directions'
p5101
I1
sS'observing'
p5102
I1
sS'breakable'
p5103
I1
sS'horrified'
p5104
I1
sS'sticking'
p5105
I1
sS'suddenly'
p5106
I7
sS'charade,'
p5107
I1
sS'know,'
p5108
I9
sS'always,'
p5109
I2
sS'faint'
p5110
I1
sS'debate,'
p5111
I1
sS'angrier'
p5112
I1
sS'minor'
p5113
I1
sS'flat'
p5114
I5
sS'flaw'
p5115
I1
sS'knows'
p5116
I1
sS'stutter'
p5117
I1
sS'stick'
p5118
I3
sS'hissed'
p5119
I2
sS'known'
p5120
I5
sS'mellow'
p5121
I1
sS'glad'
p5122
I3
sS'embarrassing'
p5123
I3
sS'challenging'
p5124
I3
sS'feebly'
p5125
I1
sS'swung'
p5126
I1
sS'goal'
p5127
I1
sS'rather'
p5128
I6
sS'breaking'
p5129
I1
sS'occasionally'
p5130
I1
sS'explains'
p5131
I1
sS'okay'
p5132
I4
sS'concentrating'
p5133
I1
sS'short'
p5134
I5
sS'animatedly'
p5135
I1
sS'shade'
p5136
I4
sS'music,'
p5137
I2
sS'would,'
p5138
I1
sS"don't"
p5139
I70
sS'avenue'
p5140
I1
sS'disagreed'
p5141
I1
sS'style'
p5142
I3
sS'retriever,'
p5143
I1
sS'glide'
p5144
I1
sS'harmless'
p5145
I1
sS'strange'
p5146
I13
sS'might'
p5147
I13
sS'return'
p5148
I3
sS'little,'
p5149
I1
sS'speechless'
p5150
I1
sS'clouds'
p5151
I3
sS'hunted'
p5152
I1
sS'bigger'
p5153
I2
sS'murmured'
p5154
I7
sS'done'
p5155
I12
sS'friendship'
p5156
I1
sS'malfunction'
p5157
I1
sS'weight'
p5158
I3
sS'colder'
p5159
I1
sS'airbrushed'
p5160
I1
sS'expect'
p5161
I3
sS'inflict'
p5162
I1
sS'stilled'
p5163
I1
sS'alcohol'
p5164
I1
sS'wondered'
p5165
I14
sS'health'
p5166
I2
sS'soulless'
p5167
I1
sS'forgive'
p5168
I2
sS'sidewalk'
p5169
I2
sS'suddenly,'
p5170
I1
sS'thread'
p5171
I2
sS"year's"
p5172
I1
sS'threat'
p5173
I1
sS'fallen'
p5174
I1
sS'connotation'
p5175
I1
sS'unhealthy'
p5176
I1
sS'feel'
p5177
I46
sS'relate'
p5178
I2
sS'churning'
p5179
I1
sS'fancy'
p5180
I1
sS'feet'
p5181
I12
sS'blank'
p5182
I3
sS'says'
p5183
I1
sS'story'
p5184
I5
sS'plink,'
p5185
I2
sS'hangs'
p5186
I1
sS'passed'
p5187
I11
sS'syrup'
p5188
I1
sS'store'
p5189
I3
sS'relieved'
p5190
I3
sS'exploded'
p5191
I2
sS'retinal'
p5192
I1
sS'newcomers,'
p5193
I1
sS'information,'
p5194
I1
sS'kind'
p5195
I24
sS'nagging'
p5196
I1
sS'vial'
p5197
I1
sS'outrageous'
p5198
I1
sS'risks'
p5199
I1
sS'voucher'
p5200
I1
sS'motivation'
p5201
I1
sS'outstanding'
p5202
I1
sS'part,'
p5203
I2
sS'suspicious'
p5204
I1
sS'cleaned'
p5205
I5
sS'nights'
p5206
I1
sS'finding'
p5207
I4
sS'added'
p5208
I6
sS'electric'
p5209
I1
sS'ivory-skinned,'
p5210
I1
sS'warnings'
p5211
I1
sS'reach'
p5212
I4
sS'react'
p5213
I2
sS'nothing'
p5214
I19
sS'uniform,'
p5215
I1
sS'sniffed,'
p5216
I1
sS'windows'
p5217
I3
sS'traditional'
p5218
I4
sS'dissolved'
p5219
I1
sS'night,'
p5220
I3
sS'lying'
p5221
I2
sS'stones'
p5222
I1
sS'loveseat'
p5223
I1
sS'unwrapped'
p5224
I1
sS'penalty'
p5225
I1
sS'hip'
p5226
I1
sS'razor-sharp,'
p5227
I1
sS'his'
p5228
I305
sS'hit'
p5229
I3
sS'babble'
p5230
I1
sS'hid'
p5231
I1
sS'fastest'
p5232
I1
sS'reply'
p5233
I1
sS'him'
p5234
I100
sS'medicines'
p5235
I1
sS'activity'
p5236
I1
sS'cringe'
p5237
I2
sS'insensible'
p5238
I1
sS'bars'
p5239
I2
sS'city,'
p5240
I2
sS'achieved'
p5241
I1
sS'bare'
p5242
I2
sS'are'
p5243
I58
sS'moping,'
p5244
I2
sS'arm'
p5245
I32
sS'visualize'
p5246
I1
sS'glistening'
p5247
I2
sS'slapped'
p5248
I1
sS'various'
p5249
I1
sS"other's"
p5250
I1
sS'numerous'
p5251
I1
sS'creating'
p5252
I1
sS'attention'
p5253
I11
sS'days,'
p5254
I4
sS'wincing,'
p5255
I1
sS'rarer'
p5256
I1
sS'competent'
p5257
I1
sS'bronze'
p5258
I2
sS'head,'
p5259
I7
sS'became'
p5260
I3
sS'finds'
p5261
I2
sS'flies'
p5262
I1
sS'host,'
p5263
I1
sS'knew,'
p5264
I2
sS'reasons'
p5265
I1
sS'sweet'
p5266
I1
sS'there,'
p5267
I6
sS'overlook'
p5268
I1
sS'due'
p5269
I2
sS'dug'
p5270
I3
sS'whom'
p5271
I1
sS'woke'
p5272
I2
sS'flight'
p5273
I1
sS'vaguely'
p5274
I3
sS'reason,'
p5275
I2
sS'rocking'
p5276
I1
sS'sweating,'
p5277
I1
sS'stolen'
p5278
I2
sS'shove'
p5279
I2
sS'frozen'
p5280
I6
sS'lips,'
p5281
I2
sS'who,'
p5282
I1
sS'kick'
p5283
I1
sS'behavior'
p5284
I3
sS'parents,'
p5285
I1
sS'liquid,'
p5286
I1
sS'bedtime,'
p5287
I1
sS'lodged'
p5288
I1
sS'rid'
p5289
I1
sS'cavernous'
p5290
I1
sS'away,'
p5291
I9
sS'shirt'
p5292
I3
sS'higher'
p5293
I3
sS'maroon-colored'
p5294
I1
sS'peacemaking'
p5295
I1
sS'flown'
p5296
I1
sS'moving'
p5297
I5
sS'weird'
p5298
I1
sS'lower'
p5299
I1
sS'overwhelming,'
p5300
I1
sS'registered,'
p5301
I1
sS'people,'
p5302
I2
sS'cheek'
p5303
I5
sS'bounces'
p5304
I1
sS'anybody'
p5305
I2
sS'analysis'
p5306
I1
sS'edge'
p5307
I11
sS'abilities'
p5308
I3
sS'mood,'
p5309
I2
sS'places,'
p5310
I1
sS'intervals'
p5311
I1
sS'questions'
p5312
I6
sS'vigilant'
p5313
I1
sS'tamed'
p5314
I1
sS'tables'
p5315
I1
sS'murmured,'
p5316
I1
sS'exhibition'
p5317
I1
sS'complaint'
p5318
I1
sS'question,'
p5319
I1
sS'condemnation'
p5320
I1
sS'unlimited'
p5321
I1
sS'necessary'
p5322
I4
sS'lost'
p5323
I8
sS'confront'
p5324
I1
sS'glitters'
p5325
I1
sS'ignore'
p5326
I6
sS'doing,'
p5327
I2
sS'acclimatization'
p5328
I1
sS'essential'
p5329
I1
sS'table,'
p5330
I5
sS'hinted'
p5331
I1
sS'volleyball,'
p5332
I1
sS'understood'
p5333
I2
sS'jump,'
p5334
I1
sS'gradually'
p5335
I1
sS'prom'
p5336
I1
sS'ticking'
p5337
I1
sS'fragments'
p5338
I1
sS'jawline'
p5339
I1
sS'traditions,'
p5340
I1
sS'loud,'
p5341
I2
sS'refused'
p5342
I2
sS'intense'
p5343
I2
sS'fronded'
p5344
I1
sS'amused,'
p5345
I1
sS'mingled'
p5346
I2
sS'getting'
p5347
I14
sS'ordeal'
p5348
I2
sS'unmentionable,'
p5349
I1
sS'lifeless'
p5350
I1
sS'militia'
p5351
I1
sS'hatred'
p5352
I3
sS'complimentary'
p5353
I1
sS'youthful'
p5354
I1
sS'still-life'
p5355
I1
sS'stitched'
p5356
I1
sS'mitosis'
p5357
I1
sS'returning'
p5358
I1
sS'drifted'
p5359
I1
sS'stitches'
p5360
I1
sS'impressed'
p5361
I2
sS'rows'
p5362
I1
sS'smoothly'
p5363
I3
sS'pallid'
p5364
I1
sS'long'
p5365
I38
sS'laughed,'
p5366
I3
sS"we're"
p5367
I5
sS'files'
p5368
I1
sS'satin-draped'
p5369
I1
sS'cloth'
p5370
I1
sS'reassurance'
p5371
I1
sS'junior'
p5372
I1
sS'raising'
p5373
I1
sS"hasn't"
p5374
I1
sS'peppermint'
p5375
I1
sS'vapors,'
p5376
I1
sS'fried'
p5377
I1
sS'row,'
p5378
I1
sS'called'
p5379
I15
sS'freak'
p5380
I1
sS'tiniest'
p5381
I1
sS'warning'
p5382
I3
sS'turn,'
p5383
I1
sS'tightly,'
p5384
I1
sS'rainbow'
p5385
I1
sS'verbose,'
p5386
I1
sS'replacing,'
p5387
I1
sS'rains'
p5388
I1
sS'peace'
p5389
I5
sS'club'
p5390
I1
sS'income'
p5391
I1
sS'mock'
p5392
I1
sS'nice'
p5393
I14
sS'understatement'
p5394
I1
sS'problems'
p5395
I2
sS'meaning'
p5396
I2
sS'allowing'
p5397
I2
sS'shining,'
p5398
I1
sS'impatient'
p5399
I1
sS'back,'
p5400
I8
sS'rain,'
p5401
I3
sS'once'
p5402
I8
sS'wrestle'
p5403
I1
sS'hooks'
p5404
I1
sS'resistance'
p5405
I3
sS'alien'
p5406
I3
sS'screen'
p5407
I3
sS'issues'
p5408
I1
sS'gold'
p5409
I3
sS'staccato'
p5410
I1
sS'deal,'
p5411
I1
sS'squeezing'
p5412
I1
sS'note,'
p5413
I1
sS'breach'
p5414
I1
sS'include'
p5415
I2
sS'breathing'
p5416
I9
sS'wished'
p5417
I8
sS'porcelain-colored'
p5418
I1
sS'wishes'
p5419
I1
sS'posture'
p5420
I1
sS'notes'
p5421
I1
sS'dealt'
p5422
I1
sS'friendliness'
p5423
I1
sS'noted'
p5424
I2
sS'someday'
p5425
I1
sS'sweats,'
p5426
I1
sS'smaller'
p5427
I1
sS'gripping'
p5428
I1
sS"you'd"
p5429
I6
sS'demanded,'
p5430
I2
sS'procession'
p5431
I1
sS'perched'
p5432
I1
sS'translucent-looking'
p5433
I1
sS'reunion'
p5434
I1
sS'veins,'
p5435
I1
sS'mayhem,'
p5436
I1
sS"man's"
p5437
I2
sS'waiting'
p5438
I26
sS'shade,'
p5439
I2
sS'large,'
p5440
I1
sS'degree'
p5441
I3
sS'pushing'
p5442
I1
sS'explore'
p5443
I1
sS'swirled'
p5444
I1
sS'slender,'
p5445
I1
sS'shades'
p5446
I1
sS'leaving'
p5447
I3
sS'apple'
p5448
I1
sS'shoved'
p5449
I1
sS'apt'
p5450
I1
sS'duck'
p5451
I1
sS'apply'
p5452
I1
sS'bindings'
p5453
I1
sS'use'
p5454
I7
sS'from'
p5455
I140
sS'figure'
p5456
I3
sS'few'
p5457
I24
sS'sort'
p5458
I4
sS'hard,'
p5459
I2
sS'porch'
p5460
I1
sS'detail'
p5461
I2
sS'musician'
p5462
I1
sS'infection'
p5463
I1
sS'tsked'
p5464
I1
sS'women'
p5465
I1
sS'annoy'
p5466
I1
sS'topic'
p5467
I1
sS'us,'
p5468
I8
sS'tinted'
p5469
I1
sS'column'
p5470
I1
sS'splinters'
p5471
I2
sS'posing'
p5472
I1
sS'proof'
p5473
I2
sS'tap'
p5474
I1
sS'thirsty'
p5475
I1
sS'fianc\xe9,'
p5476
I1
sS'tag'
p5477
I1
sS'something'
p5478
I40
sS'tan'
p5479
I3
sS'summers'
p5480
I1
sS'counting'
p5481
I1
sS'memorize'
p5482
I1
sS'sit'
p5483
I9
sS'six'
p5484
I6
sS'carries'
p5485
I1
sS'sculpture,'
p5486
I1
sS'struggled'
p5487
I5
sS'toddler'
p5488
I1
sS'panic'
p5489
I3
sS'sin'
p5490
I1
sS'sweat'
p5491
I1
sS'ceasing'
p5492
I1
sS'cupboard'
p5493
I1
sS'attend'
p5494
I1
sS'discomfort'
p5495
I1
sS'light'
p5496
I28
sS'interrupted'
p5497
I4
sS'sidewalk,'
p5498
I2
sS'honestly'
p5499
I3
sS'summer,'
p5500
I2
sS'pulsed'
p5501
I1
sS'saturated'
p5502
I1
sS'looks'
p5503
I5
sS'argumentative'
p5504
I1
sS'accident-prone'
p5505
I1
sS'nostalgia'
p5506
I1
sS'choose'
p5507
I4
sS'orange'
p5508
I1
sS'covered'
p5509
I8
sS'holiday'
p5510
I1
sS'edging'
p5511
I1
sS'world,'
p5512
I7
sS'crash'
p5513
I1
sS'look,'
p5514
I2
sS'pulse,'
p5515
I1
sS'flew'
p5516
I1
sS'requestedthat'
p5517
I1
sS'worlds'
p5518
I2
sS'crowd,'
p5519
I2
sS'movements,'
p5520
I1
sS'by,'
p5521
I1
sS'trap'
p5522
I1
sS'blacktop'
p5523
I1
sS'bills'
p5524
I1
sS'eases'
p5525
I1
sS'lilac'
p5526
I1
sS'related'
p5527
I2
sS'doubled'
p5528
I1
sS'our'
p5529
I47
sS'out'
p5530
I113
sS'category'
p5531
I1
sS'gossamer'
p5532
I2
sS'double-check'
p5533
I1
sS'stupidity'
p5534
I2
sS'compositions'
p5535
I1
sS'walls,'
p5536
I3
sS'conversation'
p5537
I10
sS'phrased'
p5538
I1
sS'plainly'
p5539
I1
sS'bouquet'
p5540
I2
sS'baby-faced'
p5541
I1
sS'echo'
p5542
I1
sS'called,'
p5543
I2
sS"doesn't"
p5544
I13
sS'unknown'
p5545
I1
sS'patient,'
p5546
I1
sS'their'
p5547
I54
sS'enough,'
p5548
I1
sS'reversed'
p5549
I1
sS'slides'
p5550
I3
sS'reflecting'
p5551
I1
sS'diminish'
p5552
I1
sS'institution'
p5553
I1
sS'thrilled,'
p5554
I1
sS'chatterer'
p5555
I1
sS'isolation'
p5556
I1
sS'chattered'
p5557
I1
sS'lame,'
p5558
I1
sS'self-inflicted,'
p5559
I1
sS'teenagers'
p5560
I2
sS'hilarious,'
p5561
I1
sS'purple,'
p5562
I1
sS'afraid'
p5563
I11
sS'angle'
p5564
I1
sS'bagel'
p5565
I1
sS'lope'
p5566
I1
sS'which'
p5567
I24
sS'paid,'
p5568
I1
sS'alarmed'
p5569
I1
sS'why'
p5570
I17
sS'deny'
p5571
I1
sS'looked'
p5572
I59
sS'smirked'
p5573
I1
sS'balding'
p5574
I1
sS'bulging'
p5575
I1
sS'chances'
p5576
I1
sS'kitchen,'
p5577
I1
sS'agreed'
p5578
I9
sS'one,'
p5579
I5
sS'planning'
p5580
I3
sS'utter'
p5581
I1
sS'chicken'
p5582
I1
sS'dried'
p5583
I1
sS'feat'
p5584
I1
sS'pleased'
p5585
I5
sS'true,'
p5586
I2
sS'ear'
p5587
I3
sS'clutching'
p5588
I1
sS'combs'
p5589
I2
sS'piano'
p5590
I2
sS'local'
p5591
I1
sS'spun'
p5592
I2
sS'distress,'
p5593
I1
sS'watching'
p5594
I3
sS'ones'
p5595
I8
sS'please,'
p5596
I4
sS'words'
p5597
I22
sS'futilely,'
p5598
I1
sS'ended'
p5599
I1
sS'married'
p5600
I6
sS'generations'
p5601
I1
sS'view'
p5602
I3
sS'unison'
p5603
I1
sS'available'
p5604
I3
sS'buzzed'
p5605
I2
sS'closer'
p5606
I7
sS'still'
p5607
I58
sS'closet'
p5608
I1
sS'favor'
p5609
I1
sS'welled'
p5610
I1
sS'closed'
p5611
I4
sS'stories'
p5612
I4
sS'frustrated'
p5613
I1
sS'pants'
p5614
I1
sS'masochistic'
p5615
I1
sS'ability'
p5616
I3
sS'opening'
p5617
I4
sS'joy'
p5618
I1
sS'glimmered'
p5619
I1
sS'embarrassment'
p5620
I1
sS'job'
p5621
I10
sS'spoil'
p5622
I2
sS'eyes,'
p5623
I7
sS'motionlessly'
p5624
I1
sS'canopy'
p5625
I2
sS'safely'
p5626
I2
sS'close,'
p5627
I1
sS'grounds'
p5628
I1
sS'unclear'
p5629
I1
sS'wall'
p5630
I7
sS'shoving'
p5631
I1
sS'dresser,'
p5632
I1
sS'walk'
p5633
I5
sS'table'
p5634
I29
sS'narrowed'
p5635
I1
sS'choice,'
p5636
I2
sS'painted'
p5637
I3
sS'eighty-one'
p5638
I1
sS'present'
p5639
I3
sS'eyelashes'
p5640
I1
sS'unlike'
p5641
I1
sS'will'
p5642
I39
sS'respond,'
p5643
I1
sS'stunning'
p5644
I1
sS'fingertip'
p5645
I1
sS'wild'
p5646
I3
sS'ringing'
p5647
I1
sS'prom,'
p5648
I1
sS'thud'
p5649
I3
sS'apart,'
p5650
I1
sS'perhaps'
p5651
I4
sS'cross'
p5652
I3
sS'black-topped'
p5653
I1
sS'member'
p5654
I1
sS'merciful'
p5655
I1
sS'gets'
p5656
I8
sS'snatcher,'
p5657
I1
sS'difficult'
p5658
I6
sS'tactful'
p5659
I1
sS'student'
p5660
I1
sS'pedal'
p5661
I3
sS'fighting'
p5662
I2
sS'sensing'
p5663
I2
sS'lightbulb'
p5664
I1
sS'excessive'
p5665
I1
sS'cried'
p5666
I3
sS'heavily'
p5667
I2
sS'seconds,'
p5668
I2
sS'fishing'
p5669
I3
sS'rooms,'
p5670
I1
sS'happiness'
p5671
I1
sS'guts'
p5672
I1
sS'sky'
p5673
I3
sS'other'
p5674
I39
sS'illumination,'
p5675
I1
sS'tawny'
p5676
I1
sS'surprised,'
p5677
I3
sS'came,'
p5678
I1
sS"who's"
p5679
I2
sS'frighteningly'
p5680
I1
sS'know'
p5681
I65
sS'presume'
p5682
I1
sS'raincoats'
p5683
I1
sS'press'
p5684
I1
sS'coincidence'
p5685
I1
sS'flamethrower'
p5686
I1
sS'helpful'
p5687
I2
sS'hosts'
p5688
I5
sS'repressed'
p5689
I1
sS'because'
p5690
I31
sS'sequence'
p5691
I1
sS'scared'
p5692
I2
sS'searching'
p5693
I2
sS'past,'
p5694
I1
sS'kinds'
p5695
I3
sS'lead'
p5696
I1
sS'markers'
p5697
I1
sS'leap'
p5698
I1
sS'leader'
p5699
I1
sS'ripped'
p5700
I2
sS'executed,'
p5701
I1
sS'guffaws'
p5702
I2
sS'paste'
p5703
I1
sS'throng'
p5704
I1
sS'rare'
p5705
I3
sS'carried'
p5706
I1
sS'squealed'
p5707
I1
sS'linger'
p5708
I1
sS'himself,'
p5709
I2
sS'straightforward,'
p5710
I1
sS'urged'
p5711
I2
sS'surge'
p5712
I1
sS'perks'
p5713
I1
sS'ashy'
p5714
I1
sS'own'
p5715
I22
sS'polished'
p5716
I2
sS'cocked'
p5717
I1
sS'wilderness'
p5718
I2
sS'triumphant,'
p5719
I1
sS'promise'
p5720
I1
sS'brush'
p5721
I1
sS'venom-coated'
p5722
I1
sS'yanked'
p5723
I1
sS'squishing'
p5724
I1
sS'faithfully'
p5725
I1
sS'resists'
p5726
I1
sS'uncontrollable'
p5727
I1
sS'tinged'
p5728
I1
sS'volume'
p5729
I4
sS'squeeze'
p5730
I2
sS'convalescence'
p5731
I1
sS'made'
p5732
I54
sS'whether'
p5733
I3
sS'this,'
p5734
I10
sS'distract'
p5735
I4
sS'record'
p5736
I1
sS'below'
p5737
I2
sS'infants'
p5738
I1
sS'horrific'
p5739
I1
sS'kind,'
p5740
I1
sS'percent'
p5741
I1
sS'book'
p5742
I4
sS'sick'
p5743
I3
sS'conclusion'
p5744
I2
sS'fleetingly,'
p5745
I1
sS'toasty'
p5746
I1
sS'squeak'
p5747
I1
sS'gap'
p5748
I1
sS'click,'
p5749
I1
sS'space'
p5750
I2
sS'jewel'
p5751
I1
sS'sleeves'
p5752
I1
sS'struggled,'
p5753
I1
s.