(dp1
S'stock'
p2
I2
sS'ever,'
p3
I2
sS'boulder-strewn'
p4
I1
sS'pardon'
p5
I1
sS'pasteboard'
p6
I1
sS'shouted,'
p7
I2
sS'better,'
p8
I1
sS'comparatively'
p9
I1
sS'swirls'
p10
I1
sS'yellow'
p11
I10
sS'silhouette,'
p12
I1
sS'four'
p13
I12
sS'rocketing'
p14
I1
sS'woods'
p15
I1
sS'sleep'
p16
I8
sS'hanging'
p17
I3
sS'oldest'
p18
I1
sS'hate'
p19
I2
sS'increase'
p20
I2
sS'up,'
p21
I9
sS'feeding'
p22
I1
sS'patches'
p23
I2
sS'bullfighter'
p24
I1
sS'swam'
p25
I2
sS'patched'
p26
I2
sS"elk's"
p27
I1
sS'under'
p28
I29
sS'stationery'
p29
I1
sS'sorry'
p30
I9
sS'pride'
p31
I1
sS'worth'
p32
I2
sS'amorous'
p33
I1
sS'blanket'
p34
I5
sS'rise'
p35
I5
sS'knelt'
p36
I1
sS'shoot'
p37
I9
sS'replaces'
p38
I1
sS'every'
p39
I10
sS'jack'
p40
I1
sS'softened'
p41
I1
sS'govern'
p42
I1
sS'fur'
p43
I1
sS'fingers,'
p44
I1
sS'today,'
p45
I4
sS'stems,'
p46
I1
sS'pairs,'
p47
I1
sS'pain,'
p48
I1
sS"daughter's"
p49
I1
sS"we'll"
p50
I11
sS'porpoises'
p51
I1
sS'duke,'
p52
I2
sS'wooden'
p53
I2
sS'slung'
p54
I2
sS'sober,'
p55
I1
sS'expenses,'
p56
I1
sS'frozen'
p57
I1
sS'chauffeur'
p58
I2
sS'despairing'
p59
I1
sS'relics'
p60
I1
sS'greenish'
p61
I1
sS"yesterday's"
p62
I2
sS'front,'
p63
I2
sS'triumph'
p64
I1
sS'clothes'
p65
I2
sS'enjoy'
p66
I2
sS'force'
p67
I1
sS'leaders'
p68
I1
sS'shoulders,'
p69
I3
sS'awake'
p70
I3
sS'me,'
p71
I21
sS'cordially'
p72
I1
sS'ornate'
p73
I1
sS'lavender'
p74
I2
sS'horn'
p75
I1
sS'talks'
p76
I1
sS'second'
p77
I7
sS'street'
p78
I18
sS'safe'
p79
I1
sS'professionally'
p80
I1
sS'valiant'
p81
I1
sS'others,'
p82
I2
sS'writing'
p83
I2
sS'scream,'
p84
I1
sS'emptiness'
p85
I1
sS'flat-topped'
p86
I1
sS'even'
p87
I14
sS'admire'
p88
I1
sS'carbine'
p89
I9
sS'hide'
p90
I4
sS'records,'
p91
I1
sS'snares'
p92
I1
sS'cervezas,'
p93
I1
sS'cooking'
p94
I1
sS'fingers'
p95
I5
sS'poison'
p96
I3
sS'lights'
p97
I2
sS'favours,'
p98
I1
sS"snapper'"
p99
I1
sS'above'
p100
I6
sS'unpinned'
p101
I1
sS'jam,'
p102
I2
sS'fishless'
p103
I1
sS'net'
p104
I5
sS'ever'
p105
I23
sS'told'
p106
I39
sS'sixty-eight'
p107
I1
sS'liquorice'
p108
I1
sS'afterward'
p109
I1
sS'kicked'
p110
I5
sS'crouch'
p111
I1
sS'whose'
p112
I4
sS'half-past'
p113
I1
sS'never'
p114
I52
sS'inscription'
p115
I1
sS'richest'
p116
I1
sS'here'
p117
I34
sS'herd'
p118
I2
sS'reported'
p119
I2
sS'humility'
p120
I1
sS'leader,'
p121
I1
sS"aren't"
p122
I4
sS'confronts'
p123
I1
sS'endorsing,'
p124
I1
sS'duty,'
p125
I1
sS'dry'
p126
I3
sS'generals'
p127
I1
sS'daughter'
p128
I5
sS'leaves'
p129
I6
sS'climbed'
p130
I7
sS'typically'
p131
I1
sS'light,'
p132
I2
sS'guide'
p133
I3
sS'levelled'
p134
I1
sS'flattened,'
p135
I1
sS'finger,'
p136
I1
sS'braver'
p137
I1
sS'further,'
p138
I3
sS'smoke'
p139
I1
sS'military'
p140
I5
sS'listening,'
p141
I1
sS'settled'
p142
I4
sS'golden'
p143
I3
sS'mail'
p144
I2
sS'stray'
p145
I1
sS'straw'
p146
I1
sS'possessing'
p147
I1
sS'explained'
p148
I4
sS'angrily'
p149
I1
sS'strap'
p150
I1
sS'brought'
p151
I21
sS'visible'
p152
I1
sS'war,'
p153
I1
sS'over,'
p154
I4
sS'stern'
p155
I6
sS'counts'
p156
I1
sS'female,'
p157
I1
sS'remaining'
p158
I2
sS'territory,'
p159
I1
sS'charge'
p160
I2
sS'spoke'
p161
I14
sS'would'
p162
I109
sS'army'
p163
I6
sS'sweater'
p164
I1
sS'played'
p165
I6
sS'arms'
p166
I7
sS'insult'
p167
I3
sS'call'
p168
I3
sS'calm'
p169
I2
sS'trot,'
p170
I1
sS'sweated'
p171
I1
sS'until'
p172
I22
sS'handkerchief,'
p173
I1
sS'higher,'
p174
I1
sS'dry,'
p175
I1
sS'barbarous'
p176
I2
sS'lungs'
p177
I1
sS'successful'
p178
I1
sS'brings'
p179
I3
sS'expose'
p180
I1
sS'trousers'
p181
I9
sS'hated,'
p182
I1
sS'hurt'
p183
I8
sS'feeling,'
p184
I1
sS'glass'
p185
I12
sS'warm'
p186
I7
sS'excellent'
p187
I2
sS'square,'
p188
I1
sS'hold'
p189
I6
sS'off,'
p190
I4
sS'must'
p191
I54
sS'me'
p192
I125
sS'drift,'
p193
I1
sS'cruelest,'
p194
I1
sS'join'
p195
I2
sS'room'
p196
I10
sS'girls,'
p197
I1
sS'books,'
p198
I4
sS'crest'
p199
I1
sS'work'
p200
I15
sS'reads'
p201
I2
sS'worn'
p202
I1
sS'divorces'
p203
I1
sS'car-tracks'
p204
I1
sS'my'
p205
I68
sS'shook'
p206
I8
sS'type,'
p207
I1
sS'loosen'
p208
I1
sS'mouthpiece,'
p209
I1
sS'fresher'
p210
I1
sS'give'
p211
I14
sS'tennis,'
p212
I2
sS'dolphin'
p213
I4
sS'sentries'
p214
I1
sS'heartless'
p215
I1
sS'shore,'
p216
I1
sS'want'
p217
I53
sS'mouth,'
p218
I3
sS'keep'
p219
I14
sS'association'
p220
I1
sS'shirt-sleeves,'
p221
I1
sS'absolute'
p222
I2
sS'end'
p223
I13
sS'clubbed'
p224
I1
sS'turn'
p225
I7
sS'verify'
p226
I1
sS'travel'
p227
I2
sS'talk,'
p228
I1
sS'colds'
p229
I1
sS'skidded,'
p230
I1
sS'how'
p231
I39
sS'clubbing'
p232
I2
sS'youth,'
p233
I1
sS'opposite'
p234
I3
sS'boats'
p235
I8
sS'gate'
p236
I1
sS'widespread'
p237
I1
sS'beach'
p238
I2
sS'badly'
p239
I3
sS'poker'
p240
I1
sS'hadst'
p241
I1
sS'description'
p242
I1
sS'beauty'
p243
I6
sS'less'
p244
I2
sS'verbena'
p245
I1
sS'after'
p246
I31
sS'loyalty'
p247
I1
sS'hence'
p248
I1
sS'wrong'
p249
I6
sS'jumping'
p250
I6
sS'lay'
p251
I11
sS'mouthpieces'
p252
I1
sS"they're"
p253
I1
sS'tolerant,'
p254
I1
sS'explosion,'
p255
I2
sS'guerilla'
p256
I3
sS'attempt'
p257
I1
sS'splendid'
p258
I1
sS'third'
p259
I2
sS'breech'
p260
I1
sS'swale'
p261
I1
sS'headquarters'
p262
I1
sS'gentleman'
p263
I1
sS'still,'
p264
I1
sS'cigarettes'
p265
I4
sS'cold,'
p266
I1
sS'green'
p267
I12
sS'capitalist'
p268
I1
sS'keeps'
p269
I1
sS'aloud'
p270
I12
sS'racial,'
p271
I1
sS'sat,'
p272
I1
sS'order'
p273
I4
sS'wind'
p274
I11
sS'wine'
p275
I17
sS'office'
p276
I8
sS'deck'
p277
I1
sS'dreamed'
p278
I5
sS'over'
p279
I85
sS"fish's"
p280
I1
sS'down,'
p281
I12
sS'knock'
p282
I1
sS'bounding'
p283
I1
sS'terns'
p284
I1
sS'tomorrow,'
p285
I1
sS'before'
p286
I52
sS'forehead'
p287
I3
sS'difference'
p288
I8
sS'then,'
p289
I15
sS'somewhere'
p290
I5
sS'fix'
p291
I1
sS'blown'
p292
I3
sS'long,'
p293
I3
sS'better'
p294
I28
sS'trams'
p295
I3
sS'glanced'
p296
I1
sS'big-sea,'
p297
I1
sS'weeks'
p298
I1
sS'easier'
p299
I4
sS'thecounter'
p300
I1
sS'then'
p301
I75
sS'them'
p302
I140
sS'poised'
p303
I1
sS"roadmender's"
p304
I1
sS'high,'
p305
I1
sS'plaster'
p306
I1
sS"peasant's"
p307
I3
sS'school'
p308
I4
sS'finish'
p309
I6
sS'break'
p310
I8
sS'band'
p311
I1
sS'hiring'
p312
I1
sS'shameful'
p313
I1
sS'they'
p314
I173
sS'schools'
p315
I2
sS'yourself'
p316
I12
sS'silver'
p317
I2
sS'bank'
p318
I10
sS'operation,'
p319
I1
sS'bolted'
p320
I1
sS'beating,'
p321
I1
sS'worry,'
p322
I2
sS'meat'
p323
I4
sS'swaying'
p324
I1
sS'regularly'
p325
I1
sS'barbarousness'
p326
I2
sS'reasonably'
p327
I1
sS'alternately'
p328
I1
sS'chuck'
p329
I1
sS'rocks'
p330
I1
sS'filling'
p331
I2
sS'leaned'
p332
I15
sS'each'
p333
I22
sS'went'
p334
I82
sS'side'
p335
I28
sS'bone'
p336
I2
sS'luck'
p337
I5
sS'lifted'
p338
I4
sS'hanger'
p339
I1
sS'logs'
p340
I1
sS"hasn't"
p341
I3
sS'pelt'
p342
I1
sS'gymnasium'
p343
I1
sS'short,'
p344
I1
sS'fishing,'
p345
I2
sS'taught'
p346
I2
sS'forgot'
p347
I1
sS'dancings'
p348
I1
sS'sounds'
p349
I5
sS'whip'
p350
I1
sS'speed,'
p351
I1
sS'tallness'
p352
I1
sS'driving'
p353
I4
sS'haired'
p354
I1
sS'hooked'
p355
I9
sS'forty'
p356
I4
sS'eye,'
p357
I1
sS'strangers'
p358
I1
sS'connections,'
p359
I1
sS'laid'
p360
I1
sS'is,'
p361
I5
sS'got'
p362
I48
sS'newly'
p363
I1
sS'twenty-five'
p364
I1
sS'licorice'
p365
I1
sS'available,'
p366
I1
sS'turning'
p367
I4
sS'aid,'
p368
I1
sS"you're"
p369
I9
sS'hang'
p370
I1
sS'little'
p371
I44
sS'free'
p372
I1
sS'ascending'
p373
I1
sS'decent'
p374
I1
sS'necessarily'
p375
I1
sS'formation'
p376
I1
sS'storms,'
p377
I1
sS'checked'
p378
I1
sS'wanted'
p379
I17
sS"bear's"
p380
I1
sS'publication'
p381
I1
sS'go,'
p382
I3
sS'ate'
p383
I6
sS'heavy,'
p384
I8
sS'starts'
p385
I4
sS'hull'
p386
I1
sS'days'
p387
I11
sS'machine-gun'
p388
I1
sS'shipped'
p389
I3
sS'disturbed'
p390
I1
sS'plummets'
p391
I1
sS'leaps'
p392
I1
sS'loud'
p393
I2
sS'asphalt,'
p394
I1
sS'size'
p395
I2
sS'already'
p396
I5
sS'hearsay'
p397
I1
sS'accent'
p398
I1
sS'too,'
p399
I7
sS'hearing'
p400
I2
sS'wash'
p401
I4
sS'another'
p402
I42
sS'bicycle'
p403
I1
sS'thick'
p404
I5
sS'hoof'
p405
I2
sS'curtain,'
p406
I2
sS'portable'
p407
I1
sS'awfully'
p408
I9
sS"there's"
p409
I1
sS'service'
p410
I3
sS'marry,'
p411
I1
sS'top'
p412
I5
sS'bonito'
p413
I1
sS'shiny'
p414
I4
sS'elevator'
p415
I1
sS'fiction'
p416
I2
sS'needed'
p417
I4
sS'ton'
p418
I1
sS'too'
p419
I76
sS'wildly'
p420
I2
sS'legs'
p421
I7
sS'bitter'
p422
I2
sS'toe'
p423
I1
sS'curtains'
p424
I1
sS'happily'
p425
I3
sS'snooty'
p426
I1
sS'enough,'
p427
I2
sS'serve'
p428
I1
sS'took'
p429
I35
sS'waster'
p430
I1
sS'direct'
p431
I1
sS'falling,'
p432
I1
sS'mutilated'
p433
I1
sS'was,'
p434
I2
sS'somewhat'
p435
I1
sS'brushed'
p436
I1
sS'distance'
p437
I1
sS'badness'
p438
I2
sS'target'
p439
I1
sS'showed'
p440
I16
sS'hike'
p441
I1
sS'coward'
p442
I2
sS'220-grain'
p443
I1
sS'tree'
p444
I10
sS'shoveled'
p445
I1
sS'seated'
p446
I1
sS'preparation'
p447
I1
sS'matter'
p448
I15
sS'girl,'
p449
I5
sS'silly'
p450
I4
sS'endure'
p451
I1
sS'to,'
p452
I4
sS'spoiled'
p453
I1
sS'feeling'
p454
I11
sS'old,'
p455
I2
sS'riches,'
p456
I1
sS'bridge'
p457
I28
sS'looking,'
p458
I1
sS'acetylene'
p459
I1
sS'sees'
p460
I1
sS'disturb'
p461
I1
sS'resinous'
p462
I1
sS'runner'
p463
I1
sS'ram'
p464
I1
sS'mind'
p465
I12
sS'eyes'
p466
I34
sS'spent'
p467
I2
sS'well,'
p468
I5
sS'scabby'
p469
I1
sS'manner'
p470
I1
sS'shy,'
p471
I2
sS'seen'
p472
I23
sS'seem'
p473
I3
sS'dozen'
p474
I3
sS'forced'
p475
I2
sS'strength'
p476
I4
sS'hawk-bills'
p477
I1
sS'mostly'
p478
I1
sS'do,'
p479
I9
sS'dollars'
p480
I7
sS'point,'
p481
I1
sS'snow'
p482
I1
sS'elegance'
p483
I1
sS'taxi-driver'
p484
I1
sS'elation'
p485
I1
sS'aboard,'
p486
I1
sS'niece'
p487
I1
sS'doors'
p488
I1
sS'horrible-looking'
p489
I1
sS'hardest,'
p490
I1
sS'rides'
p491
I1
sS'blue'
p492
I9
sS'nobody'
p493
I1
sS'lion'
p494
I32
sS'though'
p495
I31
sS'garter'
p496
I1
sS'huh'
p497
I1
sS'object'
p498
I1
sS'wells'
p499
I1
sS'sullenly'
p500
I3
sS'mouth'
p501
I15
sS'plenty'
p502
I6
sS'circled'
p503
I2
sS'coil'
p504
I1
sS'see,'
p505
I4
sS'glow'
p506
I2
sS'cocked,'
p507
I1
sS'ride,'
p508
I1
sS'treats'
p509
I1
sS'foamy'
p510
I1
sS'bracken'
p511
I1
sS'alarm'
p512
I2
sS'camp'
p513
I13
sS'metal'
p514
I1
sS'dog'
p515
I1
sS'swamp'
p516
I3
sS'definitely'
p517
I1
sS'consummate'
p518
I1
sS'principle'
p519
I2
sS'sun-bleached'
p520
I1
sS'green-sapped'
p521
I1
sS'strong,'
p522
I2
sS'notion'
p523
I1
sS'came'
p524
I69
sS'reserve'
p525
I9
sS'saying'
p526
I2
sS'success,'
p527
I1
sS'bait'
p528
I16
sS'hunger'
p529
I1
sS'race-conscious'
p530
I1
sS'stool'
p531
I1
sS'labels'
p532
I1
sS'rise,'
p533
I1
sS'whittling'
p534
I3
sS'radio'
p535
I1
sS'treachery,'
p536
I1
sS'clock'
p537
I1
sS'pernod'
p538
I3
sS'bridge-blower'
p539
I1
sS'sharks'
p540
I1
sS'capes'
p541
I1
sS'touches'
p542
I1
sS'busy'
p543
I1
sS'painfully'
p544
I1
sS'check-book'
p545
I1
sS'shot,'
p546
I4
sS'folded'
p547
I4
sS'fianc\xe9e,'
p548
I1
sS'unleashed'
p549
I1
sS'deepest'
p550
I2
sS'rich'
p551
I5
sS'pursuing'
p552
I1
sS'tropic'
p553
I1
sS'bread'
p554
I1
sS'rice'
p555
I3
sS'des'
p556
I5
sS'run,'
p557
I1
sS'wearing'
p558
I2
sS'do'
p559
I124
sS'bastard,'
p560
I1
sS'tongue'
p561
I6
sS'de'
p562
I10
sS'watch'
p563
I3
sS'blinking'
p564
I1
sS'coast'
p565
I2
sS'pocket'
p566
I9
sS'albacore'
p567
I2
sS'report'
p568
I1
sS'frying'
p569
I1
sS'nasty'
p570
I2
sS'empty,'
p571
I1
sS'undressed'
p572
I1
sS'about,'
p573
I2
sS'beads'
p574
I2
sS'bar'
p575
I19
sS'covering'
p576
I2
sS'fields'
p577
I1
sS'rowing'
p578
I3
sS'passing'
p579
I1
sS'dipping'
p580
I2
sS'salao,'
p581
I1
sS'bay'
p582
I3
sS'men,'
p583
I3
sS'twice'
p584
I4
sS'bad'
p585
I21
sS'softly'
p586
I1
sS'shots'
p587
I1
sS'bal'
p588
I1
sS'them,'
p589
I9
sS'steal'
p590
I3
sS'steam'
p591
I1
sS'ears'
p592
I2
sS'headed'
p593
I2
sS'blew'
p594
I6
sS'decides'
p595
I1
sS'miserably'
p596
I2
sS'new,'
p597
I2
sS'wish,'
p598
I1
sS'irritable'
p599
I1
sS'checks'
p600
I1
sS'pads'
p601
I3
sS'harsh-spoken'
p602
I1
sS'extraordinarily'
p603
I1
sS'disturbing'
p604
I1
sS'jerseys'
p605
I1
sS'best'
p606
I8
sS'subject'
p607
I2
sS'possessed'
p608
I1
sS'said'
p609
I477
sS'shaven'
p610
I1
sS'lots'
p611
I3
sS'away'
p612
I41
sS'sail'
p613
I8
sS'muy'
p614
I1
sS'shaved'
p615
I3
sS'plummeting'
p616
I1
sS'clamped'
p617
I1
sS'smacks'
p618
I1
sS'mud'
p619
I1
sS'bracing'
p620
I1
sS'finger'
p621
I4
sS'pebbled'
p622
I1
sS'planes,'
p623
I1
sS'drawn'
p624
I2
sS'sorts'
p625
I1
sS'timber'
p626
I2
sS'tolerance'
p627
I1
sS'discovery'
p628
I1
sS'claws'
p629
I1
sS'we'
p630
I111
sS'men'
p631
I29
sS'impala,'
p632
I1
sS'rolled'
p633
I3
sS'smelled'
p634
I3
sS'dead-fall'
p635
I1
sS'boss'
p636
I2
sS'loading'
p637
I2
sS'drew'
p638
I3
sS'deep-chested'
p639
I2
sS'news'
p640
I2
sS'picking'
p641
I1
sS'angling'
p642
I1
sS'holds'
p643
I1
sS'bar-room,'
p644
I1
sS'pity'
p645
I1
sS'received'
p646
I1
sS'fiacre'
p647
I1
sS'cave,'
p648
I3
sS'cot'
p649
I5
sS'irregular'
p650
I3
sS'met'
p651
I1
sS'country'
p652
I11
sS'adventures'
p653
I1
sS'against'
p654
I38
sS'garcon,'
p655
I1
sS'through,'
p656
I2
sS'games'
p657
I1
sS'iron'
p658
I6
sS'marrying'
p659
I1
sS'sense'
p660
I1
sS'asked'
p661
I82
sS'lenses'
p662
I1
sS'collecting'
p663
I1
sS'bull-fighters'
p664
I1
sS'tough'
p665
I1
sS'novelist'
p666
I1
sS'appeared'
p667
I1
sS'had'
p668
I314
sS'vain'
p669
I1
sS'trunk'
p670
I2
sS'money,'
p671
I2
sS'height'
p672
I1
sS'tons'
p673
I1
sS'written'
p674
I2
sS'boys,'
p675
I1
sS'springs'
p676
I1
sS'trust'
p677
I3
sS'offered'
p678
I1
sS'speak'
p679
I10
sS'now,'
p680
I20
sS'skirt,'
p681
I1
sS'skidded'
p682
I1
sS'murder,'
p683
I1
sS'beggar'
p684
I3
sS'puts'
p685
I1
sS'basis'
p686
I2
sS'union'
p687
I1
sS'ropes'
p688
I2
sS'convent,'
p689
I1
sS'three'
p690
I32
sS'been'
p691
I80
sS'quickly'
p692
I5
sS'removed,'
p693
I1
sS'confident'
p694
I2
sS'beer'
p695
I12
sS'tuna,'
p696
I1
sS'sommelier'
p697
I1
sS'interest'
p698
I1
sS'deep,'
p699
I1
sS'expected'
p700
I2
sS'figure'
p701
I2
sS'basin'
p702
I2
sS'lovely'
p703
I7
sS'trusting'
p704
I1
sS'roping'
p705
I1
sS'thin-lipped,'
p706
I1
sS'life'
p707
I19
sS'philosophically'
p708
I1
sS'families'
p709
I1
sS'innocent'
p710
I2
sS'bladder'
p711
I1
sS'kids'
p712
I1
sS'untracked,'
p713
I1
sS'catch'
p714
I4
sS'worked'
p715
I9
sS'voices'
p716
I2
sS'pitiful'
p717
I1
sS'harshness'
p718
I1
sS'sweetshops'
p719
I1
sS'east'
p720
I2
sS'tank'
p721
I4
sS'angry,'
p722
I1
sS'tastes'
p723
I3
sS'warbler'
p724
I1
sS'air'
p725
I10
sS'lesser'
p726
I1
sS'ugly'
p727
I6
sS'evening'
p728
I6
sS'slam'
p729
I1
sS'suppose'
p730
I9
sS'difficulty,'
p731
I1
sS'papers,'
p732
I2
sS'aid'
p733
I1
sS'hunted,'
p734
I1
sS'study'
p735
I2
sS'mistake'
p736
I1
sS'remembering'
p737
I2
sS'thought,'
p738
I14
sS'seven'
p739
I2
sS'changed'
p740
I5
sS'working,'
p741
I1
sS'planking'
p742
I1
sS'is'
p743
I243
sS'trees,'
p744
I3
sS'it'
p745
I482
sS'tease'
p746
I1
sS'shame'
p747
I2
sS'to-morrow'
p748
I3
sS'cans'
p749
I3
sS'in'
p750
I520
sS'wooded'
p751
I1
sS'said,'
p752
I42
sS'traffic,'
p753
I1
sS'trusted'
p754
I1
sS'if'
p755
I72
sS'grown'
p756
I1
sS'growl'
p757
I1
sS'waken'
p758
I2
sS'bottles'
p759
I4
sS'credit'
p760
I1
sS'furled'
p761
I2
sS'things'
p762
I29
sS'make'
p763
I53
sS'fact,'
p764
I1
sS'wound'
p765
I3
sS'boulder-filled'
p766
I2
sS'emptying'
p767
I1
sS'beside'
p768
I14
sS'patient'
p769
I1
sS'belly'
p770
I2
sS'embarrassment,'
p771
I1
sS'plates'
p772
I1
sS'several'
p773
I6
sS'trotted,'
p774
I1
sS'bells'
p775
I1
sS'fairly'
p776
I2
sS'raid'
p777
I2
sS'peaks'
p778
I1
sS'typhoid'
p779
I1
sS'can,'
p780
I2
sS'social'
p781
I2
sS'tops'
p782
I4
sS'bastard'
p783
I1
sS'dexterous'
p784
I1
sS'hand'
p785
I32
sS'marched'
p786
I1
sS'supper'
p787
I1
sS'tuna'
p788
I8
sS'insisted'
p789
I2
sS'opportunity'
p790
I1
sS"he'll"
p791
I4
sS'thoughts'
p792
I1
sS'kid'
p793
I2
sS'postponed'
p794
I2
sS'kept'
p795
I13
sS'dishes'
p796
I2
sS'thy'
p797
I8
sS"mother's"
p798
I1
sS'woke,'
p799
I1
sS'error,'
p800
I1
sS'thirty-four'
p801
I2
sS'game'
p802
I2
sS'ocean'
p803
I7
sS'client'
p804
I1
sS'greatest'
p805
I3
sS'thing,'
p806
I4
sS'easily'
p807
I1
sS'cool,'
p808
I1
sS'injuring'
p809
I1
sS'gypsy,'
p810
I1
sS'smoked'
p811
I3
sS'yours'
p812
I2
sS'left'
p813
I27
sS'leagues'
p814
I1
sS"she'll"
p815
I1
sS'afraid,'
p816
I3
sS'just'
p817
I52
sS'sporting'
p818
I1
sS'distribute'
p819
I1
sS'sleepy'
p820
I5
sS'skiff'
p821
I14
sS'ideas'
p822
I1
sS'courts'
p823
I1
sS'feet,'
p824
I1
sS'shops,'
p825
I2
sS'facts'
p826
I1
sS'yes'
p827
I8
sS'scattering'
p828
I1
sS'bit'
p829
I3
sS'adding'
p830
I1
sS'spectacles'
p831
I1
sS'hills'
p832
I9
sS'vibration'
p833
I1
sS'regarded'
p834
I1
sS'office,'
p835
I1
sS'royal'
p836
I1
sS'milky'
p837
I1
sS'iridescent,'
p838
I1
sS'league,'
p839
I1
sS'easy'
p840
I5
sS'prison'
p841
I1
sS'contestant'
p842
I1
sS"beer's"
p843
I1
sS'has'
p844
I40
sS'hat'
p845
I8
sS'foot,'
p846
I3
sS'gave'
p847
I10
sS"concierge's"
p848
I1
sS'boxed'
p849
I1
sS'unjust,'
p850
I1
sS'seventy-five'
p851
I2
sS'bands'
p852
I2
sS'breaks'
p853
I1
sS'possible'
p854
I2
sS'boxes'
p855
I1
sS'child,'
p856
I2
sS'wide-spread'
p857
I1
sS'washed,'
p858
I1
sS'wanting'
p859
I2
sS'shadow'
p860
I6
sS'burns'
p861
I1
sS"d'ceuvres"
p862
I1
sS'dreams'
p863
I2
sS'apart'
p864
I4
sS'shoulder'
p865
I8
sS'sliced'
p866
I1
sS'bad,'
p867
I1
sS'opening,'
p868
I1
sS'clippety-clopping'
p869
I1
sS'dancing-club'
p870
I2
sS'hunt'
p871
I6
sS'country,'
p872
I1
sS'beggars,'
p873
I1
sS'pavement'
p874
I1
sS'mosquito'
p875
I2
sS'night'
p876
I39
sS'hung'
p877
I6
sS'crossbar'
p878
I1
sS'security'
p879
I1
sS'toros'
p880
I1
sS'thole'
p881
I1
sS'missed,'
p882
I1
sS'right'
p883
I32
sS'old'
p884
I193
sS'deal'
p885
I2
sS'people'
p886
I40
sS'staff'
p887
I1
sS'deaf'
p888
I1
sS'dead'
p889
I7
sS'born'
p890
I3
sS'sure'
p891
I9
sS'left,'
p892
I3
sS'contests'
p893
I1
sS"lion's"
p894
I3
sS'rapidity'
p895
I1
sS'tonight,'
p896
I1
sS'friend'
p897
I6
sS'for'
p898
I172
sS'fool,'
p899
I3
sS'purple'
p900
I4
sS'herring'
p901
I1
sS'unavoidable'
p902
I1
sS'fox'
p903
I4
sS'heavy-necked,'
p904
I1
sS'ice'
p905
I3
sS'rhino'
p906
I1
sS'everything'
p907
I15
sS'asking'
p908
I2
sS'month,'
p909
I3
sS'attack,'
p910
I1
sS'self-consciousness'
p911
I1
sS'gorge'
p912
I1
sS'beating'
p913
I1
sS'dined'
p914
I3
sS'cord'
p915
I1
sS'cleanest'
p916
I1
sS'neatly'
p917
I1
sS'forever,'
p918
I1
sS'platter,'
p919
I1
sS'bolt'
p920
I3
sS'filaments'
p921
I4
sS'box-bodied'
p922
I1
sS'post'
p923
I2
sS'blushed'
p924
I2
sS'shaken'
p925
I2
sS'best,'
p926
I1
sS'attacks'
p927
I1
sS'theirs'
p928
I1
sS'newspapers'
p929
I1
sS'months'
p930
I5
sS'afternoon,'
p931
I1
sS'stallion,'
p932
I1
sS'plunging'
p933
I2
sS'dinner'
p934
I4
sS'despair'
p935
I1
sS'coiled'
p936
I3
sS'afternoon'
p937
I2
sS'horizon'
p938
I1
sS'steadily'
p939
I13
sS'commit'
p940
I1
sS'twitch'
p941
I1
sS'slightly'
p942
I1
sS'hospital'
p943
I2
sS'topic,'
p944
I1
sS'duke'
p945
I1
sS'raised'
p946
I4
sS'illegal,'
p947
I1
sS'ordinary'
p948
I2
sS'lied'
p949
I1
sS'for,'
p950
I4
sS'civil'
p951
I1
sS'prisoners'
p952
I1
sS'become'
p953
I5
sS'bound'
p954
I1
sS'son'
p955
I2
sS'down'
p956
I105
sS'difference,'
p957
I2
sS'unprintable,'
p958
I1
sS'frightened'
p959
I3
sS'nuisance'
p960
I1
sS'strangely'
p961
I1
sS'guardia'
p962
I1
sS'despised'
p963
I1
sS'crowd'
p964
I6
sS'waits'
p965
I1
sS'lay,'
p966
I1
sS'flying'
p967
I12
sS'sunlight'
p968
I4
sS'fight'
p969
I4
sS'striding'
p970
I1
sS'fought'
p971
I1
sS'towing'
p972
I2
sS"boy's"
p973
I3
sS'way'
p974
I49
sS'letter'
p975
I1
sS'overhead'
p976
I1
sS'was'
p977
I599
sS'war'
p978
I7
sS'leading'
p979
I1
sS'happy'
p980
I9
sS'fork'
p981
I1
sS'head'
p982
I46
sS'washed'
p983
I1
sS'form'
p984
I3
sS'offer'
p985
I1
sS'proudly'
p986
I3
sS'sullenly,'
p987
I1
sS'so,'
p988
I3
sS'reales'
p989
I1
sS'ford'
p990
I1
sS'feminine'
p991
I1
sS'solids'
p992
I1
sS'hear'
p993
I14
sS'same,'
p994
I1
sS'astonished'
p995
I1
sS'manager,'
p996
I2
sS'nodded'
p997
I3
sS'admiration'
p998
I1
sS'featherweights,'
p999
I1
sS'cylinders'
p1000
I1
sS'flecks'
p1001
I1
sS'rippling'
p1002
I1
sS'undefeated'
p1003
I1
sS'inside'
p1004
I10
sS'dew,'
p1005
I1
sS'tell'
p1006
I27
sS'retire'
p1007
I2
sS'whiskey'
p1008
I1
sS'motorboats,'
p1009
I1
sS'nicest'
p1010
I1
sS'or,'
p1011
I1
sS'smashed'
p1012
I1
sS'emotional'
p1013
I1
sS'lantern'
p1014
I1
sS'enthusiastic'
p1015
I1
sS"sardine's"
p1016
I1
sS'brightly'
p1017
I1
sS'napkin'
p1018
I1
sS'sticks'
p1019
I2
sS'cop'
p1020
I1
sS'trunks'
p1021
I3
sS'drive'
p1022
I4
sS'somebody'
p1023
I2
sS'dear'
p1024
I2
sS'deafman'
p1025
I1
sS'saddles,'
p1026
I2
sS'promised'
p1027
I4
sS'die,'
p1028
I1
sS'floating'
p1029
I2
sS'tooth'
p1030
I1
sS'acacia'
p1031
I1
sS'trip'
p1032
I7
sS'civil,'
p1033
I1
sS'flap'
p1034
I1
sS'explained,'
p1035
I1
sS'pipe'
p1036
I2
sS'bloody-headed'
p1037
I1
sS'outstretched'
p1038
I1
sS'dying'
p1039
I1
sS'floor'
p1040
I10
sS'skirted'
p1041
I1
sS'when'
p1042
I104
sS'handed'
p1043
I10
sS'bed,'
p1044
I5
sS'parklike'
p1045
I2
sS'dialect'
p1046
I1
sS'interested'
p1047
I1
sS'republic'
p1048
I1
sS'men-of-war'
p1049
I1
sS'holding'
p1050
I8
sS'mistaken,'
p1051
I1
sS'test'
p1052
I1
sS'lull-bellied,'
p1053
I1
sS'smell'
p1054
I12
sS'picture'
p1055
I2
sS'brothers'
p1056
I1
sS'cab'
p1057
I3
sS"o'clock"
p1058
I5
sS'helps'
p1059
I1
sS'dies'
p1060
I1
sS'felt'
p1061
I42
sS'shifted'
p1062
I1
sS"let's"
p1063
I6
sS'cover,'
p1064
I1
sS'fell'
p1065
I2
sS'dark,'
p1066
I6
sS'smelling'
p1067
I1
sS'rolling'
p1068
I4
sS'aware'
p1069
I1
sS'weekend'
p1070
I1
sS'duck-shooting,'
p1071
I1
sS'warn'
p1072
I1
sS'younger'
p1073
I4
sS'apologizing'
p1074
I1
sS'faster'
p1075
I1
sS'bullet'
p1076
I5
sS'disruption'
p1077
I1
sS'sacks'
p1078
I6
sS'cuddled'
p1079
I1
sS'blushing'
p1080
I1
sS'lot'
p1081
I5
sS'commenced'
p1082
I2
sS'together'
p1083
I14
sS'publicly,'
p1084
I1
sS'jacket'
p1085
I1
sS'loyal'
p1086
I1
sS'darling,'
p1087
I7
sS'fact'
p1088
I2
sS'time'
p1089
I57
sS'push'
p1090
I1
sS'serious'
p1091
I8
sS'gorse'
p1092
I1
sS'decision'
p1093
I2
sS'phosphorescence'
p1094
I2
sS'whoever'
p1095
I1
sS'dance'
p1096
I7
sS'tank,'
p1097
I3
sS'baited'
p1098
I2
sS'manager'
p1099
I1
sS'mile'
p1100
I2
sS'daytime'
p1101
I1
sS'grateful'
p1102
I1
sS'skin'
p1103
I7
sS'chair'
p1104
I5
sS'rot'
p1105
I2
sS'milk'
p1106
I1
sS'row'
p1107
I9
sS'certainly'
p1108
I4
sS'uneven'
p1109
I1
sS'tines'
p1110
I1
sS'father'
p1111
I6
sS'thighs'
p1112
I1
sS'answered'
p1113
I4
sS'finally'
p1114
I5
sS'baits,'
p1115
I1
sS'permanently'
p1116
I1
sS'turn,'
p1117
I1
sS'wineskin,'
p1118
I1
sS'cook,'
p1119
I1
sS'brown'
p1120
I12
sS"we've"
p1121
I1
sS'jerk'
p1122
I4
sS'exalted'
p1123
I1
sS'woolly'
p1124
I1
sS'choice'
p1125
I3
sS'soapy'
p1126
I1
sS'gloomy'
p1127
I2
sS'tanks'
p1128
I1
sS'stays'
p1129
I1
sS'cook'
p1130
I2
sS'word'
p1131
I1
sS'trouble'
p1132
I6
sS'fifty'
p1133
I3
sS'exact'
p1134
I1
sS'minute'
p1135
I2
sS'wore'
p1136
I9
sS'stiffen'
p1137
I1
sS'discovered'
p1138
I4
sS'cooks'
p1139
I2
sS'clouds'
p1140
I4
sS'impressive'
p1141
I2
sS'level'
p1142
I1
sS'did'
p1143
I65
sS'die'
p1144
I4
sS'races'
p1145
I1
sS'posts'
p1146
I1
sS'gun'
p1147
I11
sS'standards'
p1148
I4
sS'leave'
p1149
I20
sS'team'
p1150
I1
sS'sardines,'
p1151
I1
sS'red-faced'
p1152
I4
sS'dip'
p1153
I5
sS'round'
p1154
I4
sS'shave'
p1155
I1
sS'upper'
p1156
I4
sS'talked'
p1157
I7
sS'says'
p1158
I4
sS'meadow'
p1159
I1
sS'sauce,'
p1160
I1
sS'else,'
p1161
I1
sS'sigh'
p1162
I1
sS'discover'
p1163
I1
sS'sign'
p1164
I5
sS'thinker'
p1165
I1
sS'prairie'
p1166
I2
sS'chopping'
p1167
I1
sS'dried'
p1168
I2
sS'climb,'
p1169
I1
sS'eating'
p1170
I9
sS'planks,'
p1171
I1
sS'fear'
p1172
I7
sS'jacket,'
p1173
I1
sS'drinks'
p1174
I4
sS'distaste'
p1175
I1
sS'heaviness'
p1176
I1
sS'blotches'
p1177
I2
sS'realizing'
p1178
I1
sS'uniform'
p1179
I2
sS'current'
p1180
I12
sS'saddle,'
p1181
I1
sS'sleepy,'
p1182
I1
sS'goes'
p1183
I3
sS'silly,'
p1184
I1
sS'falling'
p1185
I2
sS'crashing'
p1186
I2
sS'bearers'
p1187
I1
sS'filled'
p1188
I1
sS'hairy'
p1189
I1
sS'caf\xe9'
p1190
I4
sS'explosion'
p1191
I1
sS'den'
p1192
I1
sS'coolly'
p1193
I1
sS'true,'
p1194
I1
sS'heavily'
p1195
I2
sS'mane,'
p1196
I1
sS'shirt,'
p1197
I2
sS'stallion'
p1198
I2
sS'water'
p1199
I51
sS'detest'
p1200
I1
sS'baseball'
p1201
I7
sS'yards'
p1202
I4
sS'horses,'
p1203
I2
sS'alone'
p1204
I7
sS'finding,'
p1205
I1
sS'along'
p1206
I21
sS'say,'
p1207
I8
sS'change'
p1208
I2
sS'wait'
p1209
I2
sS'box'
p1210
I7
sS'boy'
p1211
I75
sS'merriment'
p1212
I1
sS'shove'
p1213
I2
sS'healthy'
p1214
I1
sS'couple,'
p1215
I1
sS'studied'
p1216
I3
sS'odour'
p1217
I1
sS'prep-school'
p1218
I1
sS'bow'
p1219
I9
sS'exploitation'
p1220
I1
sS'blood-choked'
p1221
I1
sS'here,'
p1222
I10
sS'usually'
p1223
I2
sS'beautiful,'
p1224
I1
sS'stew'
p1225
I2
sS'love'
p1226
I22
sS'stubborn'
p1227
I1
sS'merely'
p1228
I1
sS'beer,'
p1229
I4
sS'prefer'
p1230
I1
sS'marked'
p1231
I2
sS'bloody'
p1232
I5
sS'damnedest'
p1233
I2
sS"thing'n"
p1234
I1
sS'verge'
p1235
I1
sS'eager,'
p1236
I1
sS'mala,'
p1237
I1
sS'plate'
p1238
I1
sS'should'
p1239
I37
sS'market'
p1240
I3
sS'hotels'
p1241
I1
sS'sweating'
p1242
I2
sS'team,'
p1243
I1
sS'wings,'
p1244
I2
sS'sorrel,'
p1245
I1
sS'indicated'
p1246
I1
sS'working'
p1247
I11
sS'salting'
p1248
I1
sS'positive'
p1249
I1
sS'angry'
p1250
I4
sS'stated'
p1251
I1
sS'visit'
p1252
I1
sS'believe,'
p1253
I1
sS'live'
p1254
I11
sS'wood'
p1255
I3
sS'wonderfully'
p1256
I2
sS'pursed'
p1257
I1
sS'frothy'
p1258
I1
sS'sighted'
p1259
I1
sS'francs'
p1260
I1
sS'dancingclub'
p1261
I1
sS'matador'
p1262
I1
sS'today'
p1263
I10
sS'wicked'
p1264
I1
sS'roared'
p1265
I3
sS'entrance'
p1266
I3
sS'artillery'
p1267
I1
sS'club'
p1268
I1
sS'dislikes'
p1269
I1
sS'fast-moving'
p1270
I1
sS'figured'
p1271
I1
sS'envelope'
p1272
I1
sS'gentlemen,'
p1273
I1
sS'belt,'
p1274
I1
sS'three,'
p1275
I1
sS'beers'
p1276
I1
sS'virtue'
p1277
I1
sS'francs,'
p1278
I1
sS'blood,'
p1279
I1
sS'effort'
p1280
I1
sS'frogs'
p1281
I1
sS'fly'
p1282
I2
sS'and,'
p1283
I21
sS'silliness,'
p1284
I1
sS'angel,'
p1285
I1
sS'cables,'
p1286
I1
sS'grant'
p1287
I1
sS'car'
p1288
I30
sS'pretend'
p1289
I1
sS'beaver'
p1290
I1
sS'soul'
p1291
I1
sS'cat'
p1292
I2
sS'hardest'
p1293
I1
sS'can'
p1294
I75
sS'big,'
p1295
I1
sS'following'
p1296
I1
sS'making'
p1297
I6
sS'franc'
p1298
I1
sS'bites'
p1299
I1
sS'coral'
p1300
I1
sS'streak'
p1301
I2
sS'heart'
p1302
I5
sS'crazy'
p1303
I1
sS'grassy'
p1304
I1
sS'stream'
p1305
I20
sS'mauled'
p1306
I1
sS'wind-'
p1307
I1
sS"didn't"
p1308
I9
sS'near'
p1309
I5
sS'concierge'
p1310
I2
sS'heard'
p1311
I23
sS'tinted'
p1312
I1
sS'chin'
p1313
I3
sS'dropped'
p1314
I7
sS'hides'
p1315
I1
sS'phrase'
p1316
I1
sS'yet'
p1317
I3
sS'evidently'
p1318
I1
sS'lovingly,'
p1319
I1
sS'scar'
p1320
I1
sS're-defined'
p1321
I1
sS'winter'
p1322
I2
sS'watching'
p1323
I15
sS'magazine'
p1324
I4
sS'pine'
p1325
I3
sS'moaning,'
p1326
I1
sS'roaring,'
p1327
I1
sS'baseball,'
p1328
I2
sS'flank'
p1329
I1
sS'actual'
p1330
I1
sS'fourth'
p1331
I1
sS'elephant'
p1332
I3
sS'urinated'
p1333
I2
sS'nose,'
p1334
I2
sS'loathe'
p1335
I1
sS'belongs'
p1336
I2
sS'listen,'
p1337
I1
sS'map'
p1338
I5
sS'product'
p1339
I1
sS'mar'
p1340
I2
sS'smooth-looking'
p1341
I1
sS'may'
p1342
I4
sS'hide,'
p1343
I2
sS'dive'
p1344
I1
sS'fed'
p1345
I2
sS'eighty'
p1346
I2
sS'hand-tooled'
p1347
I1
sS'stripes'
p1348
I1
sS'grass,'
p1349
I1
sS'crashed'
p1350
I1
sS'boards'
p1351
I1
sS'chaps,'
p1352
I1
sS'date'
p1353
I3
sS'such'
p1354
I14
sS'dove'
p1355
I1
sS'shockingly'
p1356
I1
sS'unbelievably'
p1357
I1
sS'man'
p1358
I211
sS'scrambling'
p1359
I1
sS'tile'
p1360
I1
sS'natural'
p1361
I2
sS'remember'
p1362
I17
sS'save'
p1363
I1
sS'different,'
p1364
I1
sS'maybe'
p1365
I7
sS'reservations,'
p1366
I1
sS'hailed'
p1367
I1
sS'so'
p1368
I96
sS'basket'
p1369
I1
sS'tall'
p1370
I11
sS'wolves'
p1371
I1
sS"l'eau"
p1372
I1
sS'pulled'
p1373
I8
sS'talk'
p1374
I27
sS'up-stairs'
p1375
I2
sS'no,'
p1376
I2
sS'timer,'
p1377
I1
sS'shoes'
p1378
I3
sS'pointed'
p1379
I6
sS'haircut'
p1380
I3
sS'years'
p1381
I16
sS'course'
p1382
I7
sS'incapacity'
p1383
I1
sS'terrace'
p1384
I2
sS'cuts'
p1385
I1
sS'cold'
p1386
I14
sS'still'
p1387
I40
sS'birds'
p1388
I5
sS'tore'
p1389
I1
sS'machine'
p1390
I3
sS'accepted'
p1391
I1
sS'thank'
p1392
I5
sS'hors'
p1393
I4
sS"he's"
p1394
I8
sS'flower-women'
p1395
I1
sS'did,'
p1396
I2
sS'torn'
p1397
I1
sS'hot'
p1398
I15
sS'tanned,'
p1399
I1
sS"he'd"
p1400
I2
sS'platform'
p1401
I1
sS'immortality'
p1402
I1
sS'suspicion'
p1403
I1
sS'breathed,'
p1404
I1
sS'ours'
p1405
I2
sS'happened'
p1406
I10
sS'lonely'
p1407
I1
sS'smash'
p1408
I1
sS'nod'
p1409
I1
sS'pocket,'
p1410
I1
sS'shatter'
p1411
I1
sS'maquina'
p1412
I1
sS'year,'
p1413
I1
sS'lunch'
p1414
I6
sS'safari'
p1415
I5
sS'half'
p1416
I12
sS'not'
p1417
I244
sS'interesting'
p1418
I1
sS'now'
p1419
I100
sS'porters'
p1420
I1
sS'killed'
p1421
I13
sS'nor'
p1422
I19
sS'cry,'
p1423
I1
sS'term'
p1424
I1
sS'falsest'
p1425
I1
sS'name'
p1426
I23
sS'corners'
p1427
I1
sS'frank'
p1428
I1
sS'drop'
p1429
I4
sS'up-take,'
p1430
I1
sS'locked'
p1431
I1
sS'leather'
p1432
I4
sS'soon,'
p1433
I1
sS'fisherman'
p1434
I3
sS'rock'
p1435
I2
sS'quarter'
p1436
I3
sS'repaired'
p1437
I1
sS"mustn't"
p1438
I2
sS'carefully,'
p1439
I1
sS'turtle'
p1440
I2
sS'el'
p1441
I1
sS'square'
p1442
I1
sS"another's"
p1443
I2
sS'elephants'
p1444
I2
sS'publishers'
p1445
I1
sS'advantage,'
p1446
I1
sS'abnormal'
p1447
I1
sS'hurried'
p1448
I1
sS'prisms'
p1449
I2
sS'whiplash'
p1450
I1
sS'fever'
p1451
I1
sS'car,'
p1452
I5
sS'year'
p1453
I5
sS'tarpaulin'
p1454
I2
sS'happen'
p1455
I3
sS'avoided'
p1456
I2
sS'sunrise'
p1457
I1
sS'plans'
p1458
I1
sS'living'
p1459
I6
sS'canvas'
p1460
I3
sS'yes,'
p1461
I2
sS'container'
p1462
I2
sS'opened'
p1463
I8
sS'gypsy'
p1464
I42
sS'factory'
p1465
I2
sS'downhill'
p1466
I1
sS'looking'
p1467
I35
sS'mess'
p1468
I2
sS'miles'
p1469
I1
sS"shouldn't"
p1470
I2
sS'rock,'
p1471
I1
sS'thin,'
p1472
I1
sS'dominate'
p1473
I1
sS'us,'
p1474
I3
sS'whispered,'
p1475
I1
sS'shows'
p1476
I1
sS'earlier'
p1477
I1
sS'bolts'
p1478
I1
sS'sideways'
p1479
I2
sS'cart'
p1480
I1
sS'quite'
p1481
I16
sS'directions,'
p1482
I1
sS'wide-nostrilled'
p1483
I1
sS'complicated'
p1484
I1
sS'folded,'
p1485
I1
sS'intensely'
p1486
I1
sS'skillfully'
p1487
I1
sS'buckskin'
p1488
I2
sS'cough'
p1489
I1
sS'superior,'
p1490
I1
sS'care'
p1491
I14
sS'swell'
p1492
I2
sS'bars'
p1493
I1
sS'dance,'
p1494
I2
sS'silhouetted'
p1495
I1
sS'language'
p1496
I1
sS'waiter'
p1497
I12
sS'musette'
p1498
I1
sS"machinegunner's"
p1499
I1
sS'gaff'
p1500
I4
sS'bargemen'
p1501
I1
sS'motion'
p1502
I1
sS'thing'
p1503
I32
sS'place'
p1504
I10
sS'pouches'
p1505
I1
sS'tension,'
p1506
I1
sS'envied'
p1507
I1
sS'saucers'
p1508
I2
sS'think'
p1509
I51
sS'waited'
p1510
I5
sS'first'
p1511
I29
sS'blind'
p1512
I1
sS'marvelously,'
p1513
I1
sS'tennis'
p1514
I2
sS'dwelling'
p1515
I1
sS'achingly'
p1516
I1
sS'faculty'
p1517
I1
sS'mountainside'
p1518
I3
sS'prepped'
p1519
I1
sS'one'
p1520
I139
sS'merrily'
p1521
I1
sS'long'
p1522
I42
sS'sore,'
p1523
I1
sS'carry'
p1524
I11
sS'impossible'
p1525
I3
sS'ring'
p1526
I1
sS'drove'
p1527
I3
sS'open'
p1528
I15
sS'tomorrow'
p1529
I2
sS'ripping'
p1530
I2
sS'cheerfully'
p1531
I1
sS'given'
p1532
I5
sS'thoughtless'
p1533
I1
sS'sheet'
p1534
I1
sS'silent'
p1535
I1
sS'quality'
p1536
I1
sS'day-light,'
p1537
I1
sS'caught'
p1538
I6
sS'slept'
p1539
I4
sS'dressed'
p1540
I4
sS'anyone'
p1541
I3
sS'cognac'
p1542
I1
sS'cooling'
p1543
I1
sS'shiver'
p1544
I3
sS'thyself,'
p1545
I1
sS'white'
p1546
I30
sS'bitt'
p1547
I1
sS'speaking'
p1548
I3
sS'editor'
p1549
I1
sS'formalized,'
p1550
I1
sS'summertime'
p1551
I1
sS'on,'
p1552
I9
sS'that'
p1553
I395
sS'sores'
p1554
I1
sS'spoke,'
p1555
I1
sS'much,'
p1556
I3
sS'hut'
p1557
I2
sS'corner,'
p1558
I1
sS'ridiculous'
p1559
I1
sS'occupation,'
p1560
I1
sS'grunt'
p1561
I2
sS'than'
p1562
I30
sS"here's"
p1563
I1
sS'inventor'
p1564
I1
sS'wide'
p1565
I6
sS'bloating'
p1566
I1
sS'wert'
p1567
I1
sS'favors'
p1568
I1
sS'white-muscled,'
p1569
I1
sS'future'
p1570
I2
sS'knives'
p1571
I1
sS'were'
p1572
I175
sS'cards'
p1573
I1
sS'slanted'
p1574
I1
sS'wandering'
p1575
I1
sS'damned'
p1576
I12
sS'earth,'
p1577
I1
sS'and'
p1578
I1350
sS'gathering'
p1579
I1
sS'stubby'
p1580
I1
sS'crashing,'
p1581
I1
sS'turned'
p1582
I30
sS'few'
p1583
I6
sS'sad'
p1584
I7
sS'winding'
p1585
I1
sS'say'
p1586
I28
sS'bulking'
p1587
I2
sS'teasingly'
p1588
I1
sS'coming,'
p1589
I3
sS'breakfast'
p1590
I4
sS'saw'
p1591
I53
sS'any'
p1592
I56
sS'lip-stick,'
p1593
I1
sS'sat'
p1594
I41
sS'hooded'
p1595
I1
sS'silhouette'
p1596
I2
sS'grinned,'
p1597
I2
sS'up-tilted'
p1598
I1
sS'foreigner'
p1599
I4
sS'aside'
p1600
I1
sS'note'
p1601
I2
sS'dining'
p1602
I4
sS'take'
p1603
I42
sS'praised'
p1604
I1
sS'new'
p1605
I9
sS'congratulations,'
p1606
I1
sS'healthful'
p1607
I1
sS'pencil,'
p1608
I2
sS'surf'
p1609
I1
sS'begin'
p1610
I1
sS'skinned'
p1611
I1
sS'pain'
p1612
I1
sS'deafening'
p1613
I1
sS'normal'
p1614
I1
sS'attractiveness'
p1615
I1
sS'price'
p1616
I1
sS'knew'
p1617
I52
sS'dysentery'
p1618
I1
sS'paid'
p1619
I2
sS'voice,'
p1620
I1
sS'khaki,'
p1621
I1
sS'abut'
p1622
I3
sS'whichever'
p1623
I1
sS'skinner'
p1624
I1
sS'pair'
p1625
I4
sS'knee'
p1626
I1
sS'flannel'
p1627
I3
sS'cleared'
p1628
I1
sS'creditable'
p1629
I1
sS'forever'
p1630
I1
sS'operate'
p1631
I2
sS'strength,'
p1632
I2
sS'especially'
p1633
I2
sS'failure'
p1634
I1
sS'considered'
p1635
I4
sS'removed'
p1636
I1
sS'later'
p1637
I5
sS'steady'
p1638
I2
sS'hungry'
p1639
I5
sS'remembering,'
p1640
I1
sS'cushioned'
p1641
I1
sS'careless'
p1642
I2
sS'something,'
p1643
I4
sS'barman'
p1644
I1
sS'dynamite,'
p1645
I2
sS'butchered'
p1646
I3
sS'professional'
p1647
I2
sS'salt'
p1648
I1
sS'alone,'
p1649
I3
sS'quantity'
p1650
I1
sS'good-night'
p1651
I1
sS'walking'
p1652
I4
sS"hundred's"
p1653
I1
sS'shot'
p1654
I11
sS'flojo,'
p1655
I1
sS'show'
p1656
I11
sS'killer,'
p1657
I1
sS'skiff,'
p1658
I2
sS'dogs,'
p1659
I1
sS'bright'
p1660
I3
sS'shod'
p1661
I1
sS'tiredness'
p1662
I1
sS'hack'
p1663
I1
sS'corner'
p1664
I5
sS'inshore'
p1665
I1
sS'ground'
p1666
I8
sS"father's"
p1667
I1
sS'slow'
p1668
I2
sS'dice'
p1669
I1
sS'mind,'
p1670
I1
sS'true'
p1671
I5
sS'school,'
p1672
I2
sS'enough'
p1673
I19
sS'joke,'
p1674
I2
sS'sell-out'
p1675
I1
sS'try,'
p1676
I1
sS'only'
p1677
I49
sS'going'
p1678
I68
sS'black'
p1679
I14
sS'four-letter'
p1680
I1
sS'equipped'
p1681
I1
sS'bureau'
p1682
I1
sS'panic-stricken,'
p1683
I1
sS'wool'
p1684
I1
sS'dreaded'
p1685
I1
sS'approached,'
p1686
I1
sS'lighted'
p1687
I3
sS'guarded'
p1688
I1
sS'deep-creased'
p1689
I1
sS'get'
p1690
I77
sS'straggler'
p1691
I1
sS'cannon'
p1692
I1
sS'refreshed'
p1693
I1
sS'expectation'
p1694
I1
sS'cholera,'
p1695
I1
sS'truly'
p1696
I6
sS'cursing'
p1697
I1
sS"oughtn't"
p1698
I1
sS'cannot'
p1699
I14
sS'nearly'
p1700
I4
sS'brandy,'
p1701
I1
sS'mysticism'
p1702
I1
sS'beard-stubbled'
p1703
I1
sS'lame'
p1704
I1
sS'skinning'
p1705
I1
sS'next,'
p1706
I1
sS"else's"
p1707
I1
sS'borrow'
p1708
I4
sS'gesturing'
p1709
I1
sS'morning'
p1710
I24
sS'naked'
p1711
I2
sS'jokes'
p1712
I3
sS'stupid'
p1713
I4
sS'friends,'
p1714
I1
sS'baits'
p1715
I8
sS'liable'
p1716
I1
sS'neat,'
p1717
I1
sS'tent'
p1718
I10
sS'where'
p1719
I71
sS'worrying'
p1720
I1
sS'husband'
p1721
I4
sS'crazy,'
p1722
I4
sS'pebbly'
p1723
I1
sS'burst'
p1724
I1
sS'station'
p1725
I5
sS'banged'
p1726
I1
sS'asked,'
p1727
I6
sS'sifting'
p1728
I1
sS'anchored'
p1729
I1
sS'doings'
p1730
I1
sS'asleep'
p1731
I12
sS'seal'
p1732
I3
sS'explosive'
p1733
I2
sS'hand-forged'
p1734
I1
sS'liquorice,'
p1735
I1
sS'wonder'
p1736
I10
sS'come,'
p1737
I3
sS'yacht,'
p1738
I1
sS'ways'
p1739
I1
sS'jumped'
p1740
I3
sS'review'
p1741
I2
sS'pencil'
p1742
I4
sS'spoons'
p1743
I1
sS'north-west'
p1744
I2
sS'outside'
p1745
I11
sS'kilometer'
p1746
I1
sS'stupid,'
p1747
I1
sS'between'
p1748
I12
sS'big-bored'
p1749
I1
sS'reading'
p1750
I2
sS'man,'
p1751
I14
sS'across'
p1752
I29
sS'whipped'
p1753
I1
sS'whispered'
p1754
I1
sS'notice'
p1755
I1
sS'dive,'
p1756
I1
sS'sun-burned'
p1757
I1
sS'anyway,'
p1758
I1
sS"morning's"
p1759
I1
sS'killing'
p1760
I4
sS'good-looking'
p1761
I3
sS'spare'
p1762
I1
sS'sea,'
p1763
I1
sS'rapidly'
p1764
I3
sS'comb'
p1765
I1
sS'come'
p1766
I44
sS'majestically'
p1767
I1
sS'many'
p1768
I49
sS'correctly'
p1769
I1
sS'quiet'
p1770
I1
sS'personal'
p1771
I2
sS'columnist'
p1772
I2
sS'present'
p1773
I1
sS'way,'
p1774
I2
sS'wheels'
p1775
I2
sS'comes'
p1776
I9
sS'allowance'
p1777
I1
sS'duty'
p1778
I1
sS'among'
p1779
I4
sS'champion,'
p1780
I1
sS'afterwards'
p1781
I3
sS'cancer'
p1782
I1
sS'metal-cased'
p1783
I1
sS'color'
p1784
I4
sS'pot'
p1785
I3
sS'pop'
p1786
I1
sS'satisfaction'
p1787
I1
sS'pole'
p1788
I1
sS'swum'
p1789
I1
sS"couldn't"
p1790
I5
sS'skinful,'
p1791
I1
sS'fair,'
p1792
I1
sS'boat'
p1793
I22
sS'cramps'
p1794
I1
sS'destroyed'
p1795
I1
sS'cities'
p1796
I1
sS'rabbits,'
p1797
I1
sS'stretch'
p1798
I5
sS'daily'
p1799
I1
sS'cared'
p1800
I1
sS'games,'
p1801
I2
sS'cords'
p1802
I1
sS'cucumbers'
p1803
I1
sS'sensibly'
p1804
I1
sS'wants'
p1805
I2
sS'direction'
p1806
I1
sS'grippes'
p1807
I1
sS'thousand'
p1808
I6
sS'forearms,'
p1809
I1
sS'manner,'
p1810
I1
sS'squash'
p1811
I1
sS'gripped'
p1812
I1
sS'tightened'
p1813
I1
sS'wake'
p1814
I6
sS'asks'
p1815
I1
sS'careful'
p1816
I4
sS'hidden'
p1817
I3
sS'robber'
p1818
I1
sS'breakfast,'
p1819
I1
sS'sound'
p1820
I7
sS'shaft'
p1821
I1
sS'myself'
p1822
I6
sS'stand'
p1823
I5
sS'turtles'
p1824
I6
sS'these'
p1825
I17
sS'sauce'
p1826
I3
sS'worried'
p1827
I4
sS'chap'
p1828
I3
sS'ready,'
p1829
I3
sS'straighter'
p1830
I1
sS'sometime'
p1831
I1
sS'fines'
p1832
I2
sS'editorial'
p1833
I1
sS'forefinger'
p1834
I1
sS'newspaper'
p1835
I5
sS'slapping'
p1836
I1
sS'cobbles'
p1837
I1
sS'fool'
p1838
I5
sS'croaked'
p1839
I1
sS'crowded,'
p1840
I1
sS'sawdust'
p1841
I1
sS'edge,'
p1842
I1
sS'telephone'
p1843
I1
sS'cars,'
p1844
I3
sS'according'
p1845
I1
sS'strain'
p1846
I3
sS'sudden'
p1847
I4
sS'graceful'
p1848
I1
sS'paying,'
p1849
I1
sS'bareheaded'
p1850
I1
sS'ivy'
p1851
I1
sS'worry'
p1852
I13
sS'movements'
p1853
I1
sS'bags'
p1854
I4
sS'different'
p1855
I6
sS'train,'
p1856
I3
sS'pay'
p1857
I2
sS'little,'
p1858
I3
sS'bowl'
p1859
I3
sS'same'
p1860
I14
sS'gentlemen'
p1861
I1
sS'shifts'
p1862
I1
sS'dining-room'
p1863
I1
sS'haunch'
p1864
I1
sS'speech'
p1865
I3
sS'motioned'
p1866
I2
sS'stepped'
p1867
I5
sS'thee'
p1868
I6
sS'pan'
p1869
I1
sS'week'
p1870
I6
sS'cup-shaped'
p1871
I1
sS'oil'
p1872
I2
sS'barefoot'
p1873
I1
sS'closest'
p1874
I1
sS'driver'
p1875
I10
sS'drives'
p1876
I1
sS'horse-chestnut'
p1877
I2
sS'weed'
p1878
I4
sS'annulled'
p1879
I2
sS'running'
p1880
I5
sS'edges'
p1881
I1
sS'lashing'
p1882
I1
sS'delicate'
p1883
I5
sS'statue'
p1884
I2
sS'been,'
p1885
I1
sS'climbing'
p1886
I4
sS'flexed'
p1887
I1
sS'swine,'
p1888
I1
sS'middleweight'
p1889
I3
sS'overwhelmed,'
p1890
I1
sS'tracking'
p1891
I1
sS'traps'
p1892
I1
sS'bodied'
p1893
I1
sS'no'
p1894
I78
sS'eighty-five'
p1895
I3
sS'breeze'
p1896
I8
sS"can't"
p1897
I24
sS'bottle'
p1898
I5
sS'very'
p1899
I108
sS'advice'
p1900
I1
sS'bumping'
p1901
I1
sS'bag,'
p1902
I1
sS'charged'
p1903
I1
sS'taxi'
p1904
I11
sS'summer'
p1905
I1
sS'forceful,'
p1906
I1
sS'nights,'
p1907
I1
sS'am,'
p1908
I1
sS'being'
p1909
I15
sS'money'
p1910
I8
sS'rest'
p1911
I4
sS'slimy'
p1912
I2
sS'growled'
p1913
I1
sS'kill'
p1914
I10
sS'greetings'
p1915
I1
sS'khaki'
p1916
I1
sS'slanting'
p1917
I2
sS'fineness'
p1918
I1
sS'reality'
p1919
I1
sS'speed'
p1920
I2
sS'asleep,'
p1921
I2
sS'captured'
p1922
I1
sS'dynamiter,'
p1923
I1
sS'blow'
p1924
I14
sS'announcement'
p1925
I2
sS'death'
p1926
I1
sS'dipped'
p1927
I9
sS"'he's"
p1928
I1
sS'mother'
p1929
I3
sS'thinking'
p1930
I11
sS'rose'
p1931
I15
sS'possible,'
p1932
I1
sS'seems'
p1933
I1
sS'except'
p1934
I17
sS'parts'
p1935
I1
sS'thighs,'
p1936
I1
sS'pile'
p1937
I3
sS'rosy'
p1938
I1
sS'hind'
p1939
I2
sS'strange,'
p1940
I5
sS'struck'
p1941
I3
sS'pegs'
p1942
I1
sS'bones,'
p1943
I1
sS'grinning,'
p1944
I1
sS'wife,'
p1945
I3
sS'idiom'
p1946
I1
sS'stories,'
p1947
I1
sS'around'
p1948
I36
sS'kills'
p1949
I2
sS'fine,'
p1950
I2
sS'read'
p1951
I22
sS'twitchy'
p1952
I1
sS'papers'
p1953
I5
sS'dark'
p1954
I28
sS'sight,'
p1955
I1
sS'traffic'
p1956
I1
sS'ants'
p1957
I1
sS'politely'
p1958
I2
sS'sorry,'
p1959
I1
sS'using'
p1960
I1
sS'aiming'
p1961
I1
sS'lady'
p1962
I4
sS'boats,'
p1963
I1
sS'rear'
p1964
I1
sS'week,'
p1965
I1
sS'fortuna'
p1966
I2
sS'towel'
p1967
I1
sS'pounds'
p1968
I4
sS'cheerily'
p1969
I1
sS'towed'
p1970
I2
sS'miracle'
p1971
I1
sS'benefit'
p1972
I1
sS'either'
p1973
I7
sS'woman,'
p1974
I2
sS'served'
p1975
I1
sS'laugh'
p1976
I1
sS'guttural,'
p1977
I1
sS'pickled'
p1978
I1
sS'mistrust'
p1979
I1
sS'dubbing'
p1980
I1
sS'laughed'
p1981
I7
sS'respect'
p1982
I1
sS'canteen'
p1983
I1
sS'divine'
p1984
I1
sS'spectacles,'
p1985
I1
sS'thinks'
p1986
I1
sS'boxers'
p1987
I1
sS'traffic-signal,'
p1988
I1
sS'unlocked'
p1989
I1
sS'attacks,'
p1990
I1
sS'noon'
p1991
I3
sS'faintly'
p1992
I3
sS'paying'
p1993
I1
sS'moon'
p1994
I5
sS'throat'
p1995
I5
sS'bridges'
p1996
I3
sS'wart-hog'
p1997
I1
sS'station,'
p1998
I1
sS'forks'
p1999
I2
sS'solemn'
p2000
I1
sS'neck,'
p2001
I2
sS'knife'
p2002
I3
sS'severed'
p2003
I1
sS'caring'
p2004
I1
sS'think,'
p2005
I2
sS'waited,'
p2006
I1
sS'scientific'
p2007
I1
sS'business'
p2008
I9
sS'papa'
p2009
I1
sS'rush,'
p2010
I1
sS'thumbnail'
p2011
I1
sS'windfalls'
p2012
I1
sS'sixty'
p2013
I1
sS'lamplight'
p2014
I1
sS'throw'
p2015
I4
sS'beaches'
p2016
I3
sS'two-franc'
p2017
I1
sS'on'
p2018
I264
sS'conducting'
p2019
I1
sS'enameled'
p2020
I1
sS'staff,'
p2021
I1
sS'muzzle'
p2022
I1
sS'thirsty,'
p2023
I1
sS'roar'
p2024
I7
sS'shaved,'
p2025
I1
sS'discussed'
p2026
I1
sS'shrimp'
p2027
I1
sS'practical'
p2028
I1
sS'explaining'
p2029
I1
sS'journey'
p2030
I1
sS'wolf'
p2031
I4
sS"isn't"
p2032
I13
sS'act'
p2033
I1
sS'concentrations'
p2034
I1
sS'mean'
p2035
I13
sS'out,'
p2036
I6
sS'or'
p2037
I55
sS'road'
p2038
I15
sS'quietly'
p2039
I4
sS'weighs'
p2040
I2
sS'telling'
p2041
I1
sS'cursed'
p2042
I1
sS'eighty-seven'
p2043
I2
sS'rising'
p2044
I2
sS'determine'
p2045
I1
sS'dreaming'
p2046
I1
sS'difficult,'
p2047
I2
sS'valuable'
p2048
I1
sS'bubonic'
p2049
I1
sS'morning,'
p2050
I4
sS'your'
p2051
I41
sS'dirt,'
p2052
I1
sS'breath'
p2053
I1
sS'street-car'
p2054
I1
sS'log'
p2055
I2
sS'her'
p2056
I172
sS'quid'
p2057
I1
sS'satisfied,'
p2058
I1
sS'there'
p2059
I87
sS'sloped'
p2060
I2
sS'desert'
p2061
I1
sS'start'
p2062
I7
sS'cats'
p2063
I1
sS'lions'
p2064
I3
sS'low'
p2065
I7
sS'stars'
p2066
I2
sS'thick,'
p2067
I1
sS'valley'
p2068
I3
sS'bubble'
p2069
I2
sS'hare'
p2070
I1
sS'international,'
p2071
I1
sS'you,'
p2072
I20
sS'complete'
p2073
I2
sS'tobacco,'
p2074
I1
sS'gun-bearers'
p2075
I6
sS'rose-colored,'
p2076
I1
sS'delayed'
p2077
I1
sS'curiously'
p2078
I2
sS'brain'
p2079
I1
sS'another,'
p2080
I3
sS'to-day'
p2081
I1
sS'pitched'
p2082
I1
sS'trying'
p2083
I5
sS'with'
p2084
I297
sS'wild,'
p2085
I1
sS'buying'
p2086
I1
sS'longer'
p2087
I4
sS'football'
p2088
I1
sS'pull'
p2089
I10
sS'rush'
p2090
I5
sS'arranged'
p2091
I1
sS'improved'
p2092
I1
sS'naming'
p2093
I1
sS"wasn't"
p2094
I5
sS'are,'
p2095
I2
sS'lion,'
p2096
I9
sS'wealthier,'
p2097
I1
sS'sadness'
p2098
I5
sS'dirty'
p2099
I5
sS'mopping'
p2100
I1
sS'he,'
p2101
I2
sS'grass'
p2102
I15
sS'advantage'
p2103
I1
sS'agree'
p2104
I1
sS'castles'
p2105
I1
sS'gone'
p2106
I23
sS'subdue'
p2107
I1
sS'taste'
p2108
I2
sS'certain'
p2109
I10
sS'describe'
p2110
I1
sS'am'
p2111
I30
sS'strips'
p2112
I2
sS'an'
p2113
I78
sS'as'
p2114
I215
sS'at'
p2115
I258
sS'file'
p2116
I1
sS'watched'
p2117
I17
sS'pillow,'
p2118
I1
sS'horse'
p2119
I5
sS'fill'
p2120
I1
sS'again'
p2121
I44
sS'spice'
p2122
I1
sS'heather'
p2123
I1
sS'rounds'
p2124
I1
sS'bad-looking'
p2125
I1
sS'farther'
p2126
I1
sS'back,'
p2127
I3
sS'carapaced'
p2128
I1
sS'scarred,'
p2129
I1
sS'tight'
p2130
I5
sS'fear,'
p2131
I1
sS'wet,'
p2132
I1
sS'declare'
p2133
I1
sS'you'
p2134
I419
sS'trash'
p2135
I1
sS'coughing'
p2136
I3
sS'disgraceful'
p2137
I1
sS'delicately,'
p2138
I1
sS'poor'
p2139
I5
sS'foreigner,'
p2140
I2
sS'treacheries'
p2141
I1
sS'shelter'
p2142
I1
sS'slipover'
p2143
I1
sS'teeth'
p2144
I3
sS'drift'
p2145
I1
sS'cove'
p2146
I1
sS'seriousness'
p2147
I2
sS'brandy'
p2148
I7
sS'important'
p2149
I3
sS'flattened'
p2150
I3
sS'unattractive'
p2151
I1
sS"she's"
p2152
I2
sS'brass'
p2153
I1
sS'awkwardly'
p2154
I1
sS'pool'
p2155
I1
sS'building'
p2156
I3
sS'ridden'
p2157
I1
sS'sardine'
p2158
I1
sS'sewed'
p2159
I1
sS'wife'
p2160
I37
sS'gunwale'
p2161
I2
sS'tricks'
p2162
I2
sS'curve'
p2163
I1
sS'mast'
p2164
I7
sS'driver,'
p2165
I1
sS'doubted'
p2166
I1
sS'sullenness'
p2167
I1
sS'evenly'
p2168
I1
sS'resolution'
p2169
I1
sS'strings'
p2170
I2
sS'storm-bound'
p2171
I1
sS'all'
p2172
I162
sS'looped'
p2173
I1
sS'forget'
p2174
I3
sS'pointing'
p2175
I2
sS'sighing'
p2176
I1
sS'bull'
p2177
I10
sS'liquor,'
p2178
I1
sS'limited'
p2179
I1
sS'month'
p2180
I3
sS'hit,'
p2181
I1
sS'thoughtful'
p2182
I1
sS'zinc'
p2183
I2
sS'dish'
p2184
I3
sS'follow'
p2185
I1
sS'decisions'
p2186
I1
sS'sung'
p2187
I2
sS'wakened'
p2188
I2
sS'really,'
p2189
I2
sS'equipment'
p2190
I1
sS'huge,'
p2191
I4
sS'beaters'
p2192
I1
sS'everywhere'
p2193
I3
sS'north,'
p2194
I1
sS'dusty,'
p2195
I1
sS'including'
p2196
I2
sS'laughing'
p2197
I2
sS'eighty-four'
p2198
I1
sS'tail'
p2199
I5
sS'those'
p2200
I15
sS'mother,'
p2201
I1
sS'smile'
p2202
I3
sS'tweed'
p2203
I1
sS'passed'
p2204
I11
sS'although,'
p2205
I1
sS'earlier,'
p2206
I1
sS'case'
p2207
I2
sS'overwhelmed'
p2208
I2
sS'woman'
p2209
I27
sS'worse'
p2210
I4
sS'righted'
p2211
I1
sS'sitting'
p2212
I17
sS'far'
p2213
I29
sS'foxes,'
p2214
I1
sS'swallows'
p2215
I1
sS'shortly,'
p2216
I1
sS'floated'
p2217
I1
sS'coloured'
p2218
I1
sS'seal,'
p2219
I1
sS'worst'
p2220
I1
sS'sun,'
p2221
I1
sS'surprise'
p2222
I1
sS'awful'
p2223
I2
sS'bubbles'
p2224
I1
sS'soles'
p2225
I1
sS'enter'
p2226
I1
sS'college,'
p2227
I1
sS'condition'
p2228
I1
sS'trigger'
p2229
I2
sS'enjoyable'
p2230
I1
sS'sentimental'
p2231
I1
sS'benevolent'
p2232
I1
sS'windy,'
p2233
I1
sS'mirror'
p2234
I1
sS'joined'
p2235
I1
sS'large'
p2236
I3
sS'sand'
p2237
I1
sS'paper,'
p2238
I2
sS'along,'
p2239
I2
sS'small'
p2240
I19
sS'nor,'
p2241
I1
sS'spout'
p2242
I2
sS'headache'
p2243
I1
sS'educated,'
p2244
I1
sS'withheld'
p2245
I1
sS'ten'
p2246
I3
sS'streets'
p2247
I2
sS'track,'
p2248
I1
sS'past'
p2249
I6
sS'strung'
p2250
I1
sS'rate'
p2251
I1
sS'pass'
p2252
I9
sS'further'
p2253
I2
sS'mill'
p2254
I6
sS'necessary,'
p2255
I1
sS'what'
p2256
I62
sS'stood'
p2257
I16
sS'darkness'
p2258
I6
sS'sweetly'
p2259
I1
sS'cast'
p2260
I4
sS'sun'
p2261
I26
sS'imperceptible'
p2262
I1
sS'dirt'
p2263
I4
sS'doorless,'
p2264
I1
sS'lurch'
p2265
I1
sS'thickness'
p2266
I3
sS'him,'
p2267
I24
sS'fathoms'
p2268
I7
sS'learned'
p2269
I1
sS'racing'
p2270
I1
sS'guns'
p2271
I1
sS'everybody'
p2272
I2
sS'movement'
p2273
I1
sS'unlucky,'
p2274
I1
sS'condensed'
p2275
I1
sS'full'
p2276
I13
sS'escaping'
p2277
I1
sS'estate'
p2278
I1
sS'pas,'
p2279
I1
sS'excitement,'
p2280
I1
sS'loose'
p2281
I2
sS'title,'
p2282
I2
sS'leaping'
p2283
I2
sS'answers'
p2284
I2
sS'plunging,'
p2285
I1
sS'hours'
p2286
I9
sS'wild'
p2287
I3
sS'tracks'
p2288
I2
sS'cylindrical'
p2289
I1
sS'street,'
p2290
I3
sS'sardines'
p2291
I11
sS'hast'
p2292
I1
sS'outstretched,'
p2293
I1
sS'strong'
p2294
I15
sS'shops'
p2295
I1
sS'publisher'
p2296
I1
sS'gun,'
p2297
I2
sS'gun-'
p2298
I1
sS'ahead'
p2299
I12
sS'bowl,'
p2300
I1
sS'presented,'
p2301
I1
sS'experience'
p2302
I1
sS'rocky'
p2303
I1
sS'yourself,'
p2304
I1
sS'soldier'
p2305
I1
sS'amount'
p2306
I1
sS'pick'
p2307
I9
sS'chain'
p2308
I2
sS'narrow'
p2309
I1
sS'skids'
p2310
I1
sS'barbarous,'
p2311
I1
sS'benches,'
p2312
I1
sS'followed'
p2313
I3
sS'steal,'
p2314
I1
sS'suddenly'
p2315
I11
sS'chestnut-trees'
p2316
I1
sS'screens'
p2317
I1
sS'backed'
p2318
I2
sS'armoire'
p2319
I1
sS'aimed'
p2320
I3
sS'toys'
p2321
I1
sS'sealed'
p2322
I1
sS'pulls'
p2323
I1
sS'know,'
p2324
I8
sS'travel,'
p2325
I1
sS'armed'
p2326
I1
sS'guess,'
p2327
I1
sS'lady,'
p2328
I1
sS'earliest'
p2329
I1
sS'eye'
p2330
I3
sS'takes'
p2331
I2
sS'composure'
p2332
I1
sS'whinnied'
p2333
I1
sS'wiped'
p2334
I5
sS'faint'
p2335
I2
sS'two'
p2336
I74
sS'pearl'
p2337
I1
sS'unpleasant'
p2338
I1
sS'middle-aged,'
p2339
I1
sS'widens'
p2340
I1
sS'taken'
p2341
I14
sS'injury'
p2342
I1
sS'markets'
p2343
I1
sS'more'
p2344
I55
sS'horses'
p2345
I25
sS'flat'
p2346
I9
sS'ahead,'
p2347
I1
sS'door'
p2348
I16
sS'knows'
p2349
I9
sS'pull,'
p2350
I1
sS'staggering'
p2351
I1
sS'advice,'
p2352
I1
sS'spoils'
p2353
I1
sS'appraisingly'
p2354
I1
sS'possession'
p2355
I1
sS'flag'
p2356
I1
sS'galloping,'
p2357
I1
sS'stick'
p2358
I4
sS'broke'
p2359
I1
sS'known'
p2360
I9
sS'hurry'
p2361
I2
sS'producing'
p2362
I1
sS'glad'
p2363
I1
sS'straps'
p2364
I1
sS'rifle,'
p2365
I7
sS'respected'
p2366
I2
sS'none'
p2367
I3
sS'hour'
p2368
I12
sS'middle'
p2369
I1
sS'tight,'
p2370
I1
sS'sentry'
p2371
I2
sS'sweeps'
p2372
I1
sS'dew'
p2373
I3
sS'guards'
p2374
I2
sS'alive,'
p2375
I1
sS'ineffectual'
p2376
I1
sS'del'
p2377
I3
sS'waiters'
p2378
I1
sS'taut'
p2379
I3
sS'learn'
p2380
I1
sS'knocked'
p2381
I3
sS'nothing,'
p2382
I3
sS'thumped'
p2383
I1
sS'male'
p2384
I7
sS'pine-needled'
p2385
I1
sS'mala'
p2386
I3
sS'beautiful'
p2387
I16
sS'sad-looking,'
p2388
I1
sS'shark'
p2389
I5
sS'gas,'
p2390
I1
sS'gallop'
p2391
I5
sS'stacking'
p2392
I1
sS'spoor,'
p2393
I1
sS'share'
p2394
I1
sS'pushed'
p2395
I5
sS'broadbill'
p2396
I1
sS'imitation'
p2397
I1
sS'miserable,'
p2398
I1
sS'commanded'
p2399
I1
sS'sharp'
p2400
I1
sS'swung'
p2401
I5
sS'species'
p2402
I2
sS'string'
p2403
I2
sS'huge'
p2404
I5
sS'needs'
p2405
I1
sS'answer'
p2406
I2
sS'court'
p2407
I2
sS'gray,'
p2408
I1
sS'bank,'
p2409
I1
sS'rather'
p2410
I20
sS'breaking'
p2411
I2
sS'stayed'
p2412
I7
sS'loving'
p2413
I1
sS'eat,'
p2414
I1
sS'gaffed'
p2415
I1
sS'prejudice'
p2416
I1
sS'flares'
p2417
I2
sS'waved'
p2418
I3
sS'tried'
p2419
I7
sS'funny,'
p2420
I2
sS'number,'
p2421
I1
sS'soda'
p2422
I5
sS'rained,'
p2423
I1
sS'blood'
p2424
I4
sS'coming'
p2425
I17
sS'ethics'
p2426
I1
sS'courts,'
p2427
I1
sS'civilization,'
p2428
I1
sS'a'
I743
sS'trucks'
p2429
I4
sS'refuse'
p2430
I1
sS'short'
p2431
I6
sS'big-hippily,'
p2432
I1
sS'orchard'
p2433
I2
sS'crowded'
p2434
I2
sS'onto'
p2435
I12
sS'eats'
p2436
I1
sS'deserted'
p2437
I2
sS'though,'
p2438
I5
sS'shore'
p2439
I1
sS'manipulated'
p2440
I1
sS'responsibility'
p2441
I1
sS'shade'
p2442
I7
sS'banks'
p2443
I1
sS'pleasure'
p2444
I1
sS'gesturing,'
p2445
I1
sS'dream'
p2446
I2
sS'playing'
p2447
I3
sS"that's"
p2448
I6
sS'army,'
p2449
I1
sS'knots'
p2450
I1
sS'would,'
p2451
I1
sS'rounded'
p2452
I3
sS'help'
p2453
I15
sS'radios'
p2454
I1
sS"don't"
p2455
I79
sS'weakening'
p2456
I1
sS'melt,'
p2457
I1
sS"vaquero's"
p2458
I2
sS'soon'
p2459
I10
sS'trade'
p2460
I3
sS'held'
p2461
I16
sS'attitude'
p2462
I2
sS'gamble,'
p2463
I1
sS'through'
p2464
I68
sS'steady,'
p2465
I1
sS'signs'
p2466
I1
sS'hell'
p2467
I23
sS'smiling'
p2468
I2
sS'avenue'
p2469
I1
sS'its'
p2470
I18
sS'roots'
p2471
I1
sS'lashings'
p2472
I1
sS'member'
p2473
I1
sS'shock'
p2474
I1
sS'iron-stiff'
p2475
I1
sS'probability'
p2476
I1
sS'already,'
p2477
I2
sS'slopped'
p2478
I1
sS'noticing,'
p2479
I1
sS'course,'
p2480
I6
sS'actually'
p2481
I2
sS'late'
p2482
I6
sS'yellow,'
p2483
I1
sS'travelling'
p2484
I1
sS'cool'
p2485
I3
sS'might'
p2486
I17
sS"haven't"
p2487
I3
sS'colleague'
p2488
I2
sS'rapier'
p2489
I1
sS'it,'
p2490
I40
sS'good'
p2491
I70
sS'return'
p2492
I1
sS'thinking,'
p2493
I1
sS'unrolled'
p2494
I1
sS'food'
p2495
I9
sS'hunter'
p2496
I5
sS'noticing'
p2497
I1
sS'framework'
p2498
I1
sS'walls'
p2499
I2
sS"you've"
p2500
I4
sS'iridescent'
p2501
I1
sS'foot'
p2502
I6
sS'hunted'
p2503
I6
sS'detach'
p2504
I1
sS'shifty,'
p2505
I1
sS'complain'
p2506
I1
sS'bigger'
p2507
I2
sS'interests'
p2508
I2
sS'desperately'
p2509
I1
sS'hook'
p2510
I12
sS'always'
p2511
I29
sS"fine'"
p2512
I1
sS'all,'
p2513
I3
sS'boxing,'
p2514
I3
sS'moves,'
p2515
I1
sS'someone'
p2516
I1
sS'stopped'
p2517
I17
sS'turns'
p2518
I2
sS'roadsteads'
p2519
I1
sS'found'
p2520
I8
sS'intolerable'
p2521
I1
sS'marry'
p2522
I6
sS'watched,'
p2523
I2
sS'minutes,'
p2524
I1
sS'heavy'
p2525
I20
sS'movement,'
p2526
I2
sS'harm'
p2527
I2
sS'everyone'
p2528
I1
sS'begged'
p2529
I1
sS'upstairs'
p2530
I1
sS'weight'
p2531
I10
sS'needless'
p2532
I1
sS'house'
p2533
I6
sS'fish'
p2534
I78
sS'hard'
p2535
I10
sS'shells'
p2536
I2
sS'idea'
p2537
I6
sS'foxes'
p2538
I2
sS'almost-touching'
p2539
I1
sS'bull,'
p2540
I1
sS'half-garland'
p2541
I1
sS'extended'
p2542
I1
sS'handles'
p2543
I1
sS'loops'
p2544
I2
sS'late,'
p2545
I1
sS'operation'
p2546
I1
sS'beyond'
p2547
I7
sS'bandaged'
p2548
I1
sS'really'
p2549
I26
sS'taunted'
p2550
I1
sS'travels'
p2551
I2
sS'cups'
p2552
I3
sS'missed'
p2553
I4
sS'wondered'
p2554
I3
sS'rebound'
p2555
I2
sS'since'
p2556
I13
sS'projected'
p2557
I1
sS'pivoted'
p2558
I1
sS'misses'
p2559
I1
sS'safety'
p2560
I4
sS'hill'
p2561
I2
sS"they'll"
p2562
I1
sS'fit'
p2563
I1
sS'darling'
p2564
I4
sS'smock'
p2565
I2
sS'corporal'
p2566
I1
sS'nervously'
p2567
I1
sS'blue,'
p2568
I1
sS'risen'
p2569
I1
sS'drifting'
p2570
I1
sS'barges'
p2571
I1
sS'guess'
p2572
I5
sS'pub'
p2573
I1
sS'pleasant'
p2574
I8
sS'quick'
p2575
I2
sS'cross,'
p2576
I2
sS'base'
p2577
I1
sS'wealthy,'
p2578
I1
sS'put'
p2579
I41
sS'teach'
p2580
I1
sS'rises'
p2581
I1
sS'beginning'
p2582
I2
sS'plowing'
p2583
I1
sS'bushes'
p2584
I1
sS'bumped'
p2585
I1
sS'big-footed,'
p2586
I1
sS'thread'
p2587
I2
sS'overmatched'
p2588
I1
sS'platter'
p2589
I2
sS'liaison'
p2590
I1
sS'properly,'
p2591
I2
sS'divorce'
p2592
I3
sS'trickle'
p2593
I1
sS'fallen'
p2594
I1
sS'solidly'
p2595
I1
sS'feed'
p2596
I3
sS'seeming'
p2597
I3
sS'slipped'
p2598
I3
sS'blush'
p2599
I1
sS'feel'
p2600
I27
sS'girls'
p2601
I4
sS'churning'
p2602
I1
sS'number'
p2603
I3
sS'feet'
p2604
I9
sS'sun-faded'
p2605
I1
sS'brave'
p2606
I5
sS'done'
p2607
I12
sS'rails'
p2608
I1
sS'blank'
p2609
I1
sS'north-east'
p2610
I1
sS'miss'
p2611
I1
sS'white-faced'
p2612
I1
sS'harbours'
p2613
I1
sS'passes'
p2614
I1
sS'remember,'
p2615
I1
sS'heads'
p2616
I5
sS'suddenly,'
p2617
I3
sS'tackle,'
p2618
I1
sS'twenty'
p2619
I1
sS'shooting'
p2620
I4
sS'least'
p2621
I3
sS'foreign-office'
p2622
I1
sS'aim,'
p2623
I1
sS'wonderful'
p2624
I5
sS'storm'
p2625
I1
sS'master'
p2626
I1
sS'hundred'
p2627
I19
sS'suppose,'
p2628
I1
sS'eastward,'
p2629
I2
sS'temptations'
p2630
I1
sS'uplifted,'
p2631
I1
sS'muscles'
p2632
I3
sS'warmly'
p2633
I1
sS'saint'
p2634
I1
sS'behind'
p2635
I22
sS'relieved'
p2636
I1
sS'hotel'
p2637
I1
sS'park'
p2638
I1
sS'stiff-necked,'
p2639
I1
sS'part'
p2640
I10
sS'cartridges'
p2641
I3
sS'favorable'
p2642
I1
sS'rifle'
p2643
I8
sS'forward,'
p2644
I2
sS'printed'
p2645
I1
sS'believe'
p2646
I7
sS'stairs'
p2647
I3
sS'grace'
p2648
I1
sS'grimacing,'
p2649
I1
sS'kind'
p2650
I5
sS'tunic'
p2651
I2
sS"hell's"
p2652
I1
sS'fisherman,'
p2653
I1
sS'horizons'
p2654
I1
sS'gotten'
p2655
I3
sS'cardel'
p2656
I1
sS'hesitating'
p2657
I1
sS'tops,'
p2658
I1
sS'marriage'
p2659
I1
sS'supposed'
p2660
I5
sS'insulted'
p2661
I1
sS'fishermen'
p2662
I11
sS'swayingly'
p2663
I1
sS'taxis'
p2664
I2
sS'toward'
p2665
I27
sS'treated'
p2666
I1
sS'remembers'
p2667
I1
sS'hair,'
p2668
I5
sS'deciding'
p2669
I1
sS'livers'
p2670
I2
sS'service,'
p2671
I1
sS'peas'
p2672
I1
sS'alongside'
p2673
I2
sS'defect'
p2674
I1
sS'cooked,'
p2675
I1
sS'creases'
p2676
I1
sS'juice'
p2677
I1
sS'tanks,'
p2678
I1
sS'blond'
p2679
I3
sS'concentration'
p2680
I1
sS'kippers'
p2681
I1
sS'orders'
p2682
I3
sS'poules'
p2683
I1
sS'back-swept'
p2684
I1
sS'sell'
p2685
I1
sS'mountain'
p2686
I2
sS'colouring'
p2687
I1
sS'nights'
p2688
I3
sS'built'
p2689
I4
sS'dancing'
p2690
I5
sS'pajamas'
p2691
I1
sS'cave'
p2692
I12
sS'tired'
p2693
I4
sS'cropped'
p2694
I2
sS'lit'
p2695
I1
sS'also'
p2696
I4
sS'rowed'
p2697
I7
sS'without'
p2698
I19
sS'lip'
p2699
I1
sS'deserving'
p2700
I1
sS'banjo'
p2701
I1
sS'puffing'
p2702
I1
sS'understand,'
p2703
I2
sS'buff'
p2704
I4
sS'poule,'
p2705
I1
sS'play'
p2706
I4
sS'added'
p2707
I2
sS'critics'
p2708
I1
sS'electric'
p2709
I2
sS'correspondents,'
p2710
I1
sS'portrait-painter,'
p2711
I1
sS'eggs'
p2712
I1
sS'salmon'
p2713
I1
sS'loggerheads,'
p2714
I1
sS'depths'
p2715
I2
sS'most'
p2716
I12
sS'age,'
p2717
I2
sS'fight,'
p2718
I1
sS'plan'
p2719
I1
sS'eaten'
p2720
I2
sS'nothing'
p2721
I26
sS'extremely'
p2722
I3
sS'soared'
p2723
I1
sS'understands'
p2724
I1
sS'sturdy'
p2725
I1
sS'windows'
p2726
I3
sS'clear'
p2727
I4
sS'sometimes'
p2728
I8
sS'cover'
p2729
I4
sS"herdsman's"
p2730
I1
sS'clean'
p2731
I8
sS'day,'
p2732
I2
sS'weigh'
p2733
I2
sS'barrel'
p2734
I2
sS'justify'
p2735
I1
sS'night,'
p2736
I4
sS'lying'
p2737
I2
sS'stalked'
p2738
I1
sS'blushing,'
p2739
I1
sS'gold'
p2740
I1
sS'obligations'
p2741
I1
sS'swelling'
p2742
I1
sS'fins'
p2743
I1
sS'fond'
p2744
I1
sS'hillside'
p2745
I1
sS'tree,'
p2746
I2
sS'wounded'
p2747
I8
sS'mould'
p2748
I1
sS'carefully'
p2749
I7
sS'fine'
p2750
I21
sS'find'
p2751
I13
sS'occupation'
p2752
I1
sS'restaurant,'
p2753
I1
sS'with,'
p2754
I2
sS'giant'
p2755
I1
sS'flattery'
p2756
I1
sS'music'
p2757
I3
sS'nervous'
p2758
I2
sS'ruin'
p2759
I1
sS'hope'
p2760
I5
sS'rotten'
p2761
I3
sS'unhappy'
p2762
I1
sS'betray'
p2763
I1
sS'pretty'
p2764
I8
sS'hardened'
p2765
I2
sS'circle'
p2766
I2
sS'headman'
p2767
I1
sS'discuss'
p2768
I1
sS'peppery-tasting'
p2769
I1
sS'his'
p2770
I396
sS'hit'
p2771
I8
sS'sun-proofed'
p2772
I1
sS'heaviness,'
p2773
I1
sS'connections'
p2774
I1
sS'express'
p2775
I1
sS'sunny'
p2776
I1
sS'trees'
p2777
I19
sS'swing'
p2778
I1
sS'whistle'
p2779
I1
sS'courage'
p2780
I1
sS'longest'
p2781
I1
sS'pretending'
p2782
I1
sS'shared'
p2783
I2
sS'charmingly'
p2784
I1
sS'man-of-war'
p2785
I2
sS'explosions,'
p2786
I1
sS'him'
p2787
I288
sS'forty-five'
p2788
I1
sS'whisky,'
p2789
I1
sS'enemy'
p2790
I2
sS'birds,'
p2791
I1
sS'motorcycles'
p2792
I1
sS'photostated'
p2793
I1
sS'odor'
p2794
I2
sS'cry'
p2795
I2
sS'packs,'
p2796
I1
sS'safety,'
p2797
I1
sS'dismounted'
p2798
I2
sS'clocks'
p2799
I2
sS'double'
p2800
I5
sS'river'
p2801
I6
sS'wrote'
p2802
I3
sS'rumored'
p2803
I1
sS'enclosure'
p2804
I1
sS'scenery'
p2805
I1
sS'delicately'
p2806
I1
sS'set'
p2807
I12
sS'art'
p2808
I5
sS'throwing'
p2809
I2
sS'air,'
p2810
I1
sS'prairie-like'
p2811
I1
sS'sex'
p2812
I1
sS'touch'
p2813
I7
sS'see'
p2814
I87
sS'bare'
p2815
I1
sS'are'
p2816
I115
sS'snow-capped'
p2817
I1
sS'close'
p2818
I16
sS'arm'
p2819
I10
sS'breast'
p2820
I3
sS'chose'
p2821
I1
sS'knees'
p2822
I7
sS'revolution'
p2823
I1
sS'pictures'
p2824
I2
sS'hungry,'
p2825
I1
sS'worth-while'
p2826
I1
sS'please'
p2827
I13
sS'slapped'
p2828
I2
sS'won'
p2829
I2
sS'myriad'
p2830
I1
sS'probably'
p2831
I6
sS'burned'
p2832
I1
sS'champagne'
p2833
I1
sS'disliked'
p2834
I1
sS'law'
p2835
I1
sS'meal'
p2836
I3
sS'knowing'
p2837
I1
sS'sparsely'
p2838
I1
sS'engaged'
p2839
I1
sS'buoys'
p2840
I1
sS'sold'
p2841
I1
sS'sole'
p2842
I1
sS'outfit'
p2843
I1
sS'wreath'
p2844
I1
sS'spray'
p2845
I1
sS'disturbance'
p2846
I1
sS'coffee'
p2847
I13
sS'bar,'
p2848
I4
sS'floats'
p2849
I1
sS'hoisted'
p2850
I2
sS'hot,'
p2851
I1
sS'folding'
p2852
I1
sS'restaurant'
p2853
I4
sS'thou'
p2854
I11
sS'envelope,'
p2855
I1
sS"wouldn't"
p2856
I13
sS'patronne'
p2857
I3
sS'gaunt'
p2858
I1
sS'beaches,'
p2859
I1
sS'became'
p2860
I6
sS'wrappers'
p2861
I1
sS'forgotten'
p2862
I3
sS'occurrences,'
p2863
I1
sS'whole'
p2864
I10
sS'oars'
p2865
I7
sS'flies'
p2866
I2
sS'knew,'
p2867
I1
sS'town,'
p2868
I1
sS'point'
p2869
I4
sS'simple'
p2870
I9
sS'sweet'
p2871
I3
sS'acted'
p2872
I2
sS'address'
p2873
I1
sS'harbour'
p2874
I3
sS'hollow'
p2875
I3
sS"hadn't"
p2876
I7
sS'simply'
p2877
I5
sS'likes'
p2878
I4
sS'village'
p2879
I1
sS'pack,'
p2880
I3
sS'fun,'
p2881
I1
sS'bench'
p2882
I1
sS'mission'
p2883
I1
sS'goats'
p2884
I1
sS'expensive'
p2885
I4
sS'belt'
p2886
I3
sS'there,'
p2887
I7
sS'worthless'
p2888
I1
sS'roaring'
p2889
I3
sS'described'
p2890
I1
sS'raise'
p2891
I2
sS'chick'
p2892
I1
sS'fifteen'
p2893
I2
sS'damp'
p2894
I2
sS'exert'
p2895
I1
sS'either,'
p2896
I2
sS'dug'
p2897
I1
sS'ran'
p2898
I10
sS'crawling,'
p2899
I1
sS'dropping'
p2900
I3
sS'damn'
p2901
I7
sS'loaded,'
p2902
I1
sS'peppers'
p2903
I1
sS'woke'
p2904
I6
sS'quality,'
p2905
I1
sS'firm'
p2906
I1
sS'lived'
p2907
I3
sS'flight'
p2908
I1
sS'champion'
p2909
I2
sS'gay'
p2910
I5
sS'buck'
p2911
I2
sS'fire'
p2912
I7
sS'crisp,'
p2913
I1
sS'like,'
p2914
I2
sS'wet'
p2915
I6
sS'precision'
p2916
I1
sS'mine'
p2917
I7
sS'accommodate'
p2918
I1
sS'whatever'
p2919
I2
sS'bight'
p2920
I1
sS'lives'
p2921
I3
sS'liver'
p2922
I1
sS'reproach,'
p2923
I1
sS'wedding'
p2924
I1
sS'livery'
p2925
I1
sS'sweating,'
p2926
I1
sS'unnecessarily'
p2927
I1
sS'new-leaved'
p2928
I1
sS'handling'
p2929
I2
sS'utmost'
p2930
I1
sS'look'
p2931
I28
sS'talking'
p2932
I18
sS'solid'
p2933
I6
sS'straight'
p2934
I13
sS'bill'
p2935
I1
sS'rope'
p2936
I8
sS'pace'
p2937
I1
sS'while'
p2938
I27
sS'replaced'
p2939
I1
sS'chic,'
p2940
I1
sS'dam,'
p2941
I1
sS'leaning'
p2942
I7
sS'fun'
p2943
I4
sS'unwounded'
p2944
I1
sS'coiled,'
p2945
I1
sS'loop'
p2946
I2
sS'pack'
p2947
I13
sS'real'
p2948
I2
sS'shoddy'
p2949
I1
sS'backing'
p2950
I2
sS'wherever'
p2951
I1
sS'does,'
p2952
I1
sS'bullfighters'
p2953
I1
sS'swishing'
p2954
I1
sS'itself'
p2955
I2
sS'rocks,'
p2956
I2
sS'loosened'
p2957
I1
sS'ready'
p2958
I9
sS'rid'
p2959
I2
sS'clucked'
p2960
I1
sS'funny'
p2961
I10
sS'deprive'
p2962
I1
sS'away,'
p2963
I8
sS'shirt'
p2964
I7
sS'welts'
p2965
I1
sS'clear,'
p2966
I1
sS'windows,'
p2967
I1
sS'touched'
p2968
I4
sS'problems'
p2969
I1
sS'sun-streaked'
p2970
I1
sS'grunt,'
p2971
I1
sS'rules'
p2972
I1
sS'delicious'
p2973
I1
sS'cruelty'
p2974
I1
sS'grand'
p2975
I1
sS'sadness,'
p2976
I1
sS'graces'
p2977
I1
sS"money's"
p2978
I1
sS'tableswere'
p2979
I1
sS'higher'
p2980
I3
sS'current,'
p2981
I2
sS'used'
p2982
I8
sS'affairs'
p2983
I1
sS'restraint'
p2984
I1
sS'town'
p2985
I9
sS'yesterday'
p2986
I1
sS'flows'
p2987
I1
sS'stooped'
p2988
I1
sS'moment'
p2989
I6
sS'constructions'
p2990
I1
sS'moving'
p2991
I15
sS'purpose'
p2992
I1
sS'timid'
p2993
I2
sS'tobacco'
p2994
I2
sS'climbed,'
p2995
I1
sS'early'
p2996
I12
sS'lower'
p2997
I3
sS'motionless'
p2998
I1
sS'congregated'
p2999
I1
sS'older'
p3000
I3
sS'people,'
p3001
I1
sS'anxious'
p3002
I1
sS'cheek'
p3003
I1
sS'anybody'
p3004
I5
sS'grunts'
p3005
I1
sS'shootable'
p3006
I1
sS'person'
p3007
I1
sS'yet,'
p3008
I1
sS'edge'
p3009
I16
sS'stirrups,'
p3010
I1
sS'thoroughly'
p3011
I2
sS'riffle'
p3012
I1
sS'alpargatas,'
p3013
I1
sS'grievance'
p3014
I1
sS'done,'
p3015
I2
sS'listening'
p3016
I1
sS'lottery'
p3017
I1
sS'drunk,'
p3018
I3
sS'shivering'
p3019
I4
sS'moment,'
p3020
I1
sS'guano'
p3021
I2
sS'matter,'
p3022
I1
sS'quarters'
p3023
I1
sS'shape'
p3024
I3
sS'eaten,'
p3025
I1
sS'circling'
p3026
I6
sS'questions'
p3027
I4
sS'world'
p3028
I5
sS'insolent'
p3029
I1
sS'stiffened'
p3030
I2
sS'land,'
p3031
I1
sS'injuries'
p3032
I1
sS'based'
p3033
I1
sS'letting'
p3034
I1
sS'tables'
p3035
I5
sS'cut'
p3036
I19
sS'throaty'
p3037
I1
sS'cuffs'
p3038
I1
sS'cup'
p3039
I13
sS'fiancee'
p3040
I1
sS'hated'
p3041
I2
sS'myself,'
p3042
I1
sS'kissed'
p3043
I3
sS'grim'
p3044
I1
sS'parents'
p3045
I1
sS'dare'
p3046
I1
sS'crying'
p3047
I1
sS'excited'
p3048
I1
sS'hates'
p3049
I1
sS'amusing'
p3050
I1
sS'thee,'
p3051
I2
sS'mujer'
p3052
I5
sS'big'
p3053
I43
sS'showing'
p3054
I2
sS'saluted'
p3055
I1
sS'tiring'
p3056
I2
sS'suffering'
p3057
I2
sS'eland,'
p3058
I1
sS'judgment,'
p3059
I1
sS'indelibly'
p3060
I1
sS'salutes'
p3061
I1
sS'wings'
p3062
I4
sS'formal'
p3063
I1
sS'painted'
p3064
I1
sS'hate,'
p3065
I1
sS'marvelous'
p3066
I1
sS'sizes'
p3067
I1
sS'slowly,'
p3068
I1
sS'marlin'
p3069
I4
sS'continue'
p3070
I1
sS'indication'
p3071
I1
sS'gloom'
p3072
I1
sS'jolted'
p3073
I1
sS'bamboo'
p3074
I1
sS'table,'
p3075
I3
sS'canst'
p3076
I1
sS'often'
p3077
I3
sS'brakes'
p3078
I1
sS'absolutely'
p3079
I3
sS'spring'
p3080
I1
sS'some'
p3081
I40
sS'back'
p3082
I86
sS'scared,'
p3083
I1
sS'doubtfully'
p3084
I1
sS'lips'
p3085
I6
sS'palm'
p3086
I3
sS'jump,'
p3087
I2
sS'sight'
p3088
I8
sS'saddles'
p3089
I4
sS'ourselves'
p3090
I1
sS'saucer'
p3091
I5
sS'pronounced'
p3092
I1
sS'women,'
p3093
I2
sS'member,'
p3094
I1
sS'affects'
p3095
I1
sS'avoiding'
p3096
I1
sS'behave'
p3097
I1
sS'galloped'
p3098
I3
sS'good,'
p3099
I5
sS'nose'
p3100
I6
sS'jumpy'
p3101
I2
sS'artillery,'
p3102
I1
sS'years,'
p3103
I4
sS'run'
p3104
I5
sS'remembered'
p3105
I6
sS'reach'
p3106
I1
sS'jumps'
p3107
I1
sS'bread,'
p3108
I2
sS'shuddering,'
p3109
I1
sS'use'
p3110
I5
sS'stem'
p3111
I1
sS'step'
p3112
I2
sS'cheered'
p3113
I1
sS'entendu,'
p3114
I1
sS'father,'
p3115
I2
sS'flanks'
p3116
I1
sS'from'
p3117
I128
sS'medium-sized'
p3118
I1
sS'by'
p3119
I62
sS'handled'
p3120
I1
sS'hairless,'
p3121
I1
sS'faith'
p3122
I2
sS'deducted'
p3123
I1
sS'anything'
p3124
I27
sS'cigarette'
p3125
I2
sS'prove'
p3126
I3
sS'straightened'
p3127
I1
sS'wrinkles'
p3128
I3
sS'frightful'
p3129
I2
sS'piled'
p3130
I2
sS'range'
p3131
I2
sS'hired'
p3132
I1
sS'beans'
p3133
I1
sS'priceless,'
p3134
I1
sS'un-stepped'
p3135
I1
sS'hatred'
p3136
I3
sS'fluttering'
p3137
I1
sS'block'
p3138
I1
sS'seeing'
p3139
I4
sS'fish,'
p3140
I7
sS'enduring'
p3141
I1
sS'hears'
p3142
I1
sS'top-boots,'
p3143
I1
sS'into'
p3144
I78
sS'within'
p3145
I2
sS'nonsense'
p3146
I1
sS'boy,'
p3147
I5
sS'assistant'
p3148
I1
sS'proverb'
p3149
I1
sS'govern,'
p3150
I1
sS'drifted'
p3151
I2
sS'rolls'
p3152
I1
sS'tall,'
p3153
I3
sS'behaving'
p3154
I1
sS'impressed'
p3155
I1
sS'watercress'
p3156
I1
sS'story'
p3157
I2
sS'tasting'
p3158
I2
sS'apparently'
p3159
I1
sS'manque'
p3160
I1
sS'fast'
p3161
I15
sS'custom'
p3162
I1
sS'laughed,'
p3163
I2
sS"we're"
p3164
I2
sS'fox-hole'
p3165
I1
sS'forward'
p3166
I15
sS'bored'
p3167
I4
sS'sections'
p3168
I1
sS'spat'
p3169
I1
sS'stare'
p3170
I2
sS'mountains'
p3171
I15
sS'himself'
p3172
I37
sS'inches'
p3173
I1
sS'mustache,'
p3174
I1
sS'approvingly'
p3175
I1
sS'registered'
p3176
I1
sS'memory'
p3177
I1
sS'singer'
p3178
I1
sS'hoped'
p3179
I5
sS'boys'
p3180
I5
sS'properly'
p3181
I1
sS'link'
p3182
I1
sS'authority'
p3183
I1
sS'line'
p3184
I52
sS'dull'
p3185
I3
sS'raising'
p3186
I2
sS'open,'
p3187
I1
sS'early-morning'
p3188
I1
sS'upswept'
p3189
I1
sS'stumbling'
p3190
I1
sS'simpering'
p3191
I1
sS'up'
p3192
I145
sS'us'
p3193
I37
sS'un'
p3194
I1
sS'cautiously'
p3195
I1
sS'ands'
p3196
I2
sS'faded'
p3197
I2
sS'fried'
p3198
I1
sS'millhouse,'
p3199
I1
sS'called'
p3200
I23
sS'yelled'
p3201
I1
sS'handful,'
p3202
I1
sS'side,'
p3203
I3
sS'trade,'
p3204
I1
sS'ordered'
p3205
I3
sS'hill,'
p3206
I1
sS'gimlet,'
p3207
I1
sS'singly'
p3208
I1
sS'merry'
p3209
I1
sS'single'
p3210
I1
sS'cure'
p3211
I1
sS'curb'
p3212
I1
sS'beginning,'
p3213
I2
sS'curl'
p3214
I1
sS'cafe'
p3215
I5
sS'everybody,'
p3216
I1
sS'smile,'
p3217
I1
sS'steeper'
p3218
I1
sS'sullen'
p3219
I1
sS'lemon'
p3220
I1
sS'tentative'
p3221
I1
sS'weight,'
p3222
I1
sS'backs'
p3223
I4
sS'occasional'
p3224
I1
sS'suicide,'
p3225
I1
sS'tracks,'
p3226
I1
sS'smiling,'
p3227
I2
sS'statement'
p3228
I2
sS'ugly,'
p3229
I1
sS'swirl'
p3230
I1
sS'read,'
p3231
I1
sS'excellent,'
p3232
I3
sS'hell,'
p3233
I2
sS'nice'
p3234
I18
sS'happens'
p3235
I5
sS'accidental'
p3236
I1
sS'eighty-fifth'
p3237
I1
sS'backbone'
p3238
I1
sS'fights,'
p3239
I1
sS'breasts'
p3240
I1
sS'fished'
p3241
I3
sS'drag'
p3242
I1
sS'rested'
p3243
I8
sS'smiled'
p3244
I24
sS'breathed'
p3245
I1
sS'gimlets'
p3246
I1
sS'sides'
p3247
I4
sS'ago'
p3248
I4
sS'land'
p3249
I8
sS'tossing,'
p3250
I1
sS'sore'
p3251
I3
sS'age'
p3252
I4
sS'strolled'
p3253
I1
sS'holes'
p3254
I2
sS'walked'
p3255
I23
sS'amused'
p3256
I1
sS'cooked'
p3257
I1
sS'depth'
p3258
I1
sS'train'
p3259
I15
sS'fitted'
p3260
I1
sS'broad'
p3261
I1
sS'wildly,'
p3262
I1
sS'fresh'
p3263
I7
sS'buffalo'
p3264
I7
sS'having'
p3265
I6
sS'once'
p3266
I13
sS'smoked,'
p3267
I1
sS'happy,'
p3268
I2
sS'ashamed'
p3269
I1
sS'advisory'
p3270
I1
sS'hands,'
p3271
I6
sS'hooks'
p3272
I1
sS'sun-burned,'
p3273
I1
sS'sake,'
p3274
I2
sS'cheerful'
p3275
I2
sS'grinning'
p3276
I2
sS'helped'
p3277
I1
sS'gloomy,'
p3278
I1
sS'grinding'
p3279
I1
sS'during'
p3280
I2
sS'go'
p3281
I96
sS'long-bodied'
p3282
I1
sS'muzzle,'
p3283
I2
sS'seemed'
p3284
I14
sS'compact'
p3285
I1
sS'cozily'
p3286
I1
sS'grinned'
p3287
I5
sS'pounded,'
p3288
I1
sS'angles,'
p3289
I1
sS'concerned'
p3290
I1
sS'shauri'
p3291
I2
sS'young'
p3292
I20
sS'send'
p3293
I5
sS'deal,'
p3294
I1
sS'literary'
p3295
I2
sS'shack'
p3296
I7
sS'clean,'
p3297
I1
sS'chaps'
p3298
I2
sS'blaze'
p3299
I1
sS'masculine'
p3300
I1
sS'women'
p3301
I8
sS'friendly'
p3302
I3
sS'sent'
p3303
I6
sS'oakum'
p3304
I1
sS'breathing'
p3305
I2
sS'wished'
p3306
I3
sS'murderous'
p3307
I1
sS'albacores,'
p3308
I1
sS'unscrewed'
p3309
I1
sS'rope-soled'
p3310
I3
sS'agua'
p3311
I1
sS'screwed'
p3312
I1
sS'wavy'
p3313
I3
sS'putting'
p3314
I7
sS'hook,'
p3315
I1
sS'coagulated'
p3316
I1
sS'more,'
p3317
I6
sS'drinking'
p3318
I4
sS'continued'
p3319
I1
sS'nausea'
p3320
I1
sS'entire'
p3321
I1
sS'exits'
p3322
I1
sS'stiff'
p3323
I3
sS'help,'
p3324
I1
sS'quietly,'
p3325
I1
sS'try'
p3326
I12
sS'trout,'
p3327
I1
sS"week's"
p3328
I1
sS'dealt'
p3329
I1
sS'carawong'
p3330
I2
sS'crew-cropped'
p3331
I1
sS'teeth,'
p3332
I1
sS'noted'
p3333
I2
sS"tuna's"
p3334
I1
sS'hardening'
p3335
I1
sS'safe,'
p3336
I1
sS"you'd"
p3337
I2
sS'collapsing,'
p3338
I1
sS'other,'
p3339
I2
sS'rim-rock'
p3340
I2
sS'object,'
p3341
I2
sS'grooved'
p3342
I1
sS'boots'
p3343
I2
sS'waking'
p3344
I1
sS'jump'
p3345
I4
sS'fold'
p3346
I2
sS'blowing'
p3347
I4
sS'picked'
p3348
I9
sS'earth'
p3349
I4
sS'odd'
p3350
I1
sS'that,'
p3351
I20
sS'furled,'
p3352
I1
sS'set,'
p3353
I1
sS'knees,'
p3354
I1
sS'whunk'
p3355
I2
sS'racket,'
p3356
I1
sS'giving'
p3357
I2
sS'colonel'
p3358
I1
sS'fat'
p3359
I1
sS'expressed'
p3360
I1
sS"man's"
p3361
I13
sS'below'
p3362
I8
sS'waiting'
p3363
I8
sS'shade,'
p3364
I3
sS'fishermen,'
p3365
I2
sS'flowing'
p3366
I1
sS'ammunition'
p3367
I1
sS'bird'
p3368
I17
sS'body'
p3369
I3
sS'led'
p3370
I1
sS'thirty-five'
p3371
I2
sS'gathered'
p3372
I1
sS'pushing'
p3373
I3
sS'answered,'
p3374
I1
sS'river,'
p3375
I2
sS'freshening'
p3376
I1
sS'scythe'
p3377
I1
sS'velocity'
p3378
I1
sS'let'
p3379
I21
sS'hard-braided'
p3380
I1
sS'others'
p3381
I6
sS'consideration'
p3382
I1
sS'lovely,'
p3383
I1
sS'imperfections'
p3384
I1
sS'remembered,'
p3385
I1
sS'great'
p3386
I45
sS'stalks'
p3387
I1
sS'broken'
p3388
I3
sS'receive'
p3389
I1
sS'poured'
p3390
I2
sS'larger'
p3391
I2
sS'shades'
p3392
I1
sS'leaving'
p3393
I4
sS'engine'
p3394
I2
sS'painter'
p3395
I1
sS"weren't"
p3396
I1
sS'sword'
p3397
I1
sS'defeat'
p3398
I1
sS'added,'
p3399
I1
sS'climb'
p3400
I5
sS'shaded'
p3401
I1
sS'makes'
p3402
I8
sS'horse-cabs'
p3403
I1
sS'plates,'
p3404
I1
sS'lid,'
p3405
I1
sS'pressed'
p3406
I2
sS"d'oeuvres"
p3407
I3
sS'shoved'
p3408
I1
sS'armour-plating,'
p3409
I1
sS'reload,'
p3410
I1
sS'down-stairs'
p3411
I4
sS'scornfully'
p3412
I1
sS'names'
p3413
I2
sS'motor'
p3414
I7
sS'duck'
p3415
I1
sS'oval'
p3416
I1
sS'gun-bearer'
p3417
I5
sS'cloud'
p3418
I4
sS'lime'
p3419
I2
sS'standing'
p3420
I13
sS'confidence'
p3421
I2
sS'leg-drawn-up'
p3422
I1
sS'drop,'
p3423
I1
sS'thirsty'
p3424
I2
sS'bush'
p3425
I2
sS'next'
p3426
I10
sS'eleven'
p3427
I2
sS'doubt'
p3428
I1
sS'by,'
p3429
I2
sS'bitterly'
p3430
I1
sS'themselves'
p3431
I3
sS'noisy'
p3432
I1
sS'cheeks'
p3433
I1
sS'sort'
p3434
I13
sS'charcoal'
p3435
I1
sS'compatriot'
p3436
I1
sS'hard,'
p3437
I1
sS'ordering,'
p3438
I1
sS'biblical'
p3439
I1
sS'started'
p3440
I30
sS'name,'
p3441
I4
sS'name-'
p3442
I1
sS'stone'
p3443
I2
sS'sir,'
p3444
I1
sS'two-decker'
p3445
I1
sS'trail'
p3446
I3
sS'hornrimmed'
p3447
I1
sS'carrying'
p3448
I11
sS'sharply'
p3449
I2
sS'announce'
p3450
I1
sS'arranging'
p3451
I1
sS'acts,'
p3452
I1
sS'departure'
p3453
I1
sS'whisky'
p3454
I2
sS'annoy'
p3455
I1
sS'paused'
p3456
I1
sS'crosses'
p3457
I1
sS'animals'
p3458
I1
sS'undisturbed,'
p3459
I1
sS'this'
p3460
I85
sS'ride'
p3461
I2
sS'clients'
p3462
I1
sS'noteangry'
p3463
I1
sS'bare-footed'
p3464
I1
sS'anywhere'
p3465
I1
sS'crossed'
p3466
I5
sS'thin'
p3467
I4
sS'meet'
p3468
I2
sS'drops'
p3469
I2
sS'something'
p3470
I32
sS'slid'
p3471
I2
sS'bent'
p3472
I2
sS'tar'
p3473
I1
sS'fit,'
p3474
I1
sS'far,'
p3475
I1
sS'infantry'
p3476
I1
sS'rode'
p3477
I1
sS'pieces'
p3478
I2
sS'high'
p3479
I14
sS'slacks,'
p3480
I1
sS'pulling'
p3481
I5
sS'water,'
p3482
I4
sS'slip'
p3483
I2
sS'bones'
p3484
I2
sS'stories'
p3485
I1
sS'voice'
p3486
I5
sS'onions'
p3487
I2
sS'contempt'
p3488
I2
sS'native'
p3489
I3
sS'sir'
p3490
I1
sS'carawonging'
p3491
I1
sS'beggar,'
p3492
I1
sS'sit'
p3493
I7
sS'ribs'
p3494
I1
sS'realize,'
p3495
I3
sS'six'
p3496
I5
sS'lamp'
p3497
I2
sS'line,'
p3498
I3
sS'forest'
p3499
I5
sS'animal'
p3500
I1
sS'grudgingly'
p3501
I1
sS'panic'
p3502
I3
sS'speech,'
p3503
I1
sS'blackness'
p3504
I2
sS'tension'
p3505
I2
sS'arc-light'
p3506
I1
sS'softly,'
p3507
I2
sS'fianc\xe9e'
p3508
I1
sS'bone,'
p3509
I1
sS'stop'
p3510
I10
sS'partizan'
p3511
I1
sS'tied'
p3512
I3
sS'guide-book'
p3513
I1
sS'corral,'
p3514
I3
sS'lines,'
p3515
I2
sS'forks,'
p3516
I1
sS'superrhino'
p3517
I1
sS'moving,'
p3518
I1
sS'realized'
p3519
I5
sS'purely'
p3520
I1
sS'gone,'
p3521
I3
sS'brioche'
p3522
I1
sS'light'
p3523
I26
sS'noises'
p3524
I1
sS'lines'
p3525
I22
sS'bodega,'
p3526
I1
sS'arrived'
p3527
I1
sS'crawling'
p3528
I2
sS'furious'
p3529
I2
sS'stakes'
p3530
I1
sS'bins'
p3531
I1
sS'preparing'
p3532
I1
sS'bloom'
p3533
I1
sS'boxing'
p3534
I4
sS'thigh'
p3535
I1
sS'hand,'
p3536
I2
sS'move'
p3537
I9
sS'produced'
p3538
I1
sS"won't"
p3539
I8
sS'looks'
p3540
I3
sS'horns'
p3541
I3
sS'thyself'
p3542
I1
sS'horny'
p3543
I1
sS'tables,'
p3544
I1
sS"wife's"
p3545
I1
sS'perfect'
p3546
I3
sS'hand-holds'
p3547
I1
sS'revived'
p3548
I1
sS'du'
p3549
I1
sS'heavily,'
p3550
I1
sS'la'
p3551
I4
sS'chosen'
p3552
I1
sS'permanent'
p3553
I1
sS'orange'
p3554
I1
sS'covered'
p3555
I6
sS'stopped,'
p3556
I1
sS'happened,'
p3557
I1
sS'eastward'
p3558
I1
sS'violating'
p3559
I1
sS'junction'
p3560
I2
sS'greater'
p3561
I1
sS'flour'
p3562
I1
sS'hills,'
p3563
I1
sS'material'
p3564
I2
sS'catches'
p3565
I3
sS'ship'
p3566
I1
sS'pins'
p3567
I1
sS'cutting'
p3568
I2
sS'rice,'
p3569
I1
sS'sandpaper'
p3570
I1
sS'hands'
p3571
I17
sS'front'
p3572
I14
sS'highly'
p3573
I1
sS'kindness'
p3574
I1
sS'day'
p3575
I26
sS'gas-light'
p3576
I1
sS'speaks'
p3577
I1
sS'ones,'
p3578
I1
sS'countries'
p3579
I1
sS'slipping'
p3580
I1
sS'trap'
p3581
I4
sS'princesses'
p3582
I1
sS'crossing'
p3583
I2
sS'promise'
p3584
I2
sS'ca-ra-wong'
p3585
I1
sS'gorge-'
p3586
I1
sS'shaking'
p3587
I3
sS'bridge,'
p3588
I3
sS'glasses'
p3589
I8
sS'faces,'
p3590
I1
sS'ankles'
p3591
I1
sS'thwart'
p3592
I2
sS'female'
p3593
I4
sS'hunting,'
p3594
I1
sS'doing'
p3595
I8
sS'adventure'
p3596
I1
sS'gun-bearer,'
p3597
I2
sS'winked'
p3598
I2
sS'unbelievable'
p3599
I4
sS'related'
p3600
I1
sS'produced,'
p3601
I1
sS'harlot'
p3602
I1
sS'society'
p3603
I2
sS'furiously'
p3604
I1
sS'remarkably'
p3605
I1
sS'wine,'
p3606
I1
sS'our'
p3607
I5
sS'sandy'
p3608
I1
sS'out'
p3609
I135
sS'bag'
p3610
I1
sS'worried,'
p3611
I1
sS'time,'
p3612
I4
sS'strokes'
p3613
I1
sS'white,'
p3614
I1
sS'flattening'
p3615
I1
sS'broadside,'
p3616
I1
sS'cause'
p3617
I1
sS'blasting'
p3618
I2
sS'red'
p3619
I13
sS"one's"
p3620
I1
sS'afford'
p3621
I1
sS'fly,'
p3622
I1
sS'shut'
p3623
I6
sS'approached'
p3624
I1
sS'infinity,'
p3625
I1
sS'circular'
p3626
I1
sS'spot'
p3627
I2
sS'beaded'
p3628
I1
sS'inferiority'
p3629
I1
sS'promptly'
p3630
I2
sS'completely'
p3631
I2
sS'surely'
p3632
I1
sS'thrust'
p3633
I1
sS'anyhow'
p3634
I1
sS'disgusted'
p3635
I3
sS'steering'
p3636
I1
sS'comrade'
p3637
I1
sS'yard'
p3638
I2
sS'flat,'
p3639
I2
sS'things,'
p3640
I1
sS'automatic'
p3641
I2
sS'could'
p3642
I100
sS'scars'
p3643
I3
sS'ask'
p3644
I15
sS'times'
p3645
I12
sS'length'
p3646
I2
sS'leather,'
p3647
I1
sS'meals'
p3648
I2
sS'unrolling'
p3649
I1
sS'south'
p3650
I1
sS'diseases'
p3651
I1
sS'scalding'
p3652
I1
sS'speaking,'
p3653
I2
sS'sickness,'
p3654
I1
sS'braced'
p3655
I1
sS'fleshed'
p3656
I1
sS'powerful'
p3657
I1
sS'scene'
p3658
I1
sS'sack'
p3659
I4
sS'brute'
p3660
I1
sS'embarrassed'
p3661
I1
sS'mirror,'
p3662
I1
sS'determination'
p3663
I1
sS'owner'
p3664
I1
sS'reached'
p3665
I9
sS'scent'
p3666
I1
sS'reliable'
p3667
I1
sS'have,'
p3668
I4
sS"doesn't"
p3669
I12
sS'two,'
p3670
I1
sS'hawk'
p3671
I1
sS'sadly'
p3672
I1
sS'tendon-'
p3673
I1
sS'be,'
p3674
I1
sS'filthy'
p3675
I1
sS'desk'
p3676
I2
sS'miniature-painter'
p3677
I1
sS'seat'
p3678
I6
sS'grow'
p3679
I2
sS'their'
p3680
I59
sS'attack'
p3681
I13
sS'siad'
p3682
I1
sS'lifting'
p3683
I3
sS'intelligence'
p3684
I1
sS'wrapped'
p3685
I3
sS'rippled'
p3686
I1
sS'travelled'
p3687
I1
sS'perfectly'
p3688
I8
sS'tourists'
p3689
I2
sS'painful'
p3690
I2
sS'beard'
p3691
I1
sS'flume'
p3692
I1
sS'hitting,'
p3693
I1
sS'till'
p3694
I1
sS'pointed,'
p3695
I1
sS'stomach'
p3696
I4
sS'gear'
p3697
I5
sS'lazily'
p3698
I1
sS'shelf'
p3699
I2
sS'exactly'
p3700
I5
sS'lists'
p3701
I1
sS'unslung'
p3702
I1
sS'crosswise'
p3703
I1
sS'place,'
p3704
I3
sS'deeply'
p3705
I1
sS'policeman'
p3706
I2
sS'herself'
p3707
I2
sS'humanity'
p3708
I1
sS'vague'
p3709
I1
sS'neck'
p3710
I7
sS'steel'
p3711
I1
sS'loved'
p3712
I8
sS'photograph'
p3713
I1
sS'waves'
p3714
I1
sS'counteract'
p3715
I1
sS'split'
p3716
I1
sS'beg'
p3717
I1
sS'bed'
p3718
I19
sS'tortured'
p3719
I1
sS'dressing-gown'
p3720
I1
sS'calamity'
p3721
I1
sS'decided'
p3722
I2
sS'spurt'
p3723
I1
sS'steep'
p3724
I7
sS'distinguished'
p3725
I1
sS'bet'
p3726
I1
sS'drunk'
p3727
I8
sS'fins,'
p3728
I1
sS'sea'
p3729
I13
sS'lightly'
p3730
I3
sS'erosions'
p3731
I1
sS'gently'
p3732
I7
sS'curves'
p3733
I1
sS'comfortable'
p3734
I5
sS'tonight'
p3735
I1
sS'gentle'
p3736
I2
sS'sorrel'
p3737
I1
sS'sidewalk'
p3738
I2
sS'have'
p3739
I210
sS'big-game'
p3740
I1
sS'need'
p3741
I7
sS'curved'
p3742
I2
sS'trembling'
p3743
I3
sS'demonstration'
p3744
I1
sS'clearly'
p3745
I5
sS'illuminated'
p3746
I1
sS'purple,'
p3747
I1
sS'plank,'
p3748
I1
sS'afraid'
p3749
I9
sS'angle'
p3750
I1
sS'tent,'
p3751
I4
sS'studying'
p3752
I1
sS'agency'
p3753
I1
sS'able'
p3754
I5
sS'pectoral'
p3755
I1
sS'amusing,'
p3756
I1
sS'teetered'
p3757
I1
sS'which'
p3758
I21
sS'truck'
p3759
I2
sS'stop-and-go'
p3760
I1
sS'soap'
p3761
I1
sS'blades'
p3762
I1
sS'scalds'
p3763
I1
sS'patchy'
p3764
I1
sS'unless'
p3765
I2
sS"patronne's"
p3766
I2
sS'who'
p3767
I57
sS'business,'
p3768
I3
sS'hugeness'
p3769
I1
sS'masts'
p3770
I1
sS'connected'
p3771
I1
sS'but'
p3772
I75
sS'cracking'
p3773
I1
sS'prisoner'
p3774
I1
sS'vultures'
p3775
I1
sS'splendid,'
p3776
I1
sS'her,'
p3777
I11
sS'why'
p3778
I12
sS'fair'
p3779
I1
sS'corral'
p3780
I3
sS'saddest'
p3781
I1
sS'chu-chu-chu-chu-chu-chu'
p3782
I1
sS'stronget'
p3783
I1
sS'upset'
p3784
I2
sS'face'
p3785
I28
sS'looked'
p3786
I105
sS'face,'
p3787
I7
sS"you'll"
p3788
I5
sS'furnish'
p3789
I1
sS'birching'
p3790
I1
sS'just-cool'
p3791
I1
sS'eyepieces'
p3792
I1
sS'painting'
p3793
I1
sS'planks'
p3794
I1
sS'saying,'
p3795
I1
sS'drunken'
p3796
I1
sS'game,'
p3797
I1
sS'chap,'
p3798
I1
sS'word,'
p3799
I1
sS'agreed'
p3800
I4
sS'horse-cab'
p3801
I1
sS'one,'
p3802
I8
sS'anyway'
p3803
I7
sS'bring'
p3804
I15
sS'waked'
p3805
I1
sS'luck,'
p3806
I1
sS'utter'
p3807
I1
sS'rough'
p3808
I1
sS'realized,'
p3809
I1
sS'slow,'
p3810
I1
sS'pleased'
p3811
I2
sS'principal'
p3812
I1
sS'openings'
p3813
I1
sS'editing'
p3814
I1
sS'grabbed'
p3815
I1
sS'knowledge'
p3816
I1
sS'comfort'
p3817
I1
sS'lighted,'
p3818
I1
sS'jaw'
p3819
I2
sS'rash'
p3820
I1
sS'gelatinous'
p3821
I1
sS'terminal'
p3822
I1
sS'brighter'
p3823
I1
sS'unable'
p3824
I1
sS'attained'
p3825
I2
sS'riding'
p3826
I3
sS'fumbled'
p3827
I1
sS'handsome'
p3828
I4
sS'local'
p3829
I2
sS'colt'
p3830
I1
sS'inferior'
p3831
I1
sS'discovers'
p3832
I1
sS'meant'
p3833
I7
sS'extent'
p3834
I1
sS'shaky'
p3835
I1
sS'handle'
p3836
I2
sS'listened'
p3837
I3
sS'means'
p3838
I2
sS'beat'
p3839
I3
sS'bays,'
p3840
I2
sS'lucky'
p3841
I5
sS'tunas,'
p3842
I1
sS'fronds'
p3843
I1
sS'ones'
p3844
I10
sS'words'
p3845
I1
sS"name's"
p3846
I1
sS'bead'
p3847
I4
sS'dancing-floor'
p3848
I3
sS'steepness'
p3849
I1
sS'romantic'
p3850
I2
sS'gray'
p3851
I7
sS'had,'
p3852
I3
sS'talking,'
p3853
I1
sS'ended'
p3854
I2
sS'shy'
p3855
I1
sS'married'
p3856
I5
sS'anything,'
p3857
I5
sS'stuff'
p3858
I5
sS'she'
p3859
I157
sS'dangerous'
p3860
I1
sS'tightening'
p3861
I1
sS'rapped'
p3862
I1
sS'predatory'
p3863
I1
sS'old-timer,'
p3864
I1
sS'spotted'
p3865
I1
sS'fibered'
p3866
I1
sS'shake'
p3867
I1
sS'lazy'
p3868
I1
sS'reinforcements'
p3869
I2
sS'buffalo,'
p3870
I2
sS'desperate'
p3871
I1
sS'once,'
p3872
I1
sS'end,'
p3873
I1
sS'packed'
p3874
I1
sS'ground,'
p3875
I2
sS'coils'
p3876
I11
sS'wire'
p3877
I3
sS'mirrors,'
p3878
I1
sS'insulting'
p3879
I1
sS"brother's"
p3880
I1
sS'typewriter'
p3881
I1
sS'clearing'
p3882
I4
sS'stream,'
p3883
I2
sS'thumb'
p3884
I4
sS'bullets,'
p3885
I2
sS'hesaid'
p3886
I1
sS'state'
p3887
I1
sS'closed'
p3888
I5
sS'progress'
p3889
I1
sS'neither'
p3890
I4
sS'pistol'
p3891
I1
sS'wide-topped'
p3892
I1
sS'bought'
p3893
I3
sS'dreading'
p3894
I1
sS'ends'
p3895
I2
sS'various'
p3896
I1
sS'speeding-by'
p3897
I1
sS'easy,'
p3898
I1
sS'opening'
p3899
I6
sS'importance'
p3900
I5
sS'gym'
p3901
I1
sS'interfere'
p3902
I1
sS'ineffectually'
p3903
I1
sS'job'
p3904
I2
sS'spoil'
p3905
I2
sS'occurs,'
p3906
I1
sS'taken,'
p3907
I1
sS'staring'
p3908
I2
sS'hits'
p3909
I1
sS'piece'
p3910
I2
sS'drum'
p3911
I1
sS'joke'
p3912
I7
sS'taking'
p3913
I7
sS'accordion'
p3914
I3
sS'equal'
p3915
I1
sS'boulders'
p3916
I2
sS'twitching'
p3917
I1
sS'doorway'
p3918
I3
sS'grain'
p3919
I4
sS'urging'
p3920
I1
sS'unbuckled'
p3921
I1
sS'plankton'
p3922
I3
sS'swallow'
p3923
I2
sS'jersey'
p3924
I2
sS'wear'
p3925
I1
sS'adjusted'
p3926
I1
sS'seriously-'
p3927
I1
sS'forty-fathom'
p3928
I3
sS'wall'
p3929
I6
sS'shoving'
p3930
I1
sS'head,'
p3931
I3
sS'teasing'
p3932
I1
sS'practical,'
p3933
I1
sS'walk'
p3934
I10
sS'injustice,'
p3935
I1
sS'recognized'
p3936
I1
sS'harpoon'
p3937
I5
sS'together,'
p3938
I3
sS'table'
p3939
I31
sS'narrowed'
p3940
I1
sS'turtle-ing'
p3941
I2
sS'shoulder,'
p3942
I1
sS'unhappiness'
p3943
I1
sS'quit'
p3944
I1
sS'maybe,'
p3945
I1
sS'addition'
p3946
I1
sS"it's"
p3947
I18
sS'muddy'
p3948
I1
sS'card'
p3949
I1
sS'thanked'
p3950
I1
sS'window'
p3951
I1
sS'sipped'
p3952
I2
sS'choice,'
p3953
I2
sS'exhausted'
p3954
I1
sS'drank'
p3955
I12
sS'slowly'
p3956
I10
sS'roller'
p3957
I1
sS'hawking'
p3958
I1
sS'semaphore'
p3959
I1
sS"lady's"
p3960
I1
sS'curtain'
p3961
I5
sS'belly,'
p3962
I2
sS'beads,'
p3963
I1
sS'phosphorescent'
p3964
I1
sS'home,'
p3965
I1
sS"is,'"
p3966
I1
sS'suggested'
p3967
I1
sS'shoulders'
p3968
I14
sS'fifty-franc'
p3969
I1
sS'both'
p3970
I14
sS'shaped,'
p3971
I1
sS'moved'
p3972
I17
sS'bulk'
p3973
I1
sS'finished'
p3974
I3
sS'deep'
p3975
I10
sS'harpoon,'
p3976
I1
sS'last'
p3977
I13
sS'diplomat,'
p3978
I1
sS'good-by'
p3979
I1
sS'half-mocking'
p3980
I1
sS'sort,'
p3981
I1
sS'novel'
p3982
I3
sS'couple'
p3983
I1
sS'unlike'
p3984
I1
sS'gimlet'
p3985
I1
sS'harder'
p3986
I2
sS'examine'
p3987
I1
sS'value'
p3988
I1
sS'coward,'
p3989
I1
sS'will'
p3990
I99
sS'door,'
p3991
I1
sS'cocher'
p3992
I1
sS'hunter,'
p3993
I1
sS'fault'
p3994
I4
sS'rigged'
p3995
I1
sS'balance'
p3996
I3
sS'outside,'
p3997
I1
sS'province,'
p3998
I1
sS'photographs,'
p3999
I1
sS'climbing,'
p4000
I1
sS'almost'
p4001
I23
sS'brown,'
p4002
I1
sS'squid'
p4003
I1
sS'unintelligent'
p4004
I1
sS'surface'
p4005
I8
sS'jelly'
p4006
I1
sS'weighed'
p4007
I3
sS'examined'
p4008
I1
sS'demanded'
p4009
I1
sS'swinging'
p4010
I3
sS'sheath'
p4011
I1
sS'novel,'
p4012
I2
sS'crash'
p4013
I3
sS'afterthought,'
p4014
I1
sS'whore'
p4015
I1
sS'trotting'
p4016
I1
sS'absinthe'
p4017
I2
sS'will,'
p4018
I1
sS'perhaps'
p4019
I10
sS'began'
p4020
I5
sS'cross'
p4021
I3
sS'romance'
p4022
I1
sS'apricots'
p4023
I1
sS'strange'
p4024
I14
sS'slammed'
p4025
I1
sS'dam'
p4026
I1
sS'inch'
p4027
I1
sS'party'
p4028
I2
sS'terrorism'
p4029
I1
sS'gets'
p4030
I5
sS'tapped'
p4031
I2
sS'difficult'
p4032
I8
sS'ball'
p4033
I1
sS'faded,'
p4034
I1
sS'dusk'
p4035
I2
sS'reread'
p4036
I1
sS'drink'
p4037
I29
sS'effect'
p4038
I1
sS'beast'
p4039
I1
sS'emphasized'
p4040
I1
sS'flew'
p4041
I1
sS'dust'
p4042
I3
sS'frequently'
p4043
I1
sS'judgment'
p4044
I3
sS'collar'
p4045
I1
sS'identity'
p4046
I1
sS'pleasantly'
p4047
I1
sS'off'
p4048
I45
sS'reflection'
p4049
I1
sS'colour'
p4050
I2
sS'well'
p4051
I38
sS'banging'
p4052
I1
sS'thought'
p4053
I69
sS'command'
p4054
I2
sS'sets'
p4055
I2
sS'position'
p4056
I2
sS'watchchain'
p4057
I1
sS'drawing'
p4058
I2
sS'sword,'
p4059
I1
sS'any,'
p4060
I1
sS'cried'
p4061
I1
sS'flesh'
p4062
I2
sS'going,'
p4063
I4
sS'domestic'
p4064
I1
sS'liked'
p4065
I10
sS'dose'
p4066
I1
sS'cheer'
p4067
I1
sS'stored'
p4068
I2
sS'books'
p4069
I1
sS'fishing'
p4070
I3
sS'hauled'
p4071
I1
sS'tone'
p4072
I1
sS'lately'
p4073
I1
sS'liqueurs,'
p4074
I1
sS'danced'
p4075
I4
sS'circularizing'
p4076
I1
sS'rapid'
p4077
I1
sS'field'
p4078
I4
sS'poisonings'
p4079
I1
sS'shoes,'
p4080
I1
sS'supply'
p4081
I1
sS'sky'
p4082
I2
sS'barefooted'
p4083
I1
sS'realize'
p4084
I6
sS'add'
p4085
I2
sS'book'
p4086
I7
sS'attractive'
p4087
I4
sS'tawny'
p4088
I2
sS'chair,'
p4089
I1
sS'flaccid'
p4090
I1
sS'ought'
p4091
I4
sS'increased'
p4092
I4
sS'came,'
p4093
I2
sS'seat,'
p4094
I2
sS'room,'
p4095
I1
sS"who's"
p4096
I1
sS'clock,'
p4097
I2
sS'crushed'
p4098
I2
sS'haul'
p4099
I1
sS'shouted'
p4100
I1
sS'five'
p4101
I18
sS'know'
p4102
I100
sS'knot'
p4103
I1
sS'ledge'
p4104
I4
sS'gypsies'
p4105
I3
sS'bullets'
p4106
I2
sS'loss'
p4107
I1
sS'rounds,'
p4108
I1
sS'necessary'
p4109
I3
sS'like'
p4110
I116
sS'lost'
p4111
I6
sS'contempt,'
p4112
I1
sS'bulge'
p4113
I1
sS'crawled'
p4114
I1
sS'stagger'
p4115
I1
sS'lose'
p4116
I4
sS'nerves'
p4117
I2
sS'sick,'
p4118
I1
sS'soft'
p4119
I1
sS'page'
p4120
I1
sS'boxer'
p4121
I1
sS'simple,'
p4122
I2
sS'shed'
p4123
I1
sS'because'
p4124
I25
sS'glare'
p4125
I2
sS'smoothly'
p4126
I3
sS'searching'
p4127
I1
sS'alive'
p4128
I3
sS'hair'
p4129
I9
sS'knows,'
p4130
I2
sS'daylight'
p4131
I6
sS'growth'
p4132
I1
sS'loaded'
p4133
I1
sS'proper'
p4134
I2
sS'home'
p4135
I11
sS'hissing'
p4136
I2
sS'before,'
p4137
I3
sS'bananas,'
p4138
I1
sS"turtle's"
p4139
I1
sS'lead'
p4140
I1
sS'literally'
p4141
I1
sS'avoid'
p4142
I1
sS'slide'
p4143
I1
sS'shone'
p4144
I3
sS'does'
p4145
I14
sS'ripped'
p4146
I2
sS'nodding'
p4147
I1
sS'board,'
p4148
I2
sS'leader'
p4149
I3
sS'trout'
p4150
I1
sS'thinly'
p4151
I1
sS'noise'
p4152
I7
sS'obey'
p4153
I1
sS'proud'
p4154
I2
sS'slight'
p4155
I3
sS'she,'
p4156
I1
sS'oiled'
p4157
I1
sS'slant'
p4158
I2
sS'paper'
p4159
I8
sS'pressure'
p4160
I3
sS'although'
p4161
I6
sS'calling'
p4162
I1
sS'snapped'
p4163
I1
sS'imaginary'
p4164
I1
sS'clientele,'
p4165
I1
sS'coldly'
p4166
I2
sS'fresh,'
p4167
I1
sS'hiding'
p4168
I1
sS'gained'
p4169
I1
sS'about'
p4170
I119
sS'rare'
p4171
I10
sS'carried'
p4172
I15
sS'getting'
p4173
I15
sS'himself,'
p4174
I5
sS'sinister'
p4175
I2
sS'urged'
p4176
I1
sS'surge'
p4177
I1
sS'carries'
p4178
I1
sS'rabbit'
p4179
I3
sS'bulls,'
p4180
I1
sS'sweat'
p4181
I3
sS'oarsman,'
p4182
I1
sS'sensibly,'
p4183
I1
sS'introduced'
p4184
I3
sS'swimming'
p4185
I2
sS'individually'
p4186
I1
sS'own'
p4187
I11
sS'letters'
p4188
I5
sS'kiosque'
p4189
I1
sS'perspiring'
p4190
I1
sS'elephants,'
p4191
I2
sS'immune'
p4192
I1
sS'guard'
p4193
I4
sS'weather'
p4194
I4
sS'times,'
p4195
I1
sS'tiny'
p4196
I1
sS'long-winged'
p4197
I1
sS'artists'
p4198
I1
sS'aloud,'
p4199
I3
sS'bothers'
p4200
I1
sS'rabbit,'
p4201
I1
sS'adolescent'
p4202
I1
sS'whom'
p4203
I3
sS"sod's"
p4204
I1
sS'vegetables'
p4205
I1
sS'tents'
p4206
I1
sS'proprietor'
p4207
I3
sS'noticed'
p4208
I4
sS'spread'
p4209
I8
sS'much'
p4210
I45
sS'mist,'
p4211
I1
sS'inner'
p4212
I2
sS'biggest'
p4213
I1
sS'dynamite'
p4214
I4
sS'breeding'
p4215
I1
sS'laddybuck,'
p4216
I1
sS'specimens'
p4217
I1
sS'love-making,'
p4218
I1
sS'naturally'
p4219
I1
sS'buy'
p4220
I4
sS'north'
p4221
I2
sS'shank'
p4222
I2
sS'road,'
p4223
I2
sS'bus'
p4224
I2
sS'commands'
p4225
I1
sS'overlapping'
p4226
I1
sS'gait'
p4227
I1
sS'shyness'
p4228
I1
sS'lowered'
p4229
I6
sS'plague'
p4230
I1
sS'fast,'
p4231
I1
sS'children,'
p4232
I1
sS'plenty,'
p4233
I1
sS'eat'
p4234
I31
sS'skinful'
p4235
I1
sS'he'
p4236
I667
sS'count'
p4237
I10
sS'made'
p4238
I71
sS'wise'
p4239
I1
sS'places'
p4240
I2
sS'whether'
p4241
I6
sS'wish'
p4242
I20
sS'smooth'
p4243
I2
sS'this,'
p4244
I4
sS'signed'
p4245
I1
sS'budshields'
p4246
I1
sS'excitement'
p4247
I2
sS'record'
p4248
I1
sS'cruel'
p4249
I6
sS'projecting'
p4250
I3
sS'division'
p4251
I1
sS'empty'
p4252
I3
sS'problem'
p4253
I2
sS'eyes,'
p4254
I4
sS'minutes'
p4255
I6
sS'stirring'
p4256
I1
sS'dolphin,'
p4257
I1
sS'friend,'
p4258
I2
sS'rabbits'
p4259
I1
sS'pin'
p4260
I1
sS'whisper'
p4261
I1
sS'recounts'
p4262
I1
sS'bottles,'
p4263
I1
sS'arms,'
p4264
I2
sS'black-tufted'
p4265
I1
sS'education'
p4266
I1
sS'trailing'
p4267
I2
sS'girl'
p4268
I53
sS'redder'
p4269
I1
sS'cavalry'
p4270
I2
sS'diplomat'
p4271
I1
sS'deadly'
p4272
I1
sS'fired,'
p4273
I1
sS'packs'
p4274
I8
sS'oak'
p4275
I1
sS'bull-fight'
p4276
I1
sS'willing'
p4277
I3
sS'gloomily'
p4278
I2
sS'other'
p4279
I52
sS'guarantee'
p4280
I4
sS'details'
p4281
I2
sS'sick'
p4282
I10
sS'rare,'
p4283
I1
sS'granite'
p4284
I2
sS'jamming'
p4285
I1
sS'depths,'
p4286
I1
sS'star'
p4287
I1
sS'again,'
p4288
I11
sS'flaked'
p4289
I1
sS'class'
p4290
I1
sS'straight-moving'
p4291
I1
sS'shown'
p4292
I1
sS'stay'
p4293
I15
sS'in,'
p4294
I8
sS'upset,'
p4295
I1
sS'chance'
p4296
I7
sS'accomplish'
p4297
I1
sS'galloping'
p4298
I1
sS'else'
p4299
I9
sS'friends'
p4300
I4
sS'cheekbones,'
p4301
I1
sS'grunted'
p4302
I1
sS'cliff'
p4303
I1
sS'coat'
p4304
I2
sS'heard,'
p4305
I1
sS'coffee,'
p4306
I1
sS'starting'
p4307
I3
sS'lasted'
p4308
I1
sS'rule'
p4309
I1
sS'forest,'
p4310
I1
sS'write'
p4311
I1
sS'pupil'
p4312
I1
sS'right,'
p4313
I5
sS'corking'
p4314
I1
sS'understand'
p4315
I10
sS'uplift,'
p4316
I1
sS'baked'
p4317
I3
sS'gardens'
p4318
I1
sS'news,'
p4319
I1
s.