(dp1
S'raining'
p2
I1
sS'considered.'
p3
I1
sS'yellow'
p4
I1
sS'Heights'
p5
I1
sS'four'
p6
I7
sS'protested,'
p7
I1
sS'Does'
p8
I1
sS'Dartmouth,'
p9
I1
sS'hanging'
p10
I1
sS"Alice\x97you're"
p11
I1
sS'unpleasantness.'
p12
I1
sS'increase'
p13
I1
sS'basic:'
p14
I1
sS'her\x85'
p15
I1
sS'wheeled'
p16
I2
sS'voice.I'
p17
I1
sS'immature'
p18
I3
sS'innocence,'
p19
I1
sS'"Kind'
p20
I1
sS'moonlight,'
p21
I1
sS'Boise,'
p22
I1
sS'hibernating'
p23
I1
sS'screaming'
p24
I2
sS"That's,"
p25
I1
sS'prize'
p26
I1
sS'wooden'
p27
I1
sS'heaps.'
p28
I1
sS'stars.'
p29
I1
sS'persisted'
p30
I1
sS'everything."'
p31
I1
sS'Desperate'
p32
I1
sS'seven.'
p33
I1
sS'glass\x85'
p34
I1
sS'spoken,'
p35
I1
sS'specially'
p36
I1
sS'her,'
p37
I7
sS'ate.'
p38
I1
sS'pulse'
p39
I3
sS'Wanderer,'
p40
I1
sS'second'
p41
I6
sS'her?'
p42
I1
sS'admitted.'
p43
I3
sS'admitted,'
p44
I2
sS'scraped'
p45
I1
sS'snuggled'
p46
I1
sS'quite'
p47
I12
sS'essays,'
p48
I1
sS"no\x97that's"
p49
I1
sS'thunder'
p50
I1
sS'cooking'
p51
I2
sS'fingers'
p52
I8
sS'Until'
p53
I2
sS'gawking.'
p54
I1
sS'designing'
p55
I1
sS'College'
p56
I1
sS'afternoon\x97all'
p57
I1
sS'crouch'
p58
I2
sS'glass?'
p59
I1
sS'sunbeams'
p60
I1
sS'interrupting'
p61
I1
sS'here'
p62
I16
sS'reported'
p63
I2
sS'glass.'
p64
I1
sS'shock.'
p65
I1
sS'kids'
p66
I5
sS'talk."'
p67
I1
sS'climbed'
p68
I3
sS'finger.'
p69
I2
sS'reedy,'
p70
I1
sS'finger,'
p71
I1
sS'Free.'
p72
I1
sS'golden'
p73
I11
sS'positions.'
p74
I1
sS'conciliatory.'
p75
I1
sS'Biology.'
p76
I1
sS'explained'
p77
I4
sS'Three'
p78
I1
sS'replace'
p79
I4
sS'brought'
p80
I7
sS'anywhere.'
p81
I1
sS'"The'
p82
I17
sS'menace,'
p83
I1
sS'scarier'
p84
I1
sS'slivers'
p85
I1
sS'spoke'
p86
I8
sS'concept.'
p87
I1
sS'decimated\x97to'
p88
I1
sS'music'
p89
I5
sS'"Sadly,'
p90
I1
sS'until'
p91
I18
sS'higher,'
p92
I1
sS'dry,'
p93
I1
sS'dry.'
p94
I1
sS'relax'
p95
I3
sS'Okay.'
p96
I1
sS'hurt'
p97
I4
sS'glass'
p98
I13
sS'"Yes!"'
p99
I1
sS'works."'
p100
I1
sS'hole'
p101
I1
sS'hold'
p102
I4
sS'unpack'
p103
I1
sS'brows,'
p104
I1
sS'locked'
p105
I6
sS'her\x97'
p106
I1
sS'blade'
p107
I1
sS'plunged'
p108
I1
sS'laughter;'
p109
I1
sS'locker'
p110
I2
sS'practicalities'
p111
I1
sS'long!"'
p112
I1
sS'type.'
p113
I1
sS'La'
p114
I4
sS'overextend'
p115
I1
sS'hope,'
p116
I2
sS'that."'
p117
I3
sS'want'
p118
I43
sS'ha!"'
p119
I1
sS'statistics,'
p120
I1
sS'absolute'
p121
I2
sS'around.'
p122
I1
sS'around,'
p123
I2
sS'groaned'
p124
I2
sS'Attention'
p125
I2
sS'machine'
p126
I1
sS'how'
p127
I33
sS'hot'
p128
I4
sS'A'
I37
sS'beauty'
p129
I3
sS'erratic,'
p130
I1
sS'Charlie.'
p131
I9
sS'Charlie,'
p132
I8
sS'Pop-Tarts'
p133
I1
sS'wrong'
p134
I6
sS'twined'
p135
I1
sS'pondered,'
p136
I1
sS'ice-cold,'
p137
I1
sS'grew.'
p138
I1
sS'calves'
p139
I1
sS'psychology.'
p140
I1
sS'fictional'
p141
I1
sS'Eric'
p142
I2
sS'wink'
p143
I1
sS'specks'
p144
I1
sS'Another'
p145
I2
sS'"To'
p146
I1
sS'normal.'
p147
I2
sS'wind'
p148
I6
sS'Even'
p149
I7
sS'school.'
p150
I5
sS'school,'
p151
I4
sS'dreamed'
p152
I1
sS'school;'
p153
I1
sS'fingers.'
p154
I1
sS'hair."'
p155
I1
sS'school?'
p156
I1
sS'affect'
p157
I1
sS'"Give'
p158
I3
sS'His'
p159
I42
sS'fit'
p160
I6
sS'uncoordinated'
p161
I1
sS'fix'
p162
I2
sS'stared.'
p163
I1
sS'Mom."'
p164
I2
sS'hidden'
p165
I3
sS'closed,'
p166
I1
sS'ready,'
p167
I2
sS'ready.'
p168
I2
sS'Seth'
p169
I4
sS'giggled.'
p170
I3
sS'truck,"'
p171
I2
sS'silver'
p172
I10
sS'careful,'
p173
I1
sS'"Definitely'
p174
I1
sS'days,"'
p175
I1
sS'dizzy.'
p176
I2
sS'icy,'
p177
I1
sS'blushed'
p178
I2
sS'intended,'
p179
I1
sS'ended,'
p180
I1
sS'bowls'
p181
I2
sS'parasites'
p182
I1
sS"'Tell"
p183
I1
sS"we'd"
p184
I5
sS'borne'
p185
I1
sS'speed,'
p186
I1
sS'actually,"'
p187
I1
sS'adapt'
p188
I1
sS'assured'
p189
I3
sS'bowl.'
p190
I2
sS'born.'
p191
I1
sS'faculties'
p192
I1
sS'born,'
p193
I3
sS'sheet'
p194
I1
sS'estimate'
p195
I1
sS'ate'
p196
I1
sS'exposing'
p197
I3
sS'"They\'ve'
p198
I1
sS'Italy,'
p199
I1
sS'centers,'
p200
I1
sS'perhaps.'
p201
I1
sS'commented'
p202
I1
sS'disturbed'
p203
I1
sS'Charlie,"'
p204
I4
sS'front.'
p205
I1
sS'speeds'
p206
I2
sS'what?"'
p207
I3
sS'hooks.'
p208
I1
sS'wash'
p209
I2
sS'spinning'
p210
I2
sS'worries,'
p211
I1
sS'fissure.'
p212
I1
sS'shampoo.'
p213
I1
sS'anywhere\x97know,'
p214
I1
sS'needed'
p215
I7
sS'easy!'
p216
I1
sS'master'
p217
I1
sS'listed'
p218
I1
sS'soundly.'
p219
I1
sS'affairs\x97this'
p220
I1
sS'legs'
p221
I2
sS'sure,'
p222
I2
sS'easy.'
p223
I4
sS'rummaged'
p224
I2
sS'listen'
p225
I2
sS'was;'
p226
I1
sS'was,'
p227
I5
sS'was.'
p228
I6
sS'Please."'
p229
I1
sS'look!"'
p230
I1
sS'idea."'
p231
I1
sS'coward'
p232
I1
sS'idly'
p233
I4
sS'shower'
p234
I1
sS'endure'
p235
I2
sS'feeling'
p236
I10
sS'old,'
p237
I3
sS'old.'
p238
I2
sS'well?'
p239
I1
sS'really."'
p240
I1
sS'well;'
p241
I1
sS'Chicago'
p242
I2
sS"Didn't"
p243
I3
sS'Volturi'
p244
I5
sS'heads.'
p245
I1
sS'Angela'
p246
I3
sS'antagonistic'
p247
I1
sS'well,'
p248
I8
sS'well.'
p249
I2
sS'control?"'
p250
I1
sS'guessed.'
p251
I2
sS'affairs'
p252
I2
sS'chin.'
p253
I1
sS'concrete'
p254
I1
sS'responsible'
p255
I1
sS'haste'
p256
I1
sS'eagerly'
p257
I2
sS'metallic'
p258
I1
sS'causing'
p259
I1
sS'They'
p260
I27
sS'yours!"'
p261
I2
sS'better\x85'
p262
I1
sS"men's"
p263
I1
sS'long?'
p264
I2
sS'shall'
p265
I1
sS'thrilled'
p266
I2
sS'object'
p267
I1
sS'mouth'
p268
I11
sS'Mom."She'
p269
I1
sS'pursed,'
p270
I1
sS'long,'
p271
I3
sS'"Thanks."'
p272
I5
sS'difficulties.'
p273
I1
sS'nodded,'
p274
I1
sS'grip.'
p275
I1
sS'door,'
p276
I11
sS'door.'
p277
I22
sS'arguing\x97I'
p278
I1
sS'update?"'
p279
I1
sS'scream'
p280
I1
sS'came'
p281
I23
sS'saying'
p282
I4
sS'too."'
p283
I7
sS'damaged.'
p284
I1
sS'padded'
p285
I1
sS'terror,'
p286
I1
sS'right\x97in'
p287
I1
sS'"Dr.'
p288
I2
sS'Paradise'
p289
I1
sS'tempted'
p290
I1
sS'sector."'
p291
I1
sS'Cullens,'
p292
I3
sS'sweats'
p293
I1
sS'touches'
p294
I1
sS'closer.'
p295
I2
sS'lights?"'
p296
I1
sS'exultation.'
p297
I1
sS"Cullens'"
p298
I4
sS'green:'
p299
I1
sS'theme'
p300
I1
sS'touched'
p301
I7
sS'rich'
p302
I1
sS'green,'
p303
I1
sS'"Easy'
p304
I1
sS'listened,'
p305
I1
sS'pocket'
p306
I3
sS'meeting,'
p307
I1
sS'lies,'
p308
I1
sS'altogether'
p309
I1
sS'cousin?'
p310
I1
sS'them?'
p311
I1
sS'ever'
p312
I19
sS'them;'
p313
I4
sS'them:'
p314
I1
sS'eyelids'
p315
I1
sS'cousin.'
p316
I2
sS'eventually'
p317
I1
sS'release'
p318
I1
sS'them.'
p319
I22
sS'them,'
p320
I12
sS'respond'
p321
I2
sS'effectiveness.'
p322
I1
sS'fair'
p323
I3
sS'clarified'
p324
I1
sS'flaxen'
p325
I1
sS'radius'
p326
I1
sS'.is'
p327
I1
sS'best'
p328
I11
sS'warm."'
p329
I1
sS'onto'
p330
I3
sS'lots'
p331
I2
sS'stupidity\x97and'
p332
I2
sS'men'
p333
I1
sS'pardoned,'
p334
I1
sS'gasps,'
p335
I1
sS'nature'
p336
I1
sS'rolled'
p337
I5
sS'smelled'
p338
I4
sS'souvenir'
p339
I1
sS'self-congratulatory'
p340
I1
sS'Montagues'
p341
I1
sS'Here,'
p342
I1
sS'tendons'
p343
I1
sS'point."'
p344
I1
sS'described.'
p345
I1
sS'demanded'
p346
I1
sS'drove,'
p347
I1
sS'ring.'
p348
I2
sS'"It\'ll'
p349
I1
sS'ring,'
p350
I1
sS'lot.'
p351
I4
sS'lot,'
p352
I1
sS'"Something'
p353
I2
sS'argue'
p354
I1
sS'adapted'
p355
I1
sS'asked'
p356
I22
sS'doubt,'
p357
I1
sS'Sigh.'
p358
I1
sS'doubt.'
p359
I1
sS'money.'
p360
I1
sS'money,'
p361
I1
sS'tonight."'
p362
I1
sS'Aro'
p363
I3
sS'"Wow,'
p364
I1
sS'skirt.'
p365
I2
sS'angel'
p366
I1
sS'.'
I23
sS'apples.'
p367
I1
sS'much'
p368
I52
sS'quantifiable.'
p369
I1
sS'life'
p370
I10
sS'beach.'
p371
I1
sS'spit'
p372
I1
sS'bit."'
p373
I1
sS'needed.'
p374
I3
sS'needed,'
p375
I2
sS'wish'
p376
I6
sS'places'
p377
I1
sS'blond,'
p378
I1
sS'child'
p379
I2
sS'soon\x97to'
p380
I1
sS'worked'
p381
I8
sS'spin'
p382
I3
sS'chill'
p383
I1
sS'Flower,'
p384
I1
sS'angry.'
p385
I2
sS'contemplated'
p386
I2
sS'angry,'
p387
I3
sS'tried.'
p388
I1
sS'tried,'
p389
I1
sS'professionally'
p390
I1
sS'remembering'
p391
I4
sS'On'
p392
I5
sS'trees.'
p393
I2
sS'trees,'
p394
I1
sS'stiff,'
p395
I1
sS'crowed.'
p396
I1
sS'top.'
p397
I3
sS'eighteen'
p398
I3
sS'south,'
p399
I1
sS'said,'
p400
I21
sS'said.'
p401
I27
sS'pressed.'
p402
I1
sS'damaged'
p403
I3
sS'excited\x85'
p404
I1
sS'ignored'
p405
I2
sS'credit'
p406
I3
sS'things'
p407
I28
sS'harmony'
p408
I1
sS'passed.'
p409
I1
sS'passed,'
p410
I3
sS'fairly'
p411
I3
sS'effortlessly'
p412
I1
sS'Maybe'
p413
I10
sS'middle-aged'
p414
I2
sS'us.But,'
p415
I1
sS'Angeles'
p416
I1
sS'Weaker'
p417
I1
sS'thing?'
p418
I1
sS'damage.'
p419
I1
sS'echoed'
p420
I1
sS'thing.'
p421
I3
sS'thing,'
p422
I3
sS"subject's"
p423
I1
sS'Audi'
p424
I1
sS'opinions'
p425
I1
sS'bush.'
p426
I1
sS'bush,'
p427
I1
sS'sleepy'
p428
I1
sS'bit'
p429
I7
sS'useless.'
p430
I1
sS'"Emmett\'s'
p431
I1
sS'thinking'
p432
I5
sS'ease'
p433
I5
sS'step,'
p434
I1
sS'had'
p435
I242
sS'Surely'
p436
I1
sS'innocent'
p437
I2
sS'has'
p438
I9
sS"Jasper's"
p439
I2
sS'Biology,'
p440
I1
sS'disagreement'
p441
I2
sS'possible'
p442
I3
sS'possibly'
p443
I1
sS'not-quite-so-gentle'
p444
I1
sS'clustered'
p445
I1
sS'unique'
p446
I1
sS'opinion.'
p447
I1
sS'desire'
p448
I2
sS'ha,'
p449
I1
sS'ha.'
p450
I1
sS'braids.'
p451
I1
sS'remind'
p452
I1
sS'steps'
p453
I3
sS'right'
p454
I21
sS'old'
p455
I16
sS'yourself?"'
p456
I2
sS'crowd'
p457
I3
sS'people'
p458
I18
sS'macabre'
p459
I1
sS'crown'
p460
I2
sS'"will'
p461
I1
sS'compositions.'
p462
I1
sS'commonplace'
p463
I1
sS'left!'
p464
I1
sS'left,'
p465
I1
sS'left.'
p466
I1
sS'shoelaces,'
p467
I1
sS'chorus'
p468
I1
sS'for'
p469
I239
sS'bottom'
p470
I2
sS'creative'
p471
I1
sS'fifties.'
p472
I1
sS'fog'
p473
I1
sS'terminator.'
p474
I1
sS'"No!"'
p475
I1
sS'forever.'
p476
I1
sS'hurt."'
p477
I1
sS'what."'
p478
I1
sS'binder'
p479
I1
sS'shifting'
p480
I2
sS'defensive'
p481
I1
sS'losing'
p482
I2
sS'chain-link'
p483
I1
sS'First'
p484
I3
sS'"Sorry,'
p485
I1
sS'seeking.'
p486
I1
sS'me\x97they'
p487
I1
sS'faded;'
p488
I1
sS'despair'
p489
I2
sS'um,'
p490
I1
sS'slightly'
p491
I3
sS'raised'
p492
I11
sS'gauze'
p493
I2
sS'peppermint.'
p494
I1
sS'honeymoon'
p495
I2
sS'realizes.'
p496
I1
sS'talent;'
p497
I1
sS'tomorrow."'
p498
I1
sS'eagerly.'
p499
I1
sS'eagerly,'
p500
I2
sS'fabric'
p501
I2
sS'constantly'
p502
I1
sS'Creeping'
p503
I1
sS'overnight.'
p504
I1
sS'civilized,'
p505
I1
sS'happy'
p506
I6
sS'magazine.'
p507
I1
sS'so,'
p508
I1
sS'being.'
p509
I1
sS'Mercedes,'
p510
I1
sS'family?"'
p511
I1
sS'"Most'
p512
I1
sS'kiss.'
p513
I1
sS'kiss,'
p514
I1
sS'gone.\x85'
p515
I1
sS'paneled'
p516
I1
sS"else's"
p517
I2
sS'inside'
p518
I13
sS'adrenaline.'
p519
I1
sS'eyes!"'
p520
I1
sS'nicest'
p521
I2
sS'palm'
p522
I1
sS'time,"'
p523
I2
sS'passenger'
p524
I3
sS'proud'
p525
I1
sS'passenget'
p526
I1
sS'steady'
p527
I2
sS'proves'
p528
I1
sS'model.'
p529
I1
sS'asked\x97well,'
p530
I1
sS'palm.'
p531
I2
sS'say."'
p532
I1
sS'protested'
p533
I2
sS'vanished;'
p534
I1
sS'floor'
p535
I6
sS'me."You\'re'
p536
I1
sS'flood'
p537
I1
sS'smell'
p538
I7
sS'roll'
p539
I4
sS'turned,'
p540
I1
sS'gone."'
p541
I1
sS'repeats.'
p542
I1
sS'intent'
p543
I1
sS'smelling'
p544
I1
sS'rolling'
p545
I1
sS'face\x97as'
p546
I1
sS'fastened'
p547
I1
sS'"Never'
p548
I1
sS'confused.'
p549
I1
sS'sniffed'
p550
I2
sS'okay."'
p551
I1
sS"Edward's"
p552
I22
sS'time'
p553
I37
sS'push'
p554
I1
sS'good:'
p555
I1
sS'gorgeous!'
p556
I1
sS'gown'
p557
I1
sS'stay.'
p558
I2
sS'chair'
p559
I5
sS'suppressed.'
p560
I1
sS'know\x97someone'
p561
I1
sS'fact\x97the'
p562
I1
sS'given."'
p563
I1
sS'cook,'
p564
I1
sS'jerk'
p565
I1
sS'choice'
p566
I5
sS'outside."'
p567
I1
sS'inflections.'
p568
I1
sS'gloomy'
p569
I1
sS'child,'
p570
I1
sS'sun-browned'
p571
I1
sS'minute'
p572
I5
sS'poor,'
p573
I1
sS'tear'
p574
I3
sS'finding\x85'
p575
I1
sS'settle'
p576
I1
sS'team'
p577
I2
sS'Emmett,'
p578
I3
sS'Kevin'
p579
I2
sS'meadow'
p580
I1
sS'moaned.'
p581
I1
sS'sigh'
p582
I1
sS'forty-year-olds'
p583
I2
sS'yard.'
p584
I2
sS'steaks'
p585
I1
sS'carpet,'
p586
I1
sS"Wagner's"
p587
I1
sS'false\x97there'
p588
I1
sS'current'
p589
I1
sS'bizarre,'
p590
I1
sS'saw.'
p591
I1
sS'married."'
p592
I2
sS'pretty,'
p593
I1
sS'lilac\x85'
p594
I1
sS'Me'
p595
I1
sS'grandparents'
p596
I2
sS'tickets,'
p597
I1
sS'sport."'
p598
I1
sS'alone'
p599
I11
sS'exploded.'
p600
I2
sS'along'
p601
I9
sS'My'
p602
I63
sS'revulsion.'
p603
I2
sS'birthdays?"'
p604
I1
sS'brilliant'
p605
I7
sS'studied'
p606
I5
sS'wherever'
p607
I3
sS'nowhere'
p608
I1
sS'love'
p609
I8
sS'prefer'
p610
I4
sS'bloody'
p611
I1
sS'packages,'
p612
I1
sS'packages.'
p613
I2
sS'red'
p614
I8
sS'it,"'
p615
I5
sS'working'
p616
I1
sS'positive'
p617
I2
sS'tightly'
p618
I4
sS'filmy'
p619
I1
sS'opposed'
p620
I1
sS'wondering'
p621
I3
sS'adorable,'
p622
I1
sS'Those'
p623
I3
sS'loving'
p624
I1
sS'scratched'
p625
I1
sS'introducing'
p626
I1
sS'afford'
p627
I1
sS'apparent'
p628
I1
sS"She'll"
p629
I1
sS'everywhere'
p630
I1
sS'point,"'
p631
I1
sS'deserved'
p632
I1
sS'pretend'
p633
I1
sS'already?"'
p634
I1
sS'values'
p635
I1
sS'following'
p636
I2
sS'Our'
p637
I3
sS'detached'
p638
I1
sS'sheeting'
p639
I2
sS'admired'
p640
I1
sS'anxiously.'
p641
I2
sS'believe\x97'
p642
I1
sS'locks'
p643
I1
sS'allowed'
p644
I8
sS'bears.'
p645
I1
sS'kindness.'
p646
I1
sS'scent,'
p647
I1
sS'scent.'
p648
I1
sS'winter'
p649
I1
sS'Who'
p650
I9
sS'sudden'
p651
I4
sS'groceries,'
p652
I1
sS'girl\x97just'
p653
I1
sS'listen.'
p654
I1
sS'hide,'
p655
I1
sS'echo.'
p656
I1
sS'hide.'
p657
I1
sS'convincingly'
p658
I2
sS'horrified,'
p659
I1
sS'mirror,'
p660
I1
sS'such'
p661
I11
sS'suck'
p662
I2
sS'filthy'
p663
I1
sS't-shirt,'
p664
I1
sS'doom:'
p665
I2
sS'natural'
p666
I1
sS'conscious'
p667
I2
sS'wheelchair'
p668
I1
sS'so'
p669
I131
sS'garlands'
p670
I1
sS'truce'
p671
I1
sS'pulled'
p672
I29
sS'sporty,'
p673
I1
sS'drying'
p674
I1
sS'hardly.'
p675
I1
sS'kayaks'
p676
I1
sS'flips'
p677
I1
sS'years'
p678
I17
sS'course'
p679
I14
sS'experiments'
p680
I1
sS'deity'
p681
I1
sS'tore'
p682
I4
sS'limbs'
p683
I2
sS'"Impossible,"'
p684
I1
sS'around?'
p685
I1
sS'did,'
p686
I2
sS'did.'
p687
I4
sS'amazing'
p688
I2
sS'leaned,'
p689
I1
sS'creations'
p690
I1
sS'suspicion'
p691
I2
sS'celebrate'
p692
I1
sS'dead,'
p693
I2
sS'somehow,'
p694
I2
sS'did;'
p695
I1
sS'mused'
p696
I1
sS'right!'
p697
I1
sS'matches'
p698
I1
sS'year,'
p699
I2
sS'year.'
p700
I2
sS'compelled'
p701
I2
sS'arriving'
p702
I1
sS'sorted'
p703
I1
sS'framed'
p704
I1
sS'twilight'
p705
I1
sS'maintaining'
p706
I1
sS'flip!'
p707
I1
sS'hero,"'
p708
I1
sS'"Let'
p709
I3
sS'instability'
p710
I1
sS"nurse's"
p711
I1
sS'"Allow'
p712
I1
sS'Charlie"'
p713
I1
sS'stalling'
p714
I1
sS'square'
p715
I5
sS'almost\x85smug.'
p716
I1
sS'small;'
p717
I1
sS'decreed'
p718
I1
sS'"Maybe'
p719
I2
sS'inside."'
p720
I1
sS'graduated,'
p721
I1
sS'entering'
p722
I3
sS'curb,'
p723
I1
sS'small,'
p724
I4
sS'small.'
p725
I3
sS'canvas'
p726
I1
sS'briefly.'
p727
I1
sS'box.'
p728
I1
sS'school."'
p729
I2
sS'wanderer,'
p730
I1
sS'seriously'
p731
I1
sS'trauma'
p732
I2
sS'inconspicuously'
p733
I1
sS'facedown'
p734
I1
sS'hoped.'
p735
I2
sS'million'
p736
I3
sS'seventh'
p737
I1
sS'food,'
p738
I3
sS'bumps'
p739
I1
sS'complicated'
p740
I1
sS'Either'
p741
I1
sS'besides'
p742
I4
sS'you?"'
p743
I14
sS'though?'
p744
I1
sS'silhouetted'
p745
I1
sS'Money'
p746
I1
sS'"Hi,"'
p747
I1
sS'please!"'
p748
I1
sS"couldn't."
p749
I1
sS'emotion'
p750
I3
sS'soon,"'
p751
I1
sS'speech."'
p752
I1
sS'saving'
p753
I2
sS'anymore.'
p754
I5
sS'Wanderer'
p755
I3
sS'anymore,'
p756
I1
sS'spoken'
p757
I3
sS'one'
p758
I116
sS'Faulkner.'
p759
I1
sS'jawline.'
p760
I1
sS'anymore?'
p761
I1
sS'"For'
p762
I3
sS'open'
p763
I18
sS'city'
p764
I3
sS'Monday'
p765
I1
sS'disrespect,'
p766
I1
sS'bite'
p767
I1
sS'waist'
p768
I4
sS'coat.'
p769
I1
sS'twenties'
p770
I1
sS'stuffed'
p771
I1
sS"Bella's"
p772
I1
sS'bits'
p773
I1
sS'"let'
p774
I1
sS'when\x97I'
p775
I1
sS'on.'
p776
I5
sS'on,'
p777
I6
sS'spoke.'
p778
I3
sS'much,'
p779
I1
sS'much.'
p780
I7
sS'not\x85'
p781
I1
sS'on;'
p782
I1
sS'ridiculous'
p783
I1
sS'mumbled.'
p784
I3
sS'mumbled,'
p785
I1
sS'much;'
p786
I1
sS'back\x97too'
p787
I1
sS'boyfriend'
p788
I1
sS'bit.'
p789
I1
sS'widened.'
p790
I1
sS'night\x97because'
p791
I1
sS'depressed'
p792
I1
sS'biohazard'
p793
I1
sS"'Course,"
p794
I1
sS'runway.'
p795
I1
sS'coats'
p796
I1
sS'future'
p797
I3
sS'glossy'
p798
I1
sS'cavalier'
p799
I1
sS'wandering'
p800
I1
sS'damned'
p801
I1
sS'tasted'
p802
I2
sS'"Relax,"'
p803
I1
sS'turned'
p804
I28
sS'argument'
p805
I2
sS'sad'
p806
I1
sS'say'
p807
I13
sS'buried'
p808
I1
sS'saw'
p809
I19
sS'lines."'
p810
I1
sS'sat'
p811
I17
sS'elongating'
p812
I1
sS'aside'
p813
I4
sS'soda,'
p814
I1
sS'Darren.'
p815
I3
sS'Darren,'
p816
I1
sS'Hale'
p817
I1
sS'take'
p818
I26
sS'bad.'
p819
I2
sS'blinding'
p820
I4
sS'touch,'
p821
I2
sS'Beaches'
p822
I1
sS'touch.'
p823
I1
sS"teacher's"
p824
I1
sS'handing'
p825
I2
sS'afternoon:'
p826
I1
sS'knew'
p827
I43
sS'"Just'
p828
I8
sS'nice,'
p829
I1
sS'knee'
p830
I1
sS'inserted'
p831
I1
sS'pages'
p832
I1
sS'average'
p833
I2
sS'Scattered'
p834
I1
sS'drive'
p835
I5
sS'spill'
p836
I1
sS'something.'
p837
I1
sS'ways'
p838
I5
sS'something,'
p839
I1
sS'jittery'
p840
I1
sS'not,'
p841
I3
sS'not.'
p842
I4
sS'walking'
p843
I6
sS'murmurs'
p844
I2
sS'clan,'
p845
I1
sS'bright'
p846
I7
sS'aggressive'
p847
I1
sS'imagined'
p848
I3
sS'insisted.'
p849
I4
sS'weapons'
p850
I1
sS'slow'
p851
I3
sS"Billy's"
p852
I1
sS'cause."'
p853
I1
sS'brooding,'
p854
I1
sS'outside'
p855
I6
sS'fluid'
p856
I1
sS'tears'
p857
I3
sS'going'
p858
I33
sS'outrage'
p859
I1
sS'blinds'
p860
I2
sS'nothing;'
p861
I1
sS'darkness.'
p862
I3
sS'dinner?"'
p863
I1
sS'usual.'
p864
I1
sS'assistant'
p865
I2
sS'imagine.'
p866
I1
sS'awkwardly.'
p867
I1
sS'lucidity'
p868
I1
sS'awkwardly,'
p869
I1
sS'Having'
p870
I1
sS'blind,'
p871
I1
sS'blind.'
p872
I1
sS'borrow'
p873
I1
sS'worried'
p874
I6
sS'fenders'
p875
I1
sS'maps.'
p876
I1
sS'worries'
p877
I1
sS'uncover'
p878
I1
sS'where'
p879
I29
sS'Sharon,'
p880
I1
sS'down,'
p881
I2
sS'commanded.'
p882
I1
sS'smooth,'
p883
I1
sS'job.'
p884
I5
sS'job,'
p885
I2
sS'That'
p886
I19
sS'jumped'
p887
I2
sS'concentrate.'
p888
I1
sS'floodgate.'
p889
I1
sS'man.'
p890
I3
sS'anyway.'
p891
I4
sS'anyway,'
p892
I2
sS'Hostilities'
p893
I1
sS'concentrate'
p894
I2
sS'awards'
p895
I1
sS'graceful,'
p896
I1
sS'menacing'
p897
I1
sS'Plus,'
p898
I1
sS'concentrated'
p899
I5
sS'"None'
p900
I1
sS'many'
p901
I18
sS'Spider'
p902
I1
sS'flipped'
p903
I2
sS'site.'
p904
I1
sS'loudly'
p905
I1
sS'albino."'
p906
I1
sS'expression'
p907
I9
sS"can't"
p908
I22
sS'it.\x85'
p909
I1
sS'District.'
p910
I1
sS'reflexively.'
p911
I1
sS'lane.'
p912
I1
sS'want.'
p913
I1
sS'caring'
p914
I1
sS'dress.'
p915
I1
sS'Caius'
p916
I2
sS'west'
p917
I1
sS'vacation'
p918
I1
sS'breath'
p919
I10
sS'squeeze.'
p920
I1
sS'happened."'
p921
I1
sS'reflective'
p922
I1
sS'reflex'
p923
I1
sS'virtuous,'
p924
I1
sS'wants'
p925
I1
sS'panic,'
p926
I1
sS'gist'
p927
I1
sS"actor's"
p928
I1
sS'thousand'
p929
I9
sS'formed'
p930
I1
sS'sounds\x97footsteps,'
p931
I1
sS'observe'
p932
I1
sS'queasy'
p933
I1
sS'"There\'s'
p934
I1
sS'easier'
p935
I1
sS'squeezed'
p936
I2
sS'situation'
p937
I2
sS'they?"'
p938
I1
sS'spotlight'
p939
I2
sS'twists'
p940
I2
sS'cars.'
p941
I2
sS'Looking'
p942
I1
sS'beginning,'
p943
I1
sS'human\x97"'
p944
I1
sS'adopted.'
p945
I1
sS'plate-glass'
p946
I1
sS'threatens'
p947
I1
sS'train.'
p948
I1
sS'it."'
p949
I8
sS'thief.'
p950
I1
sS'loosen?'
p951
I1
sS'Blood'
p952
I1
sS'raining,'
p953
I1
sS'edged'
p954
I3
sS'I'
I1492
sS'edges'
p955
I2
sS'twist.'
p956
I1
sS'correct?"'
p957
I1
sS"host's"
p958
I3
sS'squeamishness'
p959
I1
sS'few,'
p960
I1
sS'"Back'
p961
I2
sS'tracking'
p962
I1
sS'lullaby.'
p963
I1
sS'Souls'
p964
I2
sS'acclimates.'
p965
I1
sS'shut.'
p966
I1
sS'Port'
p967
I2
sS'followed,'
p968
I1
sS'sprayed'
p969
I1
sS'being'
p970
I19
sS'gesture.'
p971
I1
sS'rest'
p972
I17
sS'plans?"'
p973
I1
sS'blondes'
p974
I1
sS'deceiving'
p975
I1
sS'strange;'
p976
I1
sS'instrument'
p977
I1
sS'loudly,'
p978
I3
sS'loudly.'
p979
I3
sS'Olive'
p980
I1
sS'strange.'
p981
I1
sS'Concern!'
p982
I1
sS'complimentary.'
p983
I1
sS'around'
p984
I52
sS'dark'
p985
I9
sS'traffic'
p986
I2
sS'bandage'
p987
I1
sS'sorry,'
p988
I2
sS'world'
p989
I6
sS'bravery'
p990
I1
sS'Push?"'
p991
I1
sS'stranger'
p992
I1
sS'Eager'
p993
I1
sS'paused,'
p994
I1
sS'think\x85'
p995
I1
sS'full-scale'
p996
I1
sS'negatively.'
p997
I1
sS'claw'
p998
I1
sS'Instead,'
p999
I3
sS'blonde,'
p1000
I1
sS"did\x97we'll"
p1001
I1
sS'compassionate,'
p1002
I1
sS'likely.'
p1003
I1
sS'gifts.'
p1004
I1
sS'divine'
p1005
I1
sS'thinks'
p1006
I1
sS'memories'
p1007
I4
sS'"Sure.'
p1008
I1
sS'exit'
p1009
I1
sS'dimples'
p1010
I1
sS'unsuccessfully'
p1011
I1
sS'waited.'
p1012
I3
sS'think,'
p1013
I2
sS'waited,'
p1014
I1
sS'power'
p1015
I1
sS'faintly'
p1016
I1
sS'shushed'
p1017
I2
sS"You'll"
p1018
I2
sS'detectors?'
p1019
I1
sS'prepared'
p1020
I1
sS'stone'
p1021
I2
sS'thirsty.'
p1022
I1
sS'intensified'
p1023
I1
sS'shop.'
p1024
I1
sS'favorite'
p1025
I6
sS'slender'
p1026
I2
sS'"bite'
p1027
I1
sS'neighbor'
p1028
I3
sS'act'
p1029
I1
sS'doodling'
p1030
I1
sS'luck'
p1031
I3
sS'mirror."'
p1032
I1
sS'scanty.'
p1033
I1
sS'utterly'
p1034
I1
sS'"Because'
p1035
I1
sS'No'
p1036
I14
sS'image'
p1037
I2
sS'forehead,'
p1038
I3
sS'forehead.'
p1039
I2
sS'pivot'
p1040
I1
sS'continent,'
p1041
I1
sS'mourn.'
p1042
I1
sS'worried.'
p1043
I2
sS'her'
p1044
I145
sS'gleam'
p1045
I2
sS'Peninsula'
p1046
I1
sS'late,"'
p1047
I2
sS'sealed'
p1048
I1
sS'obvious,'
p1049
I1
sS'obvious.'
p1050
I3
sS'answering.'
p1051
I1
sS'things."'
p1052
I1
sS'complete'
p1053
I3
sS'admiring.'
p1054
I1
sS'another.'
p1055
I2
sS'survived'
p1056
I1
sS'with'
p1057
I261
sS'buying'
p1058
I1
sS"they're"
p1059
I10
sS'rush'
p1060
I2
sS'miss.'
p1061
I2
sS'a\x85'
p1062
I1
sS'attention."'
p1063
I1
sS'detachment,'
p1064
I1
sS"sisters'"
p1065
I2
sS'"Oh.'
p1066
I1
sS'dirty'
p1067
I1
sS'mopping'
p1068
I1
sS'breathing,'
p1069
I2
sS'breathing.'
p1070
I4
sS'torso'
p1071
I1
sS'trips'
p1072
I1
sS'rust'
p1073
I1
sS'darker'
p1074
I4
sS'gone'
p1075
I12
sS'citizenship'
p1076
I1
sS'pity.'
p1077
I1
sS'certain'
p1078
I1
sS'stealing'
p1079
I1
sS'am'
p1080
I11
sS'an'
p1081
I83
sS'How'
p1082
I10
sS'as'
p1083
I276
sS'at'
p1084
I228
sS'fumbling'
p1085
I1
sS'watched'
p1086
I8
sS'no-vomiting'
p1087
I1
sS'fault,"'
p1088
I2
sS'cream'
p1089
I1
sS'way\x85"'
p1090
I1
sS'tight'
p1091
I3
sS'trick.'
p1092
I1
sS'all\x97Angela,'
p1093
I1
sS'discussed,'
p1094
I1
sS'Mexico.'
p1095
I2
sS'gifts'
p1096
I3
sS'them?"'
p1097
I2
sS'brotherhood'
p1098
I1
sS'flux\x97it'
p1099
I1
sS'cabinets,'
p1100
I1
sS'snagged'
p1101
I1
sS'someone,'
p1102
I1
sS'thorn'
p1103
I1
sS'respectable,'
p1104
I1
sS'mimic'
p1105
I1
sS'cheekbones,'
p1106
I1
sS'finally,'
p1107
I1
sS'consider'
p1108
I1
sS'caused'
p1109
I2
sS'bullets?"'
p1110
I1
sS'debris'
p1111
I1
sS'reasoning'
p1112
I2
sS'(in'
p1113
I2
sS'content'
p1114
I1
sS'hunting'
p1115
I1
sS'millimeter,'
p1116
I1
sS'laughing'
p1117
I2
sS'dressing'
p1118
I3
sS'smile'
p1119
I11
sS'ponderings'
p1120
I1
sS'paying'
p1121
I1
sS'overpowered'
p1122
I1
sS'is,'
p1123
I2
sS'swallows'
p1124
I1
sS'floated'
p1125
I1
sS'Personally,'
p1126
I1
sS'condition'
p1127
I1
sS'accompanying'
p1128
I1
sS'joined'
p1129
I1
sS'teased.'
p1130
I1
sS'large'
p1131
I3
sS'sand'
p1132
I1
sS'swirling'
p1133
I2
sS'progressed,'
p1134
I1
sS'small'
p1135
I23
sS'en-en'
p1136
I2
sS'hour.'
p1137
I2
sS'healed'
p1138
I2
sS'past'
p1139
I12
sS'pass'
p1140
I1
sS'"3"'
p1141
I1
sS'complained.'
p1142
I1
sS'clock'
p1143
I1
sS'things\x97living'
p1144
I1
sS'cheap."'
p1145
I1
sS'contrast'
p1146
I1
sS'full'
p1147
I12
sS'"Only'
p1148
I2
sS'Charlie'
p1149
I65
sS'Origin?"'
p1150
I1
sS'effortlessly,'
p1151
I1
sS'hours'
p1152
I2
sS'buzzing'
p1153
I1
sS'yellowed'
p1154
I1
sS'Planet'
p1155
I1
sS'contrastingly'
p1156
I1
sS'Lauren'
p1157
I1
sS'experience'
p1158
I3
sS'yourself,'
p1159
I2
sS'healthier'
p1160
I1
sS'pick'
p1161
I1
sS'action'
p1162
I1
sS'Jared'
p1163
I1
sS'sweetness'
p1164
I1
sS'gawking'
p1165
I3
sS'followed'
p1166
I7
sS'plink'
p1167
I1
sS'parties?'
p1168
I1
sS'strolling'
p1169
I1
sS'conspiratorial'
p1170
I1
sS'breathes.'
p1171
I1
sS'pulls'
p1172
I1
sS'flowers,'
p1173
I2
sS'flowers.'
p1174
I1
sS'watch.'
p1175
I1
sS'fragrance'
p1176
I1
sS'\x91I'
p1177
I1
sS'withered.'
p1178
I1
sS'withered,'
p1179
I1
sS'more'
p1180
I76
sS'fast-forwarding'
p1181
I1
sS'door'
p1182
I22
sS'Apparently,'
p1183
I1
sS'person.'
p1184
I1
sS'corrected'
p1185
I1
sS'marriage.'
p1186
I1
sS'Mike!'
p1187
I1
sS'Mike.'
p1188
I1
sS'Mike,'
p1189
I4
sS'keeping'
p1190
I6
sS"Aren't"
p1191
I1
sS'installing'
p1192
I1
sS'ceasing'
p1193
I1
sS'sent'
p1194
I3
sS'objective.'
p1195
I1
sS'knocked'
p1196
I2
sS'male'
p1197
I2
sS'Your'
p1198
I2
sS'beautiful'
p1199
I11
sS'stated'
p1200
I1
sS'accept'
p1201
I1
sS'walked.'
p1202
I1
sS'fiercely'
p1203
I1
sS'sense'
p1204
I8
sS'scar'
p1205
I3
sS'dress'
p1206
I4
sS'"Well,"'
p1207
I1
sS'huge'
p1208
I7
sS'dismissed'
p1209
I1
sS'glowing'
p1210
I2
sS'hugs'
p1211
I1
sS'messy,'
p1212
I1
sS'creature'
p1213
I2
sS'waved'
p1214
I2
sS'something,"'
p1215
I1
sS'plant'
p1216
I1
sS'plans'
p1217
I1
sS'away."'
p1218
I2
sS"Jared's"
p1219
I1
sS'dislike.'
p1220
I1
sS'plane'
p1221
I4
sS'waves'
p1222
I2
sS'brown.'
p1223
I1
sS'twisting'
p1224
I2
sS'pucker'
p1225
I1
sS'volleyball'
p1226
I2
sS'existence."'
p1227
I1
sS'wrench'
p1228
I2
sS'deafening'
p1229
I1
sS'patio'
p1230
I2
sS'bowl'
p1231
I1
sS'defenses.'
p1232
I1
sS'rigid;'
p1233
I1
sS'expecting,'
p1234
I1
sS'attitude'
p1235
I1
sS'paper'
p1236
I5
sS'smiling'
p1237
I5
sS'its'
p1238
I22
sS'imaginings'
p1239
I1
sS'rapidly'
p1240
I1
sS'downstairs."'
p1241
I1
sS'course.'
p1242
I3
sS'course,'
p1243
I12
sS'yellow.'
p1244
I1
sS'truth,'
p1245
I1
sS'thoughtfully,'
p1246
I1
sS'course;'
p1247
I1
sS'Heights.'
p1248
I1
sS'it.'
p1249
I44
sS'it,'
p1250
I12
sS'skipped'
p1251
I6
sS'sign,'
p1252
I2
sS'Please'
p1253
I1
sS'it!'
p1254
I1
sS'boredom.'
p1255
I1
sS'it?'
p1256
I1
sS'snowball'
p1257
I2
sS'it;'
p1258
I1
sS'"Almost."'
p1259
I1
sS'great.'
p1260
I2
sS'sign:'
p1261
I1
sS'sucked'
p1262
I1
sS'reassured'
p1263
I1
sS'all.'
p1264
I3
sS'all,'
p1265
I5
sS'Thanks'
p1266
I1
sS'found'
p1267
I18
sS'lace;'
p1268
I1
sS'begged'
p1269
I1
sS'upstairs'
p1270
I1
sS'operation'
p1271
I1
sS'considering."'
p1272
I1
sS'quick,'
p1273
I3
sS'really'
p1274
I28
sS'unhappily.'
p1275
I1
sS'try'
p1276
I13
sS'missed'
p1277
I3
sS'mattered'
p1278
I2
sS'was\x97it'
p1279
I1
sS'Class'
p1280
I1
sS'nervously'
p1281
I1
sS'blue,'
p1282
I1
sS'blue.'
p1283
I2
sS'grandmother.'
p1284
I1
sS'murmur'
p1285
I1
sS'imagine'
p1286
I8
sS'rises'
p1287
I1
sS'reaction.'
p1288
I6
sS'reaction,'
p1289
I1
sS'attention,'
p1290
I2
sS'II'
p1291
I1
sS'attention.'
p1292
I1
sS'carry-on'
p1293
I1
sS"woman's"
p1294
I5
sS'attention;'
p1295
I1
sS'black,'
p1296
I3
sS'contingency'
p1297
I1
sS'black.'
p1298
I2
sS'gazed'
p1299
I1
sS'rooted'
p1300
I1
sS'wish\x85'
p1301
I1
sS'yes."'
p1302
I1
sS'murmured'
p1303
I5
sS'this?"'
p1304
I3
sS'three-seat'
p1305
I1
sS'Charlotte,'
p1306
I1
sS'(there'
p1307
I1
sS'guess'
p1308
I6
sS'heads'
p1309
I1
sS'suddenly,'
p1310
I1
sS'suddenly.'
p1311
I1
sS'am."'
p1312
I1
sS'tradition'
p1313
I1
sS'bleeding'
p1314
I1
sS'omnipresent'
p1315
I1
sS"Healer's"
p1316
I3
sS'bridesmaid'
p1317
I1
sS'"till'
p1318
I1
sS'supposed\x85'
p1319
I1
sS'first,'
p1320
I4
sS'blossoms'
p1321
I1
sS'first.'
p1322
I4
sS'gaze,'
p1323
I2
sS'immediate'
p1324
I1
sS'cheekbones'
p1325
I1
sS'two-bedroom'
p1326
I1
sS'first?'
p1327
I1
sS'forward,'
p1328
I1
sS'stifle'
p1329
I1
sS'stairs'
p1330
I2
sS'determined'
p1331
I1
sS'marriage'
p1332
I7
sS'sure.'
p1333
I2
sS'hot.'
p1334
I1
sS'hot,'
p1335
I1
sS'"Stop'
p1336
I2
sS'trill.'
p1337
I1
sS'uncomfortable'
p1338
I2
sS'wants."'
p1339
I1
sS'Sharon?"'
p1340
I1
sS'blond'
p1341
I4
sS'shrubs'
p1342
I1
sS'sell'
p1343
I1
sS'amusement.'
p1344
I2
sS'amusement,'
p1345
I1
sS'Club'
p1346
I1
sS'lashes.'
p1347
I1
sS'fashion.'
p1348
I1
sS'wish,'
p1349
I1
sS'silvery'
p1350
I1
sS'ahead."'
p1351
I1
sS'also'
p1352
I9
sS'afterward\x85'
p1353
I1
sS'bouncing'
p1354
I1
sS'stronger\x97another'
p1355
I1
sS'brace'
p1356
I1
sS'understand.'
p1357
I2
sS'odor.'
p1358
I1
sS'play'
p1359
I5
sS'firsthand'
p1360
I1
sS'swiftly'
p1361
I4
sS'nasal'
p1362
I1
sS'unused'
p1363
I1
sS'refrigerator.'
p1364
I1
sS'refrigerator,'
p1365
I1
sS'accepting'
p1366
I1
sS'bustled'
p1367
I1
sS'moss,'
p1368
I1
sS'sometimes'
p1369
I4
sS'cover'
p1370
I5
sS'artistic'
p1371
I1
sS'barren'
p1372
I1
sS'ends.'
p1373
I1
sS'silver,'
p1374
I1
sS'sharp.'
p1375
I1
sS'dragged'
p1376
I2
sS'know?"'
p1377
I1
sS'"She'
p1378
I8
sS'gold'
p1379
I2
sS'Had'
p1380
I1
sS'demanded.'
p1381
I6
sS'demanded,'
p1382
I2
sS'fault."'
p1383
I1
sS'overwhelmed'
p1384
I1
sS'occupation'
p1385
I2
sS'impact'
p1386
I1
sS'Gym'
p1387
I1
sS'failed'
p1388
I2
sS'"Since'
p1389
I2
sS'alive.'
p1390
I1
sS'alive,'
p1391
I2
sS'sunny'
p1392
I1
sS"they'd"
p1393
I6
sS'frightening'
p1394
I2
sS'shouts'
p1395
I1
sS'column.'
p1396
I1
sS'fair!"'
p1397
I1
sS'pleasures'
p1398
I1
sS'actually.'
p1399
I1
sS'MONEY,'
p1400
I1
sS'harebrained'
p1401
I1
sS'obscure'
p1402
I1
sS'river'
p1403
I1
sS'morphed'
p1404
I2
sS'body'
p1405
I27
sS'delicately'
p1406
I1
sS'set'
p1407
I8
sS'For'
p1408
I11
sS'overwhelm'
p1409
I1
sS'stronger,'
p1410
I1
sS'see'
p1411
I66
sS"Rosalie's"
p1412
I1
sS'overboard'
p1413
I1
sS'unsettling'
p1414
I1
sS'muted'
p1415
I2
sS'movie'
p1416
I4
sS'currently'
p1417
I1
sS'girl,'
p1418
I2
sS'softly.'
p1419
I2
sS'monsters'
p1420
I1
sS'throat-clearing'
p1421
I2
sS'knowing'
p1422
I6
sS'here?"'
p1423
I5
sS'loose-fitting'
p1424
I1
sS'untouched'
p1425
I1
sS'smoldering'
p1426
I1
sS'pagan'
p1427
I1
sS'Sometimes,'
p1428
I1
sS'Alice?'
p1429
I1
sS'visible.'
p1430
I1
sS'barely'
p1431
I9
sS'"Smells'
p1432
I1
sS'Alice.'
p1433
I2
sS'monster?'
p1434
I1
sS'Alice,'
p1435
I7
sS'wait\x97"'
p1436
I1
sS"we've"
p1437
I2
sS'everything.'
p1438
I3
sS'whole'
p1439
I12
sS'blaze'
p1440
I2
sS'cheap,"'
p1441
I1
sS'normal\x85'
p1442
I1
sS'volcanic'
p1443
I1
sS'town,'
p1444
I1
sS'town.'
p1445
I3
sS'acted'
p1446
I1
sS'race,'
p1447
I2
sS'silence.'
p1448
I4
sS'once?"'
p1449
I1
sS'coincidence'
p1450
I1
sS'adjoining'
p1451
I1
sS'then!"'
p1452
I1
sS'church'
p1453
I1
sS'belt'
p1454
I1
sS'man\x97were'
p1455
I1
sS'worthless'
p1456
I1
sS'cage.'
p1457
I1
sS'acceptance'
p1458
I2
sS'adoringly;'
p1459
I1
sS'"Will'
p1460
I4
sS"hadn't."
p1461
I1
sS'firm'
p1462
I2
sS'resting'
p1463
I1
sS'Bella\x97you'
p1464
I1
sS'high-pitched'
p1465
I1
sS'fire'
p1466
I1
sS'wondered.'
p1467
I3
sS"what's"
p1468
I2
sS"She'd"
p1469
I5
sS'"Please,"'
p1470
I1
sS'awake'
p1471
I1
sS"She's"
p1472
I3
sS'reproach.'
p1473
I1
sS'exquisite'
p1474
I1
sS'straight'
p1475
I6
sS'admire'
p1476
I2
sS'pressed'
p1477
I10
sS'leaning'
p1478
I4
sS'kissing'
p1479
I2
sS'Cold'
p1480
I2
sS'"Very'
p1481
I2
sS'Miss'
p1482
I1
sS'brawny'
p1483
I1
sS'hoping'
p1484
I9
sS'waist,'
p1485
I2
sS'Mike.\x85'
p1486
I1
sS'binding'
p1487
I1
sS'sighed,'
p1488
I6
sS'clouds.'
p1489
I1
sS'remember."'
p1490
I1
sS'"Happy'
p1491
I5
sS'beautifully'
p1492
I1
sS'pheromone-riddled'
p1493
I1
sS'funny'
p1494
I1
sS'starlight'
p1495
I1
sS'playfulness,'
p1496
I1
sS'Cullens'
p1497
I8
sS'shorter'
p1498
I4
sS'virtually'
p1499
I1
sS'"Hello?'
p1500
I1
sS'Then'
p1501
I9
sS'flooded'
p1502
I1
sS'alert'
p1503
I1
sS'furrowed;'
p1504
I1
sS'stack'
p1505
I1
sS'Cullen;'
p1506
I1
sS'inches,'
p1507
I2
sS'cut\x97that'
p1508
I1
sS'brain\x97scents.'
p1509
I1
sS'yet.'
p1510
I1
sS'person'
p1511
I8
sS'yet,'
p1512
I1
sS'Cullen,'
p1513
I2
sS'Cullen.'
p1514
I1
sS'Sox'
p1515
I1
sS'"Emmett'
p1516
I1
sS'listening'
p1517
I3
sS'red-haired'
p1518
I2
sS'angrier.'
p1519
I1
sS'hint.'
p1520
I1
sS'salve'
p1521
I1
sS'us,"'
p1522
I1
sS'spin.'
p1523
I1
sS'scrap-book),'
p1524
I1
sS'surprises'
p1525
I1
sS'"Bella,"'
p1526
I5
sS'individual.'
p1527
I1
sS'breathe.'
p1528
I1
sS'parents'
p1529
I2
sS'location'
p1530
I1
sS'crying'
p1531
I2
sS'surprised'
p1532
I10
sS'do?'
p1533
I1
sS'Both'
p1534
I2
sS'seventeen.'
p1535
I1
sS'emergency'
p1536
I1
sS'something."'
p1537
I1
sS'couple'
p1538
I4
sS'Madness.'
p1539
I1
sS'fidgeting,'
p1540
I1
sS'suffering'
p1541
I1
sS'clutched'
p1542
I1
sS'private'
p1543
I1
sS'stupid\x97I'
p1544
I1
sS'Or'
p1545
I4
sS'formal'
p1546
I2
sS'drizzle.'
p1547
I1
sS'party,"'
p1548
I1
sS'done,"'
p1549
I1
sS'surprise.'
p1550
I2
sS'conclusion!'
p1551
I1
sS'surprise,'
p1552
I1
sS'conclusion.'
p1553
I1
sS'spins'
p1554
I1
sS'tonight?"'
p1555
I1
sS'spring'
p1556
I1
sS'mighty'
p1557
I1
sS'sight'
p1558
I3
sS'curious'
p1559
I3
sS'sprint'
p1560
I1
sS'pale'
p1561
I10
sS'momentary'
p1562
I1
sS'wrists'
p1563
I1
sS'Mostly'
p1564
I2
sS'twinkle'
p1565
I2
sS'completely.'
p1566
I2
sS'cupped'
p1567
I1
sS'completely?'
p1568
I1
sS'"But\x85'
p1569
I1
sS'And,'
p1570
I6
sS'Look'
p1571
I2
sS'Rosalie'
p1572
I15
sS'sigh.'
p1573
I1
sS'stitches.'
p1574
I1
sS'sigh,'
p1575
I1
sS'"deep'
p1576
I1
sS'start\x97my'
p1577
I1
sS'worlds.'
p1578
I1
sS'by'
p1579
I82
sS'anything'
p1580
I23
sS'elbows,and'
p1581
I1
sS'time."'
p1582
I2
sS'wrinkles'
p1583
I1
sS'deserves'
p1584
I3
sS'dramatically,'
p1585
I1
sS'wrinkled'
p1586
I2
sS'"Sure\x97nobody'
p1587
I1
sS'long.'
p1588
I2
sS'Dragon!"'
p1589
I1
sS'hometown'
p1590
I1
sS'into'
p1591
I113
sS'appropriate'
p1592
I3
sS'jack.'
p1593
I1
sS'tall,'
p1594
I1
sS'guffaws.'
p1595
I2
sS'span'
p1596
I1
sS'shrouds,'
p1597
I1
sS'spending'
p1598
I3
sS'wrists\x97a'
p1599
I1
sS'specifically'
p1600
I2
sS'beginning\x85'
p1601
I1
sS'lithe'
p1602
I1
sS'suit'
p1603
I3
sS'creosote'
p1604
I1
sS'self-conscious,'
p1605
I2
sS'rhetorical'
p1606
I1
sS'feel?"'
p1607
I2
sS'inches'
p1608
I2
sS'almost-black.'
p1609
I1
sS'relaxed'
p1610
I6
sS'hiya,'
p1611
I1
sS'legs.'
p1612
I2
sS'line'
p1613
I10
sS'open,'
p1614
I4
sS'open.'
p1615
I4
sS'up'
p1616
I108
sS'us'
p1617
I33
sS'"Yeah,'
p1618
I2
sS'sighed.'
p1619
I16
sS'mature'
p1620
I1
sS'faded'
p1621
I2
sS'enthusiasm.'
p1622
I1
sS'alarm'
p1623
I1
sS'side.'
p1624
I8
sS'side,'
p1625
I5
sS'reconcile'
p1626
I1
sS'box,'
p1627
I2
sS'city\x97in'
p1628
I1
sS'lost.'
p1629
I4
sS'lost,'
p1630
I2
sS'duration'
p1631
I1
sS'skimming'
p1632
I1
sS'settled,'
p1633
I3
sS'graceful'
p1634
I4
sS'hedges.'
p1635
I1
sS'sedated?'
p1636
I1
sS'definitely'
p1637
I2
sS'Grandma'
p1638
I2
sS'sedated,'
p1639
I1
sS'great."'
p1640
I1
sS'hell.'
p1641
I2
sS'hell,'
p1642
I1
sS'instep.'
p1643
I1
sS'e-mail.'
p1644
I1
sS'home."'
p1645
I2
sS'ago'
p1646
I3
sS'frozen,'
p1647
I1
sS'holey'
p1648
I1
sS'pedestrians'
p1649
I1
sS'walked'
p1650
I30
sS'"Your'
p1651
I3
sS'fresh'
p1652
I1
sS'having'
p1653
I5
sS'wanted\x85'
p1654
I1
sS'dealers,'
p1655
I1
sS'partial'
p1656
I1
sS'sharply'
p1657
I1
sS'scooped'
p1658
I3
sS'that\x85'
p1659
I1
sS'"Another'
p1660
I1
sS'gloomy,'
p1661
I1
sS'gossip'
p1662
I1
sS'shrugged'
p1663
I2
sS'seemed'
p1664
I26
sS'concerned'
p1665
I1
sS'young'
p1666
I5
sS'send'
p1667
I3
sS'contours'
p1668
I1
sS'"Clearly,'
p1669
I1
sS'resources'
p1670
I1
sS'center.'
p1671
I1
sS'stocked'
p1672
I1
sS'torture'
p1673
I1
sS'him\x97that'
p1674
I1
sS'highway.'
p1675
I2
sS'waters,'
p1676
I1
sS'comforting\x85'
p1677
I1
sS'continued'
p1678
I9
sS'wipe'
p1679
I1
sS'resigned.'
p1680
I2
sS'detested'
p1681
I1
sS'glee,'
p1682
I1
sS'marry'
p1683
I2
sS"they've"
p1684
I2
sS'"Years'
p1685
I1
sS'anxious'
p1686
I3
sS'bruise-like'
p1687
I1
sS'disheveled'
p1688
I1
sS'gauge'
p1689
I1
sS'glow.'
p1690
I1
sS'Seattle'
p1691
I1
sS"car's"
p1692
I1
sS'recruitment'
p1693
I1
sS'acclimating'
p1694
I1
sS'alone,"'
p1695
I1
sS'enclosed'
p1696
I1
sS'air."'
p1697
I1
sS'"Don\'t'
p1698
I12
sS'odd'
p1699
I3
sS'that,'
p1700
I14
sS'make.'
p1701
I1
sS'that.'
p1702
I16
sS'Jessica'
p1703
I17
sS'twins'
p1704
I2
sS'recliner'
p1705
I1
sS'flowing'
p1706
I1
sS'Dull'
p1707
I1
sS'led'
p1708
I1
sS'leg'
p1709
I1
sS'peeked."'
p1710
I1
sS'answered.'
p1711
I5
sS'nattering.'
p1712
I1
sS'answered,'
p1713
I4
sS'unease'
p1714
I1
sS'Tylenol."'
p1715
I1
sS'let'
p1716
I34
sS'fifteen'
p1717
I1
sS'great'
p1718
I6
sS'slab.'
p1719
I1
sS'involved'
p1720
I2
sS'surfacing,'
p1721
I1
sS'feet?"'
p1722
I1
sS'"What\'s'
p1723
I4
sS'opinion'
p1724
I1
sS'makes'
p1725
I7
sS'panicked'
p1726
I4
sS'sienna'
p1727
I1
sS'Clearwater'
p1728
I2
sS'standing'
p1729
I7
sS'confidence'
p1730
I3
sS'dreams,'
p1731
I1
sS'weakness.'
p1732
I1
sS'illegal'
p1733
I1
sS'unknown.'
p1734
I1
sS'next'
p1735
I20
sS'doubt'
p1736
I6
sS'healed."'
p1737
I1
sS'know,"'
p1738
I3
sS'ball,'
p1739
I1
sS'pencil'
p1740
I1
sS'turnoff'
p1741
I1
sS'Birthday.\'"'
p1742
I1
sS'occurred'
p1743
I1
sS'outcome.'
p1744
I1
sS'extinction.'
p1745
I1
sS'baby'
p1746
I1
sS'But\x85"'
p1747
I1
sS'certainly)'
p1748
I1
sS'balls'
p1749
I1
sS'this'
p1750
I126
sS'challenge'
p1751
I2
sS'cherubic'
p1752
I1
sS'minister,'
p1753
I1
sS'thin'
p1754
I2
sS'nice."'
p1755
I1
sS'high,'
p1756
I1
sS'wearing'
p1757
I5
sS'slid'
p1758
I5
sS'Police'
p1759
I1
sS'bent'
p1760
I4
sS'process'
p1761
I2
sS'lock'
p1762
I2
sS'pieces'
p1763
I2
sS'high'
p1764
I1
sS'"We\'re'
p1765
I4
sS'road'
p1766
I1
sS'slip'
p1767
I5
sS'martyr'
p1768
I1
sS'weaken'
p1769
I1
sS'class.'
p1770
I5
sS'class,'
p1771
I6
sS'memories\x97and'
p1772
I1
sS'volunteer,'
p1773
I1
sS'mumbled'
p1774
I1
sS'pair'
p1775
I2
sS'hopefully.'
p1776
I1
sS'native'
p1777
I2
sS'canals.'
p1778
I1
sS'free.'
p1779
I2
sS'lines?'
p1780
I1
sS'Seth.'
p1781
I2
sS'tied'
p1782
I2
sS'purpose.'
p1783
I1
sS'weighed'
p1784
I1
sS'lines.'
p1785
I1
sS'"Three'
p1786
I1
sS'tomato'
p1787
I1
sS'pale,'
p1788
I2
sS'realized'
p1789
I6
sS'mumble.'
p1790
I1
sS'counter'
p1791
I1
sS'One'
p1792
I13
sS'realizes'
p1793
I1
sS'counted'
p1794
I1
sS'says.'
p1795
I1
sS'similarities'
p1796
I1
sS'Traditionally,'
p1797
I1
sS'move'
p1798
I3
sS'lied.'
p1799
I2
sS'produced'
p1800
I1
sS'existence,'
p1801
I1
sS'design.'
p1802
I1
sS'perfect'
p1803
I11
sS'chosen'
p1804
I1
sS'shudder'
p1805
I1
sS'degrees'
p1806
I2
sS'communication'
p1807
I1
sS'amazed'
p1808
I1
sS'kiss'
p1809
I4
sS'realize'
p1810
I10
sS'traced'
p1811
I4
sS'lotof'
p1812
I1
sS'truth'
p1813
I2
sS'Bright,'
p1814
I1
sS'beneath'
p1815
I6
sS'traces'
p1816
I1
sS'doing'
p1817
I11
sS'old,"'
p1818
I1
sS'stone.'
p1819
I1
sS'irritation'
p1820
I1
sS'jagged'
p1821
I1
sS'tenth'
p1822
I1
sS'wander'
p1823
I1
sS'held\x97was'
p1824
I1
sS'Very'
p1825
I1
sS'pony-tail,'
p1826
I1
sS'bad'
p1827
I8
sS'fifty.'
p1828
I1
sS'lurched'
p1829
I1
sS'edible.'
p1830
I1
sS'belief.'
p1831
I1
sS'sunlight\x97the'
p1832
I1
sS'with\x85"'
p1833
I1
sS'doctor,"'
p1834
I1
sS'book,'
p1835
I1
sS'inhaling'
p1836
I1
sS"Chief's"
p1837
I2
sS'embarrass'
p1838
I1
sS'"Yeah,"'
p1839
I1
sS'steering'
p1840
I1
sS'met,'
p1841
I2
sS'suggested.'
p1842
I2
sS'rainiest'
p1843
I2
sS'things,'
p1844
I2
sS'mesmerized'
p1845
I1
sS'frown.'
p1846
I1
sS'could'
p1847
I130
sS'party."'
p1848
I1
sS'length'
p1849
I1
sS'distinguish'
p1850
I1
sS'latched'
p1851
I1
sS'lunchroom,'
p1852
I1
sS'there'
p1853
I43
sS'anyone,'
p1854
I1
sS'anyone.'
p1855
I1
sS'scene'
p1856
I2
sS'soothing'
p1857
I1
sS'blows'
p1858
I1
sS'scent'
p1859
I5
sS'have.'
p1860
I1
sS'interest,'
p1861
I1
sS'Ren\xe9e'
p1862
I11
sS'name?"'
p1863
I1
sS'Disneyland'
p1864
I1
sS'decorations'
p1865
I1
sS'behaved'
p1866
I1
sS'thick.'
p1867
I1
sS'back'
p1868
I63
sS'stomach'
p1869
I10
sS'blow.'
p1870
I1
sS'"Go'
p1871
I1
sS'perfect."'
p1872
I1
sS'steel'
p1873
I1
sS'later.'
p1874
I3
sS'Hale.'
p1875
I1
sS'blew'
p1876
I1
sS'wet'
p1877
I5
sS'bother'
p1878
I4
sS'reacted'
p1879
I2
sS'extraordinarily'
p1880
I1
sS'bouquets.'
p1881
I2
sS'Ren\xe9e!'
p1882
I2
sS'Ren\xe9e,'
p1883
I1
sS'dime,"'
p1884
I2
sS'gently'
p1885
I5
sS'bad-tempered'
p1886
I1
sS'reassuring'
p1887
I2
sS'tonight'
p1888
I1
sS'gentle'
p1889
I3
sS'scanned,'
p1890
I1
sS'clearly'
p1891
I13
sS'viewed'
p1892
I1
sS'necessities'
p1893
I1
sS'documents'
p1894
I1
sS'dishes'
p1895
I2
sS'studying'
p1896
I1
sS'awed'
p1897
I1
sS'Volturi."'
p1898
I1
sS'"Hi."'
p1899
I1
sS'claw,'
p1900
I1
sS'loving,'
p1901
I1
sS'petals'
p1902
I1
sS'courtesy'
p1903
I1
sS'Cold,'
p1904
I1
sS'lunch.'
p1905
I3
sS'lunch,'
p1906
I3
sS'device'
p1907
I1
sS'segment'
p1908
I1
sS'fervent'
p1909
I1
sS'stronger'
p1910
I1
sS'face'
p1911
I50
sS"you'll"
p1912
I6
sS'Spanish,'
p1913
I1
sS'Spanish.'
p1914
I1
sS'fact'
p1915
I9
sS'"Can'
p1916
I5
sS'exchange.'
p1917
I1
sS'stood.'
p1918
I1
sS'looks,'
p1919
I1
sS'bring'
p1920
I4
sS'bedroom'
p1921
I1
sS'luck,'
p1922
I2
sS'realized.'
p1923
I1
sS'rough'
p1924
I2
sS'trivial'
p1925
I1
sS'brink'
p1926
I1
sS'trying'
p1927
I25
sS'compromise\x97he'
p1928
I1
sS'fists.'
p1929
I1
sS'jaw'
p1930
I2
sS'jar'
p1931
I1
sS'should'
p1932
I25
sS'declared.'
p1933
I1
sS'jab'
p1934
I1
sS'smug,'
p1935
I1
sS'hope'
p1936
I8
sS'smug.'
p1937
I2
sS'meant'
p1938
I12
sS'Love.'
p1939
I1
sS'handle'
p1940
I5
sS'listened'
p1941
I3
sS'means'
p1942
I2
sS'familiar'
p1943
I6
sS'lucky'
p1944
I6
sS'Maybe,'
p1945
I1
sS'home,"'
p1946
I1
sS'Once'
p1947
I3
sS'symbols'
p1948
I1
sS'Because'
p1949
I3
sS'airways.'
p1950
I1
sS'tenuous,'
p1951
I1
sS'stuff'
p1952
I1
sS'rein'
p1953
I1
sS'are,'
p1954
I1
sS'guessing'
p1955
I3
sS'frame'
p1956
I1
sS'end?'
p1957
I1
sS'slanted'
p1958
I1
sS'once,'
p1959
I4
sS'once.'
p1960
I5
sS'(Only'
p1961
I1
sS'end,'
p1962
I2
sS'packed'
p1963
I1
sS'end.'
p1964
I3
sS'error'
p1965
I1
sS'stream.'
p1966
I1
sS'family,"'
p1967
I1
sS'paint."'
p1968
I1
sS'cloudless'
p1969
I1
sS'exactly,'
p1970
I2
sS'ends'
p1971
I1
sS'"Frozen'
p1972
I1
sS'grasp'
p1973
I2
sS'otherwise\x97and'
p1974
I1
sS'staring'
p1975
I13
sS'grass'
p1976
I1
sS'intervals.'
p1977
I1
sS'drug'
p1978
I1
sS'figures'
p1979
I1
sS'puff'
p1980
I1
sS'adjusted'
p1981
I1
sS'Would'
p1982
I1
sS'snowfall'
p1983
I1
sS'them\x97even'
p1984
I1
sS'pounced'
p1985
I1
sS'gave'
p1986
I9
sS'whispering'
p1987
I2
sS'recommended."'
p1988
I1
sS'glowered'
p1989
I1
sS'Get'
p1990
I1
sS'dazzling'
p1991
I1
sS'waste'
p1992
I1
sS'Unthinkingly,'
p1993
I1
sS'heels'
p1994
I1
sS'useful,"'
p1995
I1
sS'"Perfect,'
p1996
I1
sS'He,'
p1997
I1
sS'Mistake'
p1998
I1
sS'endearing,'
p1999
I1
sS'want."'
p2000
I4
sS'grinning'
p2001
I1
sS"Cullen's"
p2002
I3
sS'experienced,'
p2003
I1
sS'outside.'
p2004
I1
sS'experienced.'
p2005
I1
sS'outside,'
p2006
I1
sS'stuffing'
p2007
I1
sS'endured.\x85'
p2008
I1
sS'sad,'
p2009
I1
sS'surprisingly'
p2010
I1
sS'sad.'
p2011
I1
sS'cafeteria,'
p2012
I3
sS'excessively'
p2013
I1
sS'Chess'
p2014
I1
sS'churning.'
p2015
I1
sS'of.'
p2016
I2
sS'cry?"'
p2017
I1
sS'glaring'
p2018
I6
sS'planned'
p2019
I1
sS'conflicting'
p2020
I1
sS'snowing."'
p2021
I1
sS'ball'
p2022
I2
sS'upon'
p2023
I1
sS'lights,'
p2024
I1
sS'Jake'
p2025
I1
sS'wardrobe,'
p2026
I1
sS'afghan'
p2027
I1
sS'surreptitiously.'
p2028
I1
sS'off'
p2029
I28
sS'overcast'
p2030
I1
sS'apricot,'
p2031
I1
sS'kind."'
p2032
I1
sS'patterns'
p2033
I2
sS'doors,'
p2034
I2
sS'Calling,'
p2035
I1
sS'drawing'
p2036
I1
sS'Calling.'
p2037
I2
sS'summer,"'
p2038
I1
sS'returned,'
p2039
I1
sS'newest'
p2040
I1
sS'gelled'
p2041
I1
sS'less'
p2042
I8
sS'moments'
p2043
I1
sS'going.'
p2044
I1
sS'humor.'
p2045
I1
sS'whisper.'
p2046
I4
sS'whisper,'
p2047
I1
sS'glum'
p2048
I1
sS'rooms'
p2049
I1
sS'innocent,'
p2050
I1
sS'"Edward'
p2051
I1
sS'temples,'
p2052
I1
sS'deadbolt.'
p2053
I1
sS'chair.'
p2054
I1
sS'chair,'
p2055
I3
sS'serpentine'
p2056
I1
sS'wars\x97wars!'
p2057
I1
sS'excited,'
p2058
I1
sS'moment;'
p2059
I1
sS'Unfortunately'
p2060
I1
sS'room.'
p2061
I12
sS'room,'
p2062
I9
sS'whispers'
p2063
I3
sS'increases'
p2064
I1
sS'five'
p2065
I7
sS'moment.'
p2066
I4
sS'moment,'
p2067
I11
sS'room?'
p2068
I1
sS'Laughter.'
p2069
I1
sS'room:'
p2070
I1
sS'room;'
p2071
I1
sS'chairs\x97blushing'
p2072
I1
sS'militia\x97my'
p2073
I1
sS'inquisitive'
p2074
I1
sS'chairs'
p2075
I1
sS'shuddered'
p2076
I1
sS'tinted'
p2077
I1
sS'altogether,'
p2078
I1
sS'garage'
p2079
I1
sS'altogether.'
p2080
I1
sS'least.'
p2081
I3
sS'become'
p2082
I4
sS'everywhere.'
p2083
I1
sS'replacement'
p2084
I1
sS'briefly'
p2085
I2
sS'gossamer.'
p2086
I1
sS'immortal'
p2087
I5
sS'awakening\x97inside'
p2088
I1
sS"There's"
p2089
I3
sS'flush'
p2090
I1
sS'hissing'
p2091
I1
sS'Volterra'
p2092
I1
sS'"Blind'
p2093
I2
sS'avoid'
p2094
I4
sS'ground,'
p2095
I1
sS'shone'
p2096
I2
sS'does'
p2097
I9
sS'forgiven'
p2098
I1
sS'tourniquet.'
p2099
I1
sS'blowing'
p2100
I1
sS'schedule'
p2101
I1
sS'Inside'
p2102
I3
sS'pressure'
p2103
I4
sS'disappointed.'
p2104
I1
sS'plates,'
p2105
I1
sS'bitten.'
p2106
I1
sS'easily.'
p2107
I3
sS'breakable,'
p2108
I1
sS'easily,'
p2109
I2
sS'hiding'
p2110
I1
sS'gained'
p2111
I1
sS'sister'
p2112
I3
sS'Minute,"'
p2113
I1
sS"grandmother's"
p2114
I1
sS'managed.'
p2115
I1
sS'blackness'
p2116
I1
sS'hyperventilating.'
p2117
I1
sS'soulless.'
p2118
I1
sS'escape."'
p2119
I1
sS'flailing'
p2120
I1
sS'commitment'
p2121
I2
sS'getting'
p2122
I14
sS'screamed'
p2123
I1
sS'arms\x97'
p2124
I1
sS'ruse.'
p2125
I1
sS'startled'
p2126
I1
sS'place,'
p2127
I5
sS'place.'
p2128
I7
sS'worked.'
p2129
I3
sS'worked,'
p2130
I1
sS'function'
p2131
I1
sS"We'll"
p2132
I1
sS'road.'
p2133
I2
sS'out."'
p2134
I2
sS'Bella!"'
p2135
I4
sS'pixie'
p2136
I2
sS'neither.'
p2137
I1
sS'that\x97so'
p2138
I1
sS'long."'
p2139
I1
sS'vise,'
p2140
I1
sS'count'
p2141
I1
sS'evident'
p2142
I1
sS'official'
p2143
I2
sS'smooth'
p2144
I3
sS'triumphant'
p2145
I1
sS'excitement'
p2146
I1
sS'spot,'
p2147
I2
sS'spot.'
p2148
I1
sS'problem'
p2149
I3
sS'huffs.'
p2150
I1
sS'profusion'
p2151
I1
sS'Kate,'
p2152
I3
sS'tentatively.'
p2153
I1
sS'nurses'
p2154
I1
sS'recognize'
p2155
I4
sS'arms.'
p2156
I2
sS'us."'
p2157
I1
sS'say?"'
p2158
I1
sS'guy'
p2159
I1
sS'children),'
p2160
I1
sS'lately'
p2161
I1
sS'"I\'ve'
p2162
I2
sS'again.'
p2163
I28
sS'Lost'
p2164
I1
sS'so,"'
p2165
I1
sS'Clearly,'
p2166
I1
sS'in,'
p2167
I3
sS'chance'
p2168
I4
sS'nurse,'
p2169
I1
sS'CD'
p2170
I5
sS'lasted'
p2171
I1
sS'slumber,'
p2172
I1
sS'forest,'
p2173
I1
sS'lift'
p2174
I1
sS'searched'
p2175
I1
sS'soon?"'
p2176
I1
sS'"Why?"'
p2177
I1
sS'mansion'
p2178
I1
sS'party.'
p2179
I1
sS'melodramatic,'
p2180
I1
sS'"Wait.'
p2181
I1
sS'"Um,'
p2182
I4
sS'"Um.'
p2183
I1
sS'Seeking."'
p2184
I1
sS'blistering'
p2185
I1
sS'spikes,'
p2186
I1
sS'son,'
p2187
I1
sS'blanket'
p2188
I1
sS"driver's"
p2189
I1
sS'yanking'
p2190
I2
sS'propaganda'
p2191
I1
sS'tagging'
p2192
I1
sS'tickets'
p2193
I3
sS"we'll"
p2194
I2
sS'bewildered'
p2195
I1
sS'surgical'
p2196
I1
sS'math'
p2197
I1
sS'nondescript'
p2198
I1
sS'horror?"'
p2199
I1
sS'relationship,'
p2200
I1
sS'speck'
p2201
I1
sS'go."'
p2202
I1
sS'shut'
p2203
I2
sS'jolt,'
p2204
I1
sS'allowed,'
p2205
I1
sS'others,'
p2206
I1
sS'others.'
p2207
I2
sS'"Um\x85'
p2208
I1
sS'machines'
p2209
I1
sS'established'
p2210
I1
sS'Renee,'
p2211
I1
sS'near'
p2212
I2
sS'above'
p2213
I7
sS'officially'
p2214
I3
sS'told'
p2215
I28
sS'crunch'
p2216
I1
sS'gritted'
p2217
I1
sS'tempo'
p2218
I1
sS'"Who?"'
p2219
I1
sS'remarried'
p2220
I1
sS'protection'
p2221
I1
sS'pursuit'
p2222
I1
sS'celebration'
p2223
I1
sS'counter,'
p2224
I3
sS'balance'
p2225
I1
sS'daughter'
p2226
I1
sS'stressed'
p2227
I1
sS'mused,'
p2228
I2
sS'mused.'
p2229
I1
sS'over.'
p2230
I6
sS'Jasper\x97keeping'
p2231
I1
sS'highly'
p2232
I1
sS'times."'
p2233
I1
sS'sorry,"'
p2234
I2
sS'glance'
p2235
I4
sS'total'
p2236
I2
sS'convalescence;'
p2237
I1
sS'played'
p2238
I1
sS'chooses'
p2239
I1
sS'Stay'
p2240
I1
sS'sunny,'
p2241
I1
sS'potential.'
p2242
I1
sS'pierced'
p2243
I1
sS'Conner,'
p2244
I1
sS'chicken-and-rice'
p2245
I1
sS'cured'
p2246
I1
sS'tied.'
p2247
I1
sS'muttered,'
p2248
I3
sS'muttered.'
p2249
I5
sS'stammered,'
p2250
I1
sS'stammered.'
p2251
I1
sS'word'
p2252
I11
sS'wore'
p2253
I3
sS'player'
p2254
I1
sS'books.'
p2255
I1
sS'work'
p2256
I10
sS'refusing'
p2257
I1
sS'worn'
p2258
I1
sS'mood?"'
p2259
I1
sS'"I\'lltry."'
p2260
I1
sS'elbow'
p2261
I5
sS'dashing!"'
p2262
I1
sS'overboard.'
p2263
I1
sS'radiance'
p2264
I1
sS'indicated'
p2265
I1
sS'Plink,'
p2266
I1
sS'her?"'
p2267
I2
sS'Virtual'
p2268
I1
sS'Africa."'
p2269
I1
sS'bare.'
p2270
I1
sS'impassive'
p2271
I1
sS'verify'
p2272
I1
sS'far'
p2273
I18
sS'accepted.'
p2274
I1
sS'supermarket;'
p2275
I1
sS'ordinary'
p2276
I2
sS'beach'
p2277
I1
sS"else's."
p2278
I1
sS'pizza'
p2279
I1
sS'Renee'
p2280
I4
sS'weapons,'
p2281
I1
sS'after'
p2282
I27
sS'lab'
p2283
I3
sS'Ocean'
p2284
I1
sS'Will'
p2285
I2
sS'bared'
p2286
I1
sS'lay'
p2287
I4
sS'Wild'
p2288
I1
sS'workstation.'
p2289
I1
sS'lap'
p2290
I1
sS'mortality?'
p2291
I1
sS'appreciate'
p2292
I2
sS'(College'
p2293
I1
sS'green'
p2294
I4
sS'done."'
p2295
I2
sS'order'
p2296
I2
sS'fragrant,'
p2297
I1
sS'Emmett,"'
p2298
I1
sS'always."'
p2299
I1
sS'office'
p2300
I2
sS'showed.'
p2301
I1
sS'intoxicating,'
p2302
I1
sS'wished."'
p2303
I1
sS'exhale.'
p2304
I1
sS'and\x97by'
p2305
I1
sS'ears,'
p2306
I1
sS'ears.'
p2307
I4
sS'choices,'
p2308
I1
sS'exhibition,'
p2309
I1
sS'somewhere'
p2310
I5
sS"What's"
p2311
I3
sS'rock,'
p2312
I1
sS'background.'
p2313
I2
sS'rock.'
p2314
I1
sS'Hissed,'
p2315
I1
sS'enough."'
p2316
I1
sS'then'
p2317
I62
sS'them'
p2318
I49
sS'safe'
p2319
I2
sS'break'
p2320
I5
sS'young,'
p2321
I1
sS'better."'
p2322
I1
sS'they'
p2323
I77
sS'"H-how'
p2324
I1
sS'exhaled'
p2325
I3
sS'rocky'
p2326
I1
sS'reasonably'
p2327
I1
sS'Irina'
p2328
I2
sS'I\x97I'
p2329
I1
sS'flyers'
p2330
I1
sS'hostage\x97or'
p2331
I1
sS'goodness,'
p2332
I2
sS'lifted'
p2333
I4
sS'tan."'
p2334
I1
sS'Aside'
p2335
I1
sS'admit,'
p2336
I1
sS'hosted'
p2337
I1
sS'short.'
p2338
I1
sS'"All'
p2339
I3
sS'starts.'
p2340
I1
sS'the\x85'
p2341
I3
sS'hooked'
p2342
I1
sS'understatement.'
p2343
I1
sS'upstairs."'
p2344
I1
sS'forth'
p2345
I1
sS'carry.'
p2346
I1
sS'leftovers'
p2347
I1
sS'mulled'
p2348
I1
sS'already."'
p2349
I1
sS"people's"
p2350
I1
sS'year."'
p2351
I1
sS'recovering'
p2352
I1
sS'created'
p2353
I4
sS'September'
p2354
I1
sS'creates'
p2355
I1
sS'flawless'
p2356
I2
sS'delved'
p2357
I2
sS'sprint.'
p2358
I1
sS'droned'
p2359
I2
sS'yourself,"'
p2360
I1
sS'poofy'
p2361
I1
sS'another'
p2362
I18
sS'thick'
p2363
I6
sS'Ren\xe9e.'
p2364
I3
sS"he'll"
p2365
I2
sS'compromise'
p2366
I3
sS'observations'
p2367
I1
sS'airy'
p2368
I1
sS'unison.'
p2369
I1
sS'flamethrower'
p2370
I1
sS'offhand'
p2371
I1
sS'happily'
p2372
I4
sS'rejected'
p2373
I1
sS'cereal'
p2374
I1
sS'wasted'
p2375
I3
sS'"Whether'
p2376
I1
sS'hears.'
p2377
I1
sS'dog,'
p2378
I1
sS'target'
p2379
I1
sS'hike'
p2380
I1
sS'air,'
p2381
I1
sS'air.'
p2382
I2
sS'See'
p2383
I1
sS'iron'
p2384
I2
sS"Romeo's"
p2385
I1
sS'manned'
p2386
I1
sS'swallowed.'
p2387
I1
sS'shy,'
p2388
I1
sS'money\x97I'
p2389
I1
sS'Instead'
p2390
I2
sS'access?'
p2391
I1
sS'forced'
p2392
I3
sS'quieter'
p2393
I2
sS'embellishments.'
p2394
I1
sS'on?"'
p2395
I2
sS'stern,'
p2396
I1
sS'I\x97sat'
p2397
I1
sS'devastatingly,'
p2398
I1
sS'circles'
p2399
I1
sS'Despair'
p2400
I1
sS'TV."'
p2401
I1
sS'basilisk'
p2402
I1
sS'"Same'
p2403
I1
sS'neighborhoods'
p2404
I1
sS'standard.As'
p2405
I1
sS'force.'
p2406
I1
sS'subject.'
p2407
I3
sS'swamp'
p2408
I1
sS'Carlisle,"'
p2409
I1
sS'aunt'
p2410
I1
sS'deeply'
p2411
I2
sS'responded'
p2412
I1
sS'dredged'
p2413
I1
sS'unpleasantness,"'
p2414
I1
sS'subtly'
p2415
I1
sS'incense'
p2416
I1
sS'mirror\x97afraid'
p2417
I1
sS'gore.'
p2418
I1
sS'subtle'
p2419
I1
sS'enjoyed'
p2420
I2
sS'depth'
p2421
I1
sS'now."'
p2422
I1
sS'sewn'
p2423
I2
sS'gear.'
p2424
I1
sS'trilled'
p2425
I1
sS'recovered,"'
p2426
I1
sS'roses.'
p2427
I1
sS'deepest'
p2428
I1
sS'roses,'
p2429
I2
sS'wizened'
p2430
I1
sS'run,'
p2431
I1
sS'sews'
p2432
I1
sS'personality'
p2433
I2
sS'wordChicago,'
p2434
I1
sS'do'
p2435
I55
sS'"Ch'
p2436
I1
sS'preferred'
p2437
I2
sS'them."'
p2438
I5
sS'empty.'
p2439
I3
sS'happiest'
p2440
I2
sS'headlong'
p2441
I1
sS'runs'
p2442
I1
sS'apparently,'
p2443
I1
sS'apparently.'
p2444
I1
sS'exchanged'
p2445
I2
sS'unmet'
p2446
I1
sS'steak'
p2447
I2
sS'steal'
p2448
I2
sS'package,'
p2449
I1
sS'work,"'
p2450
I1
sS'"Take'
p2451
I3
sS'offended.'
p2452
I1
sS'observed'
p2453
I1
sS'facts'
p2454
I1
sS'depends'
p2455
I1
sS'miserable'
p2456
I1
sS'optimum'
p2457
I1
sS'disappear.'
p2458
I1
sS'because,'
p2459
I1
sS'away'
p2460
I34
sS'receive.'
p2461
I1
sS'caught.'
p2462
I1
sS'disappear?'
p2463
I1
sS'unable'
p2464
I3
sS'drawn'
p2465
I2
sS'we'
p2466
I59
sS'loose'
p2467
I1
sS'terms'
p2468
I1
sS'grounds.'
p2469
I1
sS"year's."
p2470
I1
sS'kitchen'
p2471
I6
sS'engaged\x97"things'
p2472
I2
sS'received'
p2473
I1
sS'shield,'
p2474
I1
sS'encounter,'
p2475
I1
sS'cave,'
p2476
I1
sS'"Sure,"'
p2477
I1
sS'gradually,'
p2478
I1
sS'obsolete,'
p2479
I1
sS'Bring'
p2480
I1
sS'gasped'
p2481
I4
sS'requests'
p2482
I1
sS'disappears'
p2483
I1
sS'school,"'
p2484
I1
sS'go,"'
p2485
I1
sS'tone'
p2486
I8
sS'excess'
p2487
I1
sS'oblivious'
p2488
I1
sS'refill'
p2489
I1
sS'speak'
p2490
I6
sS'gratitude'
p2491
I2
sS'Romeo?"'
p2492
I1
sS"I've"
p2493
I17
sS'crowd.'
p2494
I1
sS'way."'
p2495
I3
sS'glares.'
p2496
I1
sS'dozens'
p2497
I1
sS'rasp.'
p2498
I1
sS'happily.'
p2499
I1
sS'wide.'
p2500
I2
sS'easy'
p2501
I8
sS'wide,'
p2502
I1
sS'attacked'
p2503
I1
sS'tidy'
p2504
I1
sS"'Happy"
p2505
I1
sS'applied'
p2506
I4
sS'east'
p2507
I1
sS'plans.'
p2508
I1
sS'plans,'
p2509
I1
sS'air'
p2510
I8
sS'spotted.'
p2511
I1
sS'engine,'
p2512
I1
sS'planners.'
p2513
I1
sS'voice'
p2514
I39
sS'cylinder'
p2515
I2
sS'faith.'
p2516
I1
sS'faith,'
p2517
I1
sS'dumped'
p2518
I1
sS'girls,'
p2519
I1
sS'dizzy'
p2520
I1
sS'succeeding."'
p2521
I1
sS"girls'"
p2522
I2
sS'traffic.'
p2523
I1
sS'"Please'
p2524
I2
sS'perform'
p2525
I1
sS'seventy-five'
p2526
I1
sS'tomorrow\x85'
p2527
I1
sS'descend'
p2528
I1
sS'plates'
p2529
I1
sS'ganged'
p2530
I1
sS'swell'
p2531
I2
sS'hang'
p2532
I1
sS'expected;'
p2533
I1
sS'rain'
p2534
I10
sS'hand'
p2535
I51
sS'cue.'
p2536
I1
sS'kept'
p2537
I28
sS'soak'
p2538
I1
sS'cryotank,'
p2539
I1
sS'cryotank.'
p2540
I1
sS'ragged'
p2541
I1
sS'healed.'
p2542
I1
sS'Me\x97ancient,'
p2543
I1
sS'musical'
p2544
I1
sS"she'll"
p2545
I2
sS'species."'
p2546
I1
sS'cap,'
p2547
I1
sS'thanks'
p2548
I3
sS'victim'
p2549
I2
sS'trilling'
p2550
I1
sS'adding'
p2551
I1
sS'heart-shaped'
p2552
I1
sS'"Listen'
p2553
I1
sS'help'
p2554
I11
sS'spread'
p2555
I1
sS'transformed'
p2556
I1
sS'tired;'
p2557
I1
sS"weren'talways"
p2558
I1
sS'hunted.'
p2559
I1
sS'teeth\x97and'
p2560
I1
sS'males.'
p2561
I1
sS'Swan,'
p2562
I1
sS'Swan.'
p2563
I2
sS'Alice'
p2564
I53
sS'"Quiet,'
p2565
I1
sS'o\'clock,"'
p2566
I1
sS'Finally,'
p2567
I1
sS'opening.'
p2568
I1
sS'glitch'
p2569
I1
sS'cooler'
p2570
I2
sS'grizzly'
p2571
I1
sS'lapsed'
p2572
I1
sS'evidence.'
p2573
I1
sS'night'
p2574
I10
sS'antique'
p2575
I1
sS'warily'
p2576
I1
sS'bricks.'
p2577
I1
sS'honored'
p2578
I1
sS'lashes'
p2579
I1
sS'"You\'re'
p2580
I14
sS'beautiful,"'
p2581
I1
sS'born'
p2582
I1
sS'gawked'
p2583
I2
sS'confusing'
p2584
I1
sS'tonight,'
p2585
I2
sS'tonight.'
p2586
I3
sS'humor'
p2587
I1
sS'purple'
p2588
I2
sS'comments'
p2589
I1
sS'uncomfortable.'
p2590
I3
sS'uncomfortable,'
p2591
I1
sS'Let'
p2592
I1
sS'denied'
p2593
I1
sS'adorable'
p2594
I1
sS'School'
p2595
I3
sS'family\x97both'
p2596
I1
sS'Gran'
p2597
I4
sS'peer'
p2598
I1
sS'post'
p2599
I1
sS'ever\x97were'
p2600
I1
sS'months'
p2601
I3
sS'reasonable."'
p2602
I1
sS'yet."'
p2603
I1
sS'Cut'
p2604
I1
sS'snow;'
p2605
I1
sS'Make'
p2606
I2
sS'float'
p2607
I1
sS'garage.'
p2608
I2
sS'bound'
p2609
I2
sS'snow.'
p2610
I1
sS'cry.'
p2611
I1
sS'analysis.'
p2612
I1
sS'balanced'
p2613
I1
sS'tint,'
p2614
I1
sS'cry!'
p2615
I1
sS'strangely'
p2616
I2
sS'familiar,'
p2617
I1
sS'"Any'
p2618
I1
sS'fight'
p2619
I2
sS'why.'
p2620
I1
sS'"And'
p2621
I9
sS'Winslow,'
p2622
I1
sS'way'
p2623
I38
sS'him."'
p2624
I1
sS'was'
p2625
I767
sS'war'
p2626
I1
sS'nozzle'
p2627
I2
sS'planning.'
p2628
I1
sS'snowy'
p2629
I1
sS'arm?"'
p2630
I1
sS'Inside,'
p2631
I1
sS'taken'
p2632
I7
sS'balance.'
p2633
I1
sS'same.'
p2634
I1
sS'same,'
p2635
I1
sS'true'
p2636
I3
sS'throw'
p2637
I3
sS'braver'
p2638
I1
sS'impatience.'
p2639
I1
sS'braved'
p2640
I1
sS'crystal'
p2641
I3
sS'unusually'
p2642
I1
sS'paranoid.'
p2643
I1
sS'curious,'
p2644
I1
sS'promises'
p2645
I1
sS'medication'
p2646
I1
sS'Some'
p2647
I1
sS'muscular'
p2648
I1
sS'evidence'
p2649
I1
sS'guessed'
p2650
I2
sS'promised'
p2651
I3
sS'brother.'
p2652
I2
sS'brother,'
p2653
I1
sS'physical'
p2654
I1
sS'"adopted"'
p2655
I1
sS'dying'
p2656
I1
sS'grasp,'
p2657
I1
sS'growled\x97a'
p2658
I1
sS'correct."'
p2659
I1
sS'bed,'
p2660
I4
sS'interested'
p2661
I1
sS'pace.'
p2662
I1
sS'holding'
p2663
I5
sS'staggered,'
p2664
I1
sS'unwilling'
p2665
I1
sS'"Fitting,"'
p2666
I1
sS'brothers'
p2667
I2
sS'nice-looking."'
p2668
I1
sS'welcome'
p2669
I1
sS'convincing'
p2670
I1
sS'polite'
p2671
I1
sS'table,"'
p2672
I1
sS'"Bells,'
p2673
I1
sS'lions,'
p2674
I1
sS'promise.'
p2675
I1
sS'cheated'
p2676
I1
sS'alertly'
p2677
I1
sS'normally'
p2678
I1
sS'together'
p2679
I14
sS'Obviously,'
p2680
I1
sS'Obviously.'
p2681
I1
sS'necessitated'
p2682
I1
sS'tablecloth.'
p2683
I1
sS'concept'
p2684
I3
sS'vampires'
p2685
I8
sS'switched'
p2686
I2
sS'dance'
p2687
I2
sS'indicating'
p2688
I1
sS'supplement'
p2689
I1
sS'grateful'
p2690
I3
sS'spartan'
p2691
I1
sS'certainly'
p2692
I1
sS'flash'
p2693
I1
sS'agony,'
p2694
I1
sS'uneventful.'
p2695
I1
sS'turn.'
p2696
I1
sS'rhythm'
p2697
I1
sS'terror'
p2698
I1
sS'donned'
p2699
I1
sS'brown'
p2700
I6
sS'rectangle,'
p2701
I1
sS'vampire.'
p2702
I2
sS'trouble'
p2703
I2
sS"soul's"
p2704
I1
sS'evaded'
p2705
I1
sS'Just'
p2706
I9
sS'turns'
p2707
I2
sS'us\x97Edward,'
p2708
I1
sS'gun'
p2709
I3
sS'hover.'
p2710
I1
sS'heroes."'
p2711
I1
sS'regret'
p2712
I1
sS'full-grown'
p2713
I1
sS'back?"'
p2714
I1
sS'mean,'
p2715
I3
sS'scarcity'
p2716
I1
sS'Finding'
p2717
I1
sS'mean.'
p2718
I4
sS'snipers'
p2719
I1
sS'appear'
p2720
I1
sS'repeated.'
p2721
I2
sS'Imagine'
p2722
I1
sS'During'
p2723
I2
sS'appeal'
p2724
I1
sS'sallower,'
p2725
I1
sS'"At'
p2726
I2
sS'pause'
p2727
I2
sS'obsessing'
p2728
I1
sS'English'
p2729
I2
sS'"An'
p2730
I1
sS'please."'
p2731
I1
sS'"Am'
p2732
I1
sS'teacher'
p2733
I4
sS'change'
p2734
I7
sS'right?"'
p2735
I3
sS'twenty-seven'
p2736
I1
sS'Seth,'
p2737
I1
sS'"Ten'
p2738
I1
sS'usually'
p2739
I7
sS'chimed.'
p2740
I1
sS'making.That'
p2741
I1
sS'fleetingly,'
p2742
I1
sS'pillow'
p2743
I1
sS'homecoming'
p2744
I1
sS'felt.'
p2745
I1
sS'work."'
p2746
I2
sS'marked'
p2747
I1
sS'midstride.'
p2748
I1
sS'market'
p2749
I1
sS'prove'
p2750
I2
sS'you."'
p2751
I10
sS'incident.'
p2752
I1
sS'incident,'
p2753
I1
sS'live'
p2754
I10
sS'Pity'
p2755
I2
sS'"Hi,'
p2756
I1
sS'entrance'
p2757
I1
sS'club'
p2758
I1
sS'sting,'
p2759
I1
sS'"Wait'
p2760
I1
sS'memory\x85'
p2761
I1
sS'soft;'
p2762
I1
sS'wondering,'
p2763
I1
sS'angel.'
p2764
I1
sS'big?'
p2765
I1
sS'cute,'
p2766
I1
sS'car'
p2767
I22
sS'cap'
p2768
I1
sS'labeled'
p2769
I1
sS'can'
p2770
I32
sS'big,'
p2771
I5
sS'cab'
p2772
I1
sS'Throughout'
p2773
I2
sS'heart'
p2774
I8
sS'Newton,"'
p2775
I1
sS'hears'
p2776
I1
sS'chip'
p2777
I1
sS"didn't"
p2778
I98
sS'habitations.'
p2779
I1
sS'hungry?"'
p2780
I1
sS'heard'
p2781
I21
sS'chin'
p2782
I2
sS'occur'
p2783
I1
sS'discussion'
p2784
I1
sS'exceptional'
p2785
I1
sS'uncontrollable.'
p2786
I1
sS'future.'
p2787
I2
sS'nose.'
p2788
I4
sS'wandering,'
p2789
I1
sS'product'
p2790
I1
sS'staircase'
p2791
I1
sS'sacrifice'
p2792
I2
sS'southern'
p2793
I2
sS'fortune.'
p2794
I1
sS'pause.'
p2795
I2
sS'hear.'
p2796
I1
sS'lifting'
p2797
I1
sS'qualms\x97but'
p2798
I1
sS'disposition;'
p2799
I1
sS'remember'
p2800
I10
sS'Storytelling'
p2801
I1
sS'relieved.'
p2802
I1
sS'whenever'
p2803
I4
sS'candles'
p2804
I1
sS'memory?'
p2805
I1
sS'warm,'
p2806
I1
sS'tripped.'
p2807
I1
sS'crept'
p2808
I1
sS'memory,'
p2809
I4
sS'memory.'
p2810
I5
sS'Guardian?"'
p2811
I1
sS'typical'
p2812
I1
sS'no,'
p2813
I1
sS'no.'
p2814
I2
sS'serving'
p2815
I1
sS'Dad,'
p2816
I3
sS'cheap?"'
p2817
I1
sS'slack,'
p2818
I1
sS'bandage?'
p2819
I1
sS'playful'
p2820
I1
sS'brain'
p2821
I4
sS'thinner'
p2822
I1
sS'Intensity.'
p2823
I1
sS'cold'
p2824
I7
sS'vocation'
p2825
I1
sS'Florida,'
p2826
I1
sS'physically,'
p2827
I1
sS'curly'
p2828
I2
sS'birthdays'
p2829
I2
sS'curls'
p2830
I2
sS'chuckle.'
p2831
I1
sS'window'
p2832
I7
sS'exaggerating;'
p2833
I1
sS'explains.'
p2834
I1
sS'worst?'
p2835
I1
sS'halt'
p2836
I1
sS'introduce'
p2837
I4
sS'adrenaline'
p2838
I1
sS'half'
p2839
I7
sS'not'
p2840
I176
sS'now'
p2841
I20
sS'illumination.'
p2842
I1
sS'hall'
p2843
I1
sS'nor'
p2844
I3
sS'streaks'
p2845
I1
sS'chuckled'
p2846
I2
sS'drop'
p2847
I1
sS'form.'
p2848
I1
sS"human's"
p2849
I1
sS'outrageously'
p2850
I1
sS'birthday,'
p2851
I7
sS'birthday.'
p2852
I4
sS'Skin'
p2853
I1
sS'entirely'
p2854
I8
sS'unloaded'
p2855
I1
sS'car?'
p2856
I1
sS'at?"'
p2857
I1
sS'advantage.'
p2858
I1
sS'Except'
p2859
I1
sS'hurried'
p2860
I6
sS'goose'
p2861
I2
sS'car.'
p2862
I6
sS'car,'
p2863
I5
sS'year'
p2864
I4
sS'happen'
p2865
I6
sS'calling'
p2866
I2
sS'shoots'
p2867
I1
sS'perfect,"'
p2868
I1
sS'could.'
p2869
I2
sS'space'
p2870
I1
sS'thirst'
p2871
I1
sS'hastily'
p2872
I1
sS'looking'
p2873
I25
sS'goodnight.'
p2874
I1
sS'receiving'
p2875
I1
sS'"What?"'
p2876
I2
sS'shows'
p2877
I2
sS'cars'
p2878
I4
sS'"Insertion'
p2879
I1
sS'fire,'
p2880
I1
sS'diagnostic'
p2881
I1
sS'Austen'
p2882
I1
sS'grimacing'
p2883
I1
sS'unwanted'
p2884
I1
sS'rebel'
p2885
I2
sS'obligation'
p2886
I1
sS'ominous'
p2887
I1
sS'inevitable'
p2888
I1
sS'card'
p2889
I2
sS'care'
p2890
I5
sS'Blind'
p2891
I1
sS'tear-streaked'
p2892
I1
sS'vehemently'
p2893
I1
sS'tangled'
p2894
I2
sS'please?"'
p2895
I1
sS'perfection,'
p2896
I1
sS'iron.'
p2897
I1
sS'blind'
p2898
I2
sS'benefited'
p2899
I1
sS'fibers,'
p2900
I1
sS'There'
p2901
I40
sS'yourself'
p2902
I3
sS'brain,'
p2903
I1
sS'impossible'
p2904
I5
sS'ring'
p2905
I3
sS'drove'
p2906
I7
sS'tomorrow'
p2907
I2
sS'size'
p2908
I2
sS'friend.'
p2909
I1
sS'prepared,'
p2910
I1
sS'checked'
p2911
I1
sS'silent'
p2912
I5
sS'caught'
p2913
I8
sS'lightened'
p2914
I2
sS'blood,"'
p2915
I1
sS'friend'
p2916
I5
sS'Eve.'
p2917
I1
sS'lobbing'
p2918
I1
sS'thaw'
p2919
I1
sS'yet,"'
p2920
I1
sS'mostly'
p2921
I3
sS'that'
p2922
I392
sS'violence.'
p2923
I1
sS'pots,'
p2924
I1
sS'Swan?"'
p2925
I1
sS'short'
p2926
I4
sS'occupation.'
p2927
I1
sS'flowers'
p2928
I2
sS'than'
p2929
I89
sS'scalpel'
p2930
I2
sS'accessed'
p2931
I1
sS'turn,"'
p2932
I1
sS'"Welcome'
p2933
I1
sS'troublesome'
p2934
I1
sS'him,"'
p2935
I1
sS'uneven.'
p2936
I1
sS'remained'
p2937
I2
sS'those."'
p2938
I1
sS'distorted'
p2939
I1
sS'anger'
p2940
I3
sS'breakfast'
p2941
I1
sS'Valley'
p2942
I1
sS'armed,'
p2943
I1
sS'whispery'
p2944
I1
sS'grinned,'
p2945
I1
sS'describing.'
p2946
I1
sS'tactful;'
p2947
I1
sS'online'
p2948
I1
sS'swelled'
p2949
I1
sS'choked.'
p2950
I1
sS'cheeks,'
p2951
I1
sS'begin'
p2952
I3
sS'Unlike'
p2953
I1
sS'neatly'
p2954
I1
sS'wire'
p2955
I1
sS'so.'
p2956
I1
sS'impossible.'
p2957
I3
sS'Childhood'
p2958
I1
sS'impossible,'
p2959
I1
sS'forever'
p2960
I4
sS'sprinting'
p2961
I1
sS'shared?"'
p2962
I1
sS'sunset'
p2963
I1
sS'figure.'
p2964
I1
sS'"Jared,"'
p2965
I1
sS'rambling'
p2966
I1
sS'anyone."'
p2967
I1
sS'remote.'
p2968
I1
sS'discovered'
p2969
I1
sS'while;'
p2970
I1
sS'fifth'
p2971
I4
sS'ground'
p2972
I1
sS'invited,'
p2973
I1
sS'stained'
p2974
I1
sS'only'
p2975
I73
sS'for\x97or,'
p2976
I1
sS'shrill'
p2977
I1
sS'hall.'
p2978
I2
sS'truly'
p2979
I2
sS'cannot'
p2980
I1
sS'windshield,'
p2981
I1
sS'instincts."'
p2982
I1
sS'revulsion'
p2983
I1
sS'appreciatively'
p2984
I1
sS'leather'
p2985
I1
sS'keyed'
p2986
I1
sS'friends,'
p2987
I5
sS'Q-tips."'
p2988
I1
sS'husband'
p2989
I3
sS'gleamed'
p2990
I1
sS'again!"'
p2991
I1
sS'human\x97I'
p2992
I1
sS'burst'
p2993
I2
sS'physically'
p2994
I2
sS'attached'
p2995
I1
sS'eaves,'
p2996
I1
sS'fanned'
p2997
I1
sS'anchored'
p2998
I1
sS'asleep'
p2999
I3
sS'tousled'
p3000
I2
sS'this."'
p3001
I3
sS'dreadful.'
p3002
I1
sS'concern'
p3003
I1
sS'come,'
p3004
I1
sS'wheel.'
p3005
I1
sS'much?"'
p3006
I1
sS'ways\x97either'
p3007
I1
sS'wonderful!"'
p3008
I1
sS'one-handed,'
p3009
I1
sS'between'
p3010
I12
sS'worrying.'
p3011
I1
sS'stupid!'
p3012
I1
sS'tiles,'
p3013
I1
sS'notice'
p3014
I5
sS'stretching,'
p3015
I1
sS'groaned.'
p3016
I1
sS'coordinationally'
p3017
I1
sS'blame'
p3018
I1
sS'vampire."'
p3019
I1
sS'friends\x85'
p3020
I1
sS'hands\x97made'
p3021
I1
sS'pleads.'
p3022
I1
sS'But,'
p3023
I5
sS'fought,'
p3024
I1
sS'comes'
p3025
I2
sS'invitingly'
p3026
I1
sS'hostile,'
p3027
I1
sS'jeans'
p3028
I1
sS'bound?"'
p3029
I1
sS'wound,'
p3030
I1
sS'four,'
p3031
I1
sS"couldn't"
p3032
I49
sS'four.'
p3033
I1
sS'actually'
p3034
I2
sS'muttered'
p3035
I4
sS'Pain'
p3036
I1
sS'cares'
p3037
I1
sS'informed'
p3038
I3
sS'Melanie'
p3039
I1
sS'punished'
p3040
I1
sS'wheezing'
p3041
I1
sS'taken.'
p3042
I1
sS'"Or'
p3043
I1
sS'"Oh'
p3044
I2
sS'"On'
p3045
I1
sS'quick'
p3046
I1
sS'please,"'
p3047
I2
sS'"Of'
p3048
I11
sS'prehistoric'
p3049
I1
sS'danger!'
p3050
I1
sS'School,'
p3051
I1
sS'these'
p3052
I10
sS'"Keep'
p3053
I1
sS'Volvo,'
p3054
I2
sS'welcome."'
p3055
I1
sS'Volvo.'
p3056
I1
sS"clock's"
p3057
I1
sS'care,'
p3058
I1
sS'care.'
p3059
I1
sS'carrots.'
p3060
I1
sS'one-armed'
p3061
I1
sS'post-breakup'
p3062
I1
sS'"This'
p3063
I10
sS'embrace'
p3064
I1
sS'reunion.'
p3065
I1
sS'When\x85'
p3066
I1
sS"Newton's"
p3067
I1
sS'"How'
p3068
I16
sS'alone?"'
p3069
I2
sS'worry'
p3070
I6
sS'develop'
p3071
I1
sS'you,"'
p3072
I3
sS'charge.'
p3073
I1
sS'trap.'
p3074
I1
sS'document'
p3075
I1
sS"They're"
p3076
I5
sS'finish'
p3077
I1
sS'closest'
p3078
I2
sS'enjoyment'
p3079
I1
sS'arctic'
p3080
I1
sS'Trigonometry'
p3081
I1
sS'mentally'
p3082
I1
sS'enchanting'
p3083
I1
sS'studied.'
p3084
I1
sS'lit,'
p3085
I1
sS'severe'
p3086
I1
sS'alleviate'
p3087
I1
sS'otherwise'
p3088
I1
sS'all\x97around'
p3089
I1
sS'"Good'
p3090
I3
sS"You're"
p3091
I8
sS'am,'
p3092
I2
sS'am.'
p3093
I2
sS'neon'
p3094
I1
sS'bronze-haired'
p3095
I1
sS'actually,'
p3096
I1
sS'foot'
p3097
I3
sS'civilized'
p3098
I1
sS'growled'
p3099
I1
sS'rule.'
p3100
I2
sS'rule,'
p3101
I1
sS'touch'
p3102
I6
sS'Might'
p3103
I1
sS'often,"'
p3104
I1
sS'death'
p3105
I5
sS'"Us?"'
p3106
I1
sS'Her'
p3107
I15
sS'ago,"'
p3108
I1
sS'rekindled.'
p3109
I1
sS'mirrored'
p3110
I2
sS'either.'
p3111
I3
sS'either,'
p3112
I2
sS'struck'
p3113
I2
sS'real'
p3114
I7
sS'propped'
p3115
I1
sS'frown'
p3116
I1
sS'read'
p3117
I4
sS'stung'
p3118
I1
sS'Guilty'
p3119
I1
sS'early'
p3120
I10
sS"Eric's"
p3121
I1
sS'politely'
p3122
I1
sS'using'
p3123
I3
sS'lid?"'
p3124
I1
sS'pounds'
p3125
I3
sS'"seen"'
p3126
I1
sS'them\x97like'
p3127
I1
sS'miracle'
p3128
I1
sS'trailed'
p3129
I1
sS'bleach'
p3130
I1
sS'Before'
p3131
I3
sS'trying."'
p3132
I2
sS'verbal'
p3133
I1
sS'exposed'
p3134
I2
sS'limits,'
p3135
I1
sS'"Yeah.'
p3136
I2
sS'soothingly.'
p3137
I1
sS'Strange,'
p3138
I1
sS'squirm'
p3139
I2
sS'conservative'
p3140
I1
sS'crying.'
p3141
I2
sS'business'
p3142
I1
sS'strained'
p3143
I3
sS'flinched'
p3144
I3
sS'tuition'
p3145
I1
sS'Chevy."'
p3146
I1
sS'leftover'
p3147
I1
sS'exciting'
p3148
I1
sS'narrowly,'
p3149
I1
sS'comparison'
p3150
I1
sS'pleased.'
p3151
I1
sS'Sorry."'
p3152
I2
sS'scolding.'
p3153
I1
sS"it's"
p3154
I27
sS'pleased;'
p3155
I1
sS'toned.'
p3156
I1
sS'Phoenix.'
p3157
I1
sS'Phoenix,'
p3158
I4
sS'soon-to-be'
p3159
I1
sS'boxy,'
p3160
I1
sS'shrinking'
p3161
I1
sS'your'
p3162
I82
sS'stare'
p3163
I8
sS'stuttered'
p3164
I2
sS'"Get'
p3165
I4
sS'hissed,'
p3166
I1
sS'prepare'
p3167
I2
sS'area'
p3168
I1
sS'assumed'
p3169
I2
sS'tone.'
p3170
I3
sS'posture,'
p3171
I1
sS'like?"'
p3172
I1
sS'start'
p3173
I5
sS'roses."'
p3174
I1
sS'low'
p3175
I4
sS'lot'
p3176
I17
sS'flames.'
p3177
I1
sS'politeness'
p3178
I1
sS'Wanderer,"'
p3179
I2
sS'you.'
p3180
I12
sS'convenient\x97that'
p3181
I1
sS'you,'
p3182
I14
sS'you"'
p3183
I1
sS'you!'
p3184
I1
sS'you?'
p3185
I3
sS'fine\x97the'
p3186
I1
sS'so\x85'
p3187
I1
sS'protest,'
p3188
I1
sS"species'"
p3189
I1
sS'species.'
p3190
I1
sS'harnessed.'
p3191
I1
sS'species,'
p3192
I1
sS'guy."'
p3193
I1
sS'assume?'
p3194
I2
sS'tones'
p3195
I1
sS'canteen.'
p3196
I1
sS'unanimous:'
p3197
I1
sS'momentarily'
p3198
I1
sS'"Bell?"'
p3199
I1
sS'describe'
p3200
I2
sS'moved'
p3201
I6
sS'scanned'
p3202
I1
sS'recommendation."'
p3203
I1
sS'yon'
p3204
I1
sS'unwelcome'
p3205
I2
sS'cabinets'
p3206
I1
sS'perfect\x97as'
p3207
I1
sS'fifty-five'
p3208
I1
sS'insertion.'
p3209
I1
sS'you'
p3210
I251
sS'forcing'
p3211
I1
sS'Las'
p3212
I1
sS'poor'
p3213
I2
sS'hospital.'
p3214
I1
sS'are\x85'
p3215
I1
sS'move,'
p3216
I1
sS'move.'
p3217
I1
sS'drift'
p3218
I2
sS'flattened'
p3219
I1
sS'self-inflicted,"'
p3220
I1
sS'suited'
p3221
I1
sS'building'
p3222
I9
sS'evening.'
p3223
I1
sS'from?"'
p3224
I1
sS'surrounded'
p3225
I4
sS'pointing'
p3226
I1
sS'month'
p3227
I1
sS'tonight,"'
p3228
I1
sS'thoughtful'
p3229
I1
sS'soul\x97had'
p3230
I1
sS'pictures.'
p3231
I2
sS'bruises.'
p3232
I1
sS'meant,'
p3233
I1
sS'meant.'
p3234
I1
sS'foster'
p3235
I2
sS'moist,'
p3236
I1
sS'then?"'
p3237
I1
sS'very'
p3238
I50
sS'horror'
p3239
I6
sS"I'd"
p3240
I92
sS'decide'
p3241
I2
sS'tomorrow.'
p3242
I1
sS"I'm"
p3243
I53
sS'securely'
p3244
I3
sS'heaven'
p3245
I2
sS'"Knew'
p3246
I2
sS'sedation'
p3247
I2
sS'Breakfast'
p3248
I1
sS'fence'
p3249
I1
sS'outside;'
p3250
I1
sS'streets'
p3251
I2
sS'disapproval.'
p3252
I1
sS'answer,'
p3253
I2
sS'answer.'
p3254
I10
sS'covens,'
p3255
I1
sS'casual'
p3256
I2
sS'him?'
p3257
I1
sS'darkness'
p3258
I3
sS'scorching'
p3259
I1
sS'emotions'
p3260
I3
sS'him.'
p3261
I32
sS'him,'
p3262
I19
sS'anybody\x85'
p3263
I1
sS'apologized'
p3264
I1
sS'learned'
p3265
I1
sS'older,"'
p3266
I1
sS'trauma,'
p3267
I1
sS'trauma.'
p3268
I1
sS'excitement,'
p3269
I1
sS'excitement.'
p3270
I2
sS'answers'
p3271
I3
sS'holy!"'
p3272
I1
sS'louder.'
p3273
I1
sS'trunk'
p3274
I1
sS'marring'
p3275
I1
sS'strong'
p3276
I9
sS'colored'
p3277
I1
sS'ahead'
p3278
I4
sS'load.'
p3279
I1
sS'exceptionally'
p3280
I1
sS'maybe,'
p3281
I2
sS'amount'
p3282
I2
sS'emotion.'
p3283
I2
sS'Seeker,'
p3284
I1
sS'sealing'
p3285
I1
sS'shuffle'
p3286
I2
sS'family'
p3287
I8
sS'put'
p3288
I21
sS'lurked'
p3289
I1
sS'trained'
p3290
I1
sS'"Hasn\'t'
p3291
I1
sS'conventional'
p3292
I1
sS'injure'
p3293
I1
sS'pregnant,'
p3294
I1
sS'revelation'
p3295
I1
sS'up?"'
p3296
I1
sS'mysterious'
p3297
I2
sS'"Those'
p3298
I1
sS'excuse'
p3299
I1
sS'So'
p3300
I13
sS'broke'
p3301
I3
sS'hurry'
p3302
I5
sS'helped'
p3303
I4
sS'night.'
p3304
I3
sS'squeaked.'
p3305
I1
sS'offended'
p3306
I1
sS'me!"'
p3307
I4
sS'nine'
p3308
I1
sS'flaw.'
p3309
I1
sS'gasp\x97surprise'
p3310
I1
sS'"Wanderer,"'
p3311
I1
sS'"Technically,"'
p3312
I1
sS'history'
p3313
I1
sS'sapphires'
p3314
I1
sS'nonsensical.'
p3315
I1
sS'penalty."'
p3316
I1
sS'pushed'
p3317
I7
sS'phrase'
p3318
I2
sS'species'
p3319
I2
sS'stayed'
p3320
I7
sS'foreseen'
p3321
I3
sS'Intuition?'
p3322
I1
sS'"My'
p3323
I7
sS'tumbled'
p3324
I1
sS'tried'
p3325
I26
sS'rude'
p3326
I2
sS'glared'
p3327
I1
sS'squeezing.'
p3328
I1
sS'gifts."'
p3329
I1
sS'gasp'
p3330
I1
sS'twenty-nine'
p3331
I1
sS'face\x97a'
p3332
I1
sS'a'
I709
sS'tank-resistant'
p3333
I1
sS'appatently'
p3334
I1
sS'Deep'
p3335
I5
sS'calm.'
p3336
I1
sS'dream'
p3337
I6
sS'anticipate.'
p3338
I1
sS'connotation'
p3339
I1
sS'die\x97or'
p3340
I1
sS'soon'
p3341
I14
sS'held'
p3342
I23
sS'hell'
p3343
I3
sS'gray-haired'
p3344
I1
sS'complain."'
p3345
I1
sS'hi."'
p3346
I1
sS'exact'
p3347
I2
sS'fair.'
p3348
I1
sS'fair,'
p3349
I1
sS'absence'
p3350
I1
sS'child.'
p3351
I3
sS'adopt."'
p3352
I1
sS'full,'
p3353
I1
sS"haven't"
p3354
I4
sS'evening'
p3355
I1
sS'food'
p3356
I4
sS'gorging.'
p3357
I1
sS"you've"
p3358
I2
sS'sweeping'
p3359
I1
sS'unhealing'
p3360
I1
sS'fine,'
p3361
I2
sS'fine.'
p3362
I4
sS'scar-softening'
p3363
I1
sS'Jefferson,'
p3364
I1
sS'fully'
p3365
I3
sS'running\x97even'
p3366
I1
sS'entity.'
p3367
I1
sS'stopped'
p3368
I3
sS'did."'
p3369
I1
sS"isn't"
p3370
I7
sS'referred'
p3371
I1
sS'heavy'
p3372
I5
sS'frowned.'
p3373
I4
sS'Seekers'
p3374
I8
sS'house.'
p3375
I6
sS'house,'
p3376
I6
sS'lab,'
p3377
I1
sS'me\x97was'
p3378
I1
sS'Washington.'
p3379
I1
sS'house;'
p3380
I1
sS'beyond'
p3381
I1
sS'house?'
p3382
I1
sS'steered'
p3383
I1
sS'Engine'
p3384
I1
sS'leave'
p3385
I2
sS'since'
p3386
I13
sS'chilled\x97and'
p3387
I1
sS'evening?"'
p3388
I1
sS'safety'
p3389
I2
sS'intensity.'
p3390
I1
sS'evolved,'
p3391
I1
sS'outrun'
p3392
I2
sS'jaw;'
p3393
I1
sS'None'
p3394
I1
sS'keening'
p3395
I1
sS'bass'
p3396
I1
sS'dirt'
p3397
I1
sS'lights.'
p3398
I1
sS'Arizona.'
p3399
I1
sS'According'
p3400
I2
sS'sleeveless,'
p3401
I1
sS'houses'
p3402
I1
sS'reason'
p3403
I12
sS'base'
p3404
I1
sS'jaw.'
p3405
I2
sS'Seeker.'
p3406
I6
sS'ask'
p3407
I10
sS'1984,'
p3408
I1
sS'shrugged.'
p3409
I1
sS'dishwasher'
p3410
I1
sS'perceptible'
p3411
I1
sS'terrible'
p3412
I1
sS'terribly'
p3413
I1
sS'expecting'
p3414
I3
sS'blush'
p3415
I1
sS'enthusiastically.'
p3416
I1
sS'"Fine,'
p3417
I1
sS'interrupted.'
p3418
I2
sS'going\x97I'
p3419
I1
sS'interrupted,'
p3420
I1
sS'talked'
p3421
I1
sS'minutes,'
p3422
I5
sS'minutes.'
p3423
I1
sS'miss'
p3424
I5
sS'willingly.'
p3425
I1
sS'expensive.'
p3426
I2
sS'blossom'
p3427
I1
sS'absent.'
p3428
I1
sS'frowning.'
p3429
I1
sS'pinned'
p3430
I1
sS'station'
p3431
I1
sS'dealing'
p3432
I1
sS'dreaming,'
p3433
I1
sS'thoughts?'
p3434
I1
sS'hundred'
p3435
I13
sS'parka.'
p3436
I1
sS'slosh'
p3437
I1
sS'sign'
p3438
I3
sS'serious.'
p3439
I2
sS'serious,'
p3440
I2
sS'grew'
p3441
I4
sS'fallen\x97with'
p3442
I1
sS'hesitating'
p3443
I1
sS'bride'
p3444
I2
sS'uncanny'
p3445
I1
sS'toward'
p3446
I18
sS'near-constant'
p3447
I1
sS'glare.'
p3448
I3
sS'fridge.'
p3449
I1
sS'experience.'
p3450
I1
sS'if\x97it'
p3451
I1
sS'awaking'
p3452
I1
sS'cooked,'
p3453
I1
sS'why\x97some'
p3454
I1
sS"Iwouldn't"
p3455
I1
sS'glowered.'
p3456
I1
sS'lid'
p3457
I1
sS'lie'
p3458
I2
sS'doors.'
p3459
I2
sS'half-smile'
p3460
I1
sS'cave'
p3461
I1
sS'concealed.'
p3462
I1
sS'lip'
p3463
I1
sS'"Contingency'
p3464
I1
sS'With'
p3465
I10
sS"angel's"
p3466
I1
sS'experienced'
p3467
I1
sS'Chief'
p3468
I1
sS'new?"'
p3469
I1
sS'salary'
p3470
I1
sS'clear'
p3471
I13
sS'clean'
p3472
I2
sS'blend'
p3473
I2
sS'unhealthy.'
p3474
I1
sS'homework.'
p3475
I1
sS'stunned'
p3476
I1
sS'homework,'
p3477
I2
sS'flicker'
p3478
I2
sS'feel.'
p3479
I3
sS'giggled'
p3480
I2
sS'two-year-olds'
p3481
I1
sS'flicked'
p3482
I2
sS'bloodred'
p3483
I1
sS'northern'
p3484
I1
sS'unwillingly'
p3485
I4
sS'darted'
p3486
I2
sS'fragilely'
p3487
I1
sS'with?'
p3488
I1
sS'pretty'
p3489
I8
sS'flighty'
p3490
I1
sS'circle'
p3491
I2
sS'invisible\x85'
p3492
I1
sS'gel.'
p3493
I1
sS'heaven.'
p3494
I1
sS'waterproof'
p3495
I1
sS'coming,"'
p3496
I1
sS'temptation.'
p3497
I1
sS'trees'
p3498
I2
sS'psychic."'
p3499
I1
sS'While'
p3500
I3
sS'pretending'
p3501
I1
sS'"Should'
p3502
I1
sS'giggle.'
p3503
I1
sS'catches'
p3504
I1
sS'silly.'
p3505
I1
sS'fianc\xe9'
p3506
I1
sS'"Goodnight,'
p3507
I1
sS'house?"'
p3508
I1
sS'sacrifices'
p3509
I1
sS'possible\x97the'
p3510
I1
sS'throwing'
p3511
I5
sS'emergency.'
p3512
I1
sS'crackle'
p3513
I1
sS'close'
p3514
I11
sS'Neither'
p3515
I4
sS'thirties.'
p3516
I1
sS'years?'
p3517
I1
sS'something?"'
p3518
I1
sS'pictures'
p3519
I7
sS'Park'
p3520
I1
sS'won'
p3521
I1
sS'years,'
p3522
I3
sS'secret.'
p3523
I3
sS'years.'
p3524
I3
sS'probably'
p3525
I6
sS'position\x97one'
p3526
I1
sS'pictured'
p3527
I1
sS'upstairs.'
p3528
I2
sS'Oh,'
p3529
I2
sS'upstairs,'
p3530
I1
sS'Isabella'
p3531
I5
sS'unconscious'
p3532
I3
sS'missing'
p3533
I3
sS'description.'
p3534
I1
sS'Rose,'
p3535
I1
sS'invisible'
p3536
I2
sS'abruptly'
p3537
I2
sS'both'
p3538
I15
sS'assistant,'
p3539
I2
sS"wouldn't"
p3540
I27
sS'sensitive'
p3541
I1
sS'picture.'
p3542
I1
sS'picture,'
p3543
I1
sS'forgotten'
p3544
I5
sS'liked'
p3545
I3
sS'headed'
p3546
I8
sS'cryotank'
p3547
I1
sS'whatever'
p3548
I7
sS'likes'
p3549
I1
sS'Was'
p3550
I7
sS'compromise,'
p3551
I1
sS'flee,'
p3552
I1
sS'Goth'
p3553
I1
sS'described'
p3554
I1
sS'damp'
p3555
I2
sS'assumed,'
p3556
I1
sS'Most'
p3557
I4
sS'reciprocate'
p3558
I1
sS'California'
p3559
I2
sS'coarse'
p3560
I1
sS'God'
p3561
I2
sS'empty'
p3562
I7
sS'composure.'
p3563
I1
sS'box'
p3564
I9
sS'lived'
p3565
I17
sS'boy'
p3566
I8
sS'"Certain'
p3567
I1
sS'like,'
p3568
I1
sS'citizen'
p3569
I1
sS'Light.'
p3570
I1
sS'else'
p3571
I7
sS'lives'
p3572
I4
sS'"Esme,'
p3573
I1
sS'(His'
p3574
I1
sS'delight.'
p3575
I1
sS'look'
p3576
I41
sS'Lately,'
p3577
I1
sS'pace'
p3578
I2
sS'while'
p3579
I28
sS'driving?"'
p3580
I1
sS'smacked'
p3581
I1
sS'blessing?"'
p3582
I1
sS'in."'
p3583
I2
sS'ready'
p3584
I1
sS'reception,'
p3585
I1
sS'hazardous."'
p3586
I1
sS'communal'
p3587
I1
sS'grin.'
p3588
I1
sS'clear,'
p3589
I2
sS'checking'
p3590
I1
sS'grand'
p3591
I1
sS'conflict'
p3592
I2
sS'used'
p3593
I15
sS'classmates'
p3594
I1
sS'pliable.'
p3595
I1
sS'optic'
p3596
I1
sS'socks.'
p3597
I1
sS'stairs."'
p3598
I1
sS'read,'
p3599
I2
sS'censure'
p3600
I1
sS'read.'
p3601
I1
sS'changed,'
p3602
I1
sS'idling'
p3603
I1
sS'changed.'
p3604
I2
sS'like\x85'
p3605
I1
sS'older'
p3606
I4
sS'leaves.'
p3607
I1
sS'obviously'
p3608
I5
sS'salon,'
p3609
I1
sS'chore'
p3610
I1
sS'to."'
p3611
I2
sS'wishing."'
p3612
I1
sS'wise,'
p3613
I1
sS'shivering'
p3614
I2
sS'desk'
p3615
I10
sS'breathtaking'
p3616
I1
sS'resisted.'
p3617
I1
sS'store.'
p3618
I1
sS'"I\'ll'
p3619
I21
sS'lit'
p3620
I1
sS'Muscles'
p3621
I1
sS'peeked'
p3622
I5
sS'either\x97he'
p3623
I1
sS'percent'
p3624
I1
sS'throats'
p3625
I1
sS'brand-new'
p3626
I1
sS'questioned'
p3627
I1
sS'remaining'
p3628
I2
sS'sprinted'
p3629
I2
sS'longer.'
p3630
I1
sS'Jessica,'
p3631
I3
sS'march'
p3632
I2
sS'evaluate'
p3633
I1
sS'showing'
p3634
I2
sS'Jasper."'
p3635
I3
sS'Billy'
p3636
I2
sS'game'
p3637
I1
sS'breach.'
p3638
I1
sS'wound."'
p3639
I1
sS'distance.'
p3640
I1
sS'stunned.'
p3641
I1
sS'onion'
p3642
I1
sS'"Admit'
p3643
I1
sS'throat,'
p3644
I2
sS'throat.'
p3645
I5
sS'popular'
p3646
I1
sS'vowed.'
p3647
I2
sS'before\x97avoiding'
p3648
I1
sS'together."'
p3649
I2
sS'Hey,'
p3650
I1
sS'last,'
p3651
I3
sS'last.'
p3652
I1
sS'some'
p3653
I44
sS'furrows.'
p3654
I1
sS'though."'
p3655
I1
sS'lips'
p3656
I21
sS'Seeker'
p3657
I23
sS'fanfare'
p3658
I1
sS'Lutheran,'
p3659
I1
sS'Rosalie.'
p3660
I1
sS'Rosalie,'
p3661
I4
sS'pregnant!"'
p3662
I1
sS'stagger'
p3663
I1
sS'neck?"'
p3664
I1
sS'pounding'
p3665
I1
sS'sleek,'
p3666
I1
sS'possible?"'
p3667
I1
sS'minimal'
p3668
I1
sS'run'
p3669
I5
sS'facility,'
p3670
I1
sS'facility.'
p3671
I2
sS'step'
p3672
I4
sS'father.'
p3673
I1
sS'brake.'
p3674
I1
sS'rarer.'
p3675
I1
sS'August'
p3676
I1
sS'shine'
p3677
I2
sS'forget,'
p3678
I1
sS'surprising,'
p3679
I1
sS'sharper'
p3680
I1
sS'unnerving.'
p3681
I1
sS'green\x97a'
p3682
I1
sS'crouch,'
p3683
I1
sS'Lion'
p3684
I1
sS'"How\'s'
p3685
I2
sS'experiences'
p3686
I1
sS'shiny'
p3687
I5
sS'block'
p3688
I1
sS'seeing'
p3689
I1
sS'groom."'
p3690
I1
sS'within'
p3691
I4
sS'nonsense'
p3692
I1
sS'nothing'
p3693
I14
sS'strategy.'
p3694
I1
sS'"Sorry'
p3695
I1
sS'growled,'
p3696
I1
sS'growled.'
p3697
I2
sS'sprawled'
p3698
I1
sS'rolls'
p3699
I1
sS'smells'
p3700
I1
sS'wish."'
p3701
I1
sS'theory.'
p3702
I1
sS'furtively'
p3703
I2
sS'uniform,'
p3704
I1
sS'."'
p3705
I7
sS'forces;'
p3706
I1
sS'marrying'
p3707
I2
sS'worshipped'
p3708
I1
sS'mistakes,'
p3709
I4
sS'intimidating,'
p3710
I1
sS'confessing'
p3711
I1
sS'smell.'
p3712
I2
sS'registered'
p3713
I3
sS'dull'
p3714
I2
sS'flickers'
p3715
I1
sS'skull'
p3716
I1
sS'lords'
p3717
I1
sS'accustomed'
p3718
I1
sS'"Everything'
p3719
I1
sS"female's"
p3720
I1
sS"family-to-be's"
p3721
I1
sS'distracted,'
p3722
I1
sS'distracted.'
p3723
I1
sS'Edward'
p3724
I109
sS'loveable.'
p3725
I1
sS'smile.'
p3726
I5
sS'smile,'
p3727
I4
sS'cotton'
p3728
I2
sS'TV'
p3729
I1
sS'heat.'
p3730
I1
sS'fears'
p3731
I1
sS'A,'
p3732
I1
sS'A.'
p3733
I1
sS'smiling.'
p3734
I4
sS'nap'
p3735
I1
sS'smiling,'
p3736
I1
sS'themselves.'
p3737
I4
sS'themselves,'
p3738
I1
sS'automatically.'
p3739
I2
sS'automatically,'
p3740
I2
sS'smiles'
p3741
I1
sS'draw'
p3742
I2
sS'bodies,'
p3743
I2
sS'insurgents."'
p3744
I1
sS'pretended'
p3745
I1
sS'averting'
p3746
I1
sS'drag'
p3747
I1
sS'smiled'
p3748
I16
sS'cloud-covered'
p3749
I1
sS'reservation'
p3750
I1
sS'Emmett'
p3751
I15
sS'restrained'
p3752
I1
sS'temperament'
p3753
I1
sS'pronoun.'
p3754
I1
sS'practically'
p3755
I1
sS'required'
p3756
I1
sS'clenched'
p3757
I3
sS'An'
p3758
I3
sS'fear.'
p3759
I1
sS'resistance,'
p3760
I1
sS'"Hey,"'
p3761
I1
sS'At'
p3762
I8
sS"she's"
p3763
I5
sS'Apparently'
p3764
I1
sS'sounded'
p3765
I7
sS'anyway."'
p3766
I2
sS'pry'
p3767
I1
sS'cheerful'
p3768
I1
sS'go'
p3769
I25
sS'"Besides,'
p3770
I1
sS'quickly,'
p3771
I6
sS'position.'
p3772
I2
sS'quickly.'
p3773
I5
sS'Not'
p3774
I17
sS'cluttered'
p3775
I1
sS'Now'
p3776
I7
sS'friendly'
p3777
I3
sS'reverence.'
p3778
I1
sS'Mrs.'
p3779
I4
sS'wave'
p3780
I1
sS'rebuked'
p3781
I1
sS'cellular'
p3782
I1
sS'telling'
p3783
I3
sS'more.'
p3784
I3
sS'No,'
p3785
I2
sS'stiff'
p3786
I2
sS'button'
p3787
I1
sS'flickered'
p3788
I3
sS'adjust."'
p3789
I1
sS'teeth,'
p3790
I5
sS'teeth.'
p3791
I5
sS'film,"'
p3792
I1
sS'"There,"'
p3793
I2
sS'Washington\x97but'
p3794
I1
sS'"Did'
p3795
I2
sS'boots'
p3796
I4
sS'inside.'
p3797
I2
sS'jump'
p3798
I2
sS'picked'
p3799
I5
sS'Dartmouth'
p3800
I2
sS'do\x97it'
p3801
I1
sS'vampire'
p3802
I3
sS'eating'
p3803
I1
sS'commercial'
p3804
I2
sS'believed'
p3805
I4
sS'focused'
p3806
I3
sS'immune;'
p3807
I1
sS'remembered.'
p3808
I1
sS'decorations."'
p3809
I1
sS'mystery,'
p3810
I1
sS"weren't"
p3811
I10
sS'play,'
p3812
I1
sS'examining'
p3813
I1
sS'intruded,'
p3814
I1
sS'danger'
p3815
I3
sS'manage'
p3816
I2
sS'French'
p3817
I1
sS'nerves,'
p3818
I1
sS'cloud'
p3819
I1
sS'arrive."'
p3820
I1
sS'drop.'
p3821
I1
sS'remains'
p3822
I1
sS'chuckled.'
p3823
I4
sS'camera'
p3824
I8
sS'grudgingly.'
p3825
I1
sS'vehicle'
p3826
I2
sS'"Too'
p3827
I4
sS'simpler'
p3828
I1
sS'cheeks'
p3829
I4
sS'started'
p3830
I10
sS'else\x97the'
p3831
I1
sS'violent,'
p3832
I1
sS'cheek.'
p3833
I2
sS'usual,"'
p3834
I1
sS'salad'
p3835
I1
sS'ride'
p3836
I1
sS'morning."'
p3837
I1
sS'meet'
p3838
I4
sS'control'
p3839
I5
sS'"People'
p3840
I1
sS'escapes'
p3841
I1
sS'comprehend,'
p3842
I1
sS'far.'
p3843
I2
sS'escaped'
p3844
I1
sS'Mr.'
p3845
I10
sS'pulling'
p3846
I3
sS'sought'
p3847
I2
sS'wonderful'
p3848
I1
sS'dishrags'
p3849
I1
sS'name.\x85'
p3850
I1
sS'me\x97why'
p3851
I1
sS'instinctively'
p3852
I1
sS'circular'
p3853
I1
sS"Aro's"
p3854
I1
sS'buffed,'
p3855
I1
sS'escape,'
p3856
I1
sS'link,'
p3857
I1
sS'escape.'
p3858
I1
sS'"Outside'
p3859
I1
sS'Luckily,'
p3860
I2
sS'feels'
p3861
I2
sS'Middle'
p3862
I1
sS'about."'
p3863
I1
sS'longest'
p3864
I1
sS'miss?"'
p3865
I1
sS'underneath.'
p3866
I2
sS'unbreakable'
p3867
I1
sS'hand,'
p3868
I3
sS'hand.'
p3869
I9
sS'tiptoes'
p3870
I1
sS'Civilization'
p3871
I1
sS"won't"
p3872
I15
sS'during'
p3873
I4
sS'brittle'
p3874
I1
sS'hand;'
p3875
I1
sS'Body'
p3876
I1
sS'\x97"'
p3877
I7
sS'immune'
p3878
I1
sS'ordeal.'
p3879
I1
sS'guardedly.'
p3880
I1
sS'setting'
p3881
I1
sS'"Angela'
p3882
I1
sS'Yet.'
p3883
I1
sS'Hosts'
p3884
I1
sS'hands'
p3885
I19
sS'front'
p3886
I25
sS'However,'
p3887
I4
sS'snuggling'
p3888
I1
sS'egotistical,'
p3889
I1
sS'"Dad?"'
p3890
I1
sS'thanks."'
p3891
I1
sS'slide'
p3892
I5
sS'notebook.'
p3893
I1
sS'shaking'
p3894
I3
sS'upward'
p3895
I1
sS'health\x97an'
p3896
I1
sS'Carlisle.'
p3897
I1
sS'attachments'
p3898
I1
sS'steadied'
p3899
I1
sS'measure'
p3900
I1
sS'"See?'
p3901
I1
sS'"In'
p3902
I1
sS'secretly'
p3903
I1
sS'next,"'
p3904
I1
sS'entertainment'
p3905
I1
sS'"If'
p3906
I9
sS'time,'
p3907
I10
sS'time.'
p3908
I12
sS'Fords'
p3909
I25
sS'peace-loving'
p3910
I1
sS'aloud.'
p3911
I1
sS'cause'
p3912
I2
sS'"Is'
p3913
I5
sS'pursuit?'
p3914
I1
sS'ankle;'
p3915
I1
sS'sand,'
p3916
I1
sS'humiliating'
p3917
I2
sS'darkly'
p3918
I1
sS'completely'
p3919
I6
sS'intruder'
p3920
I1
sS'flowers\x97pink'
p3921
I1
sS'drowning'
p3922
I1
sS'hostile'
p3923
I1
sS'started,"'
p3924
I1
sS'route'
p3925
I1
sS'tennis,'
p3926
I1
sS'times'
p3927
I7
sS'foolishly,'
p3928
I1
sS'place?'
p3929
I1
sS'remorse.'
p3930
I1
sS'softer'
p3931
I2
sS'activity?'
p3932
I1
sS'powerful'
p3933
I3
sS'date'
p3934
I2
sS'list.'
p3935
I1
sS'similar,'
p3936
I1
sS'four-hour'
p3937
I1
sS'precisely'
p3938
I2
sS'mirror.'
p3939
I1
sS'stereo.'
p3940
I2
sS"you're"
p3941
I15
sS'long'
p3942
I32
sS'be.'
p3943
I8
sS'be,'
p3944
I1
sS'"Come'
p3945
I1
sS'squinting'
p3946
I1
sS'adopted'
p3947
I3
sS'wrapped'
p3948
I6
sS'Saturday,'
p3949
I1
sS'perfectly'
p3950
I5
sS'final'
p3951
I1
sS'groggily'
p3952
I1
sS'exactly'
p3953
I16
sS'This,'
p3954
I1
sS'smiled.'
p3955
I2
sS'smiled,'
p3956
I2
sS'herself'
p3957
I3
sS'neck'
p3958
I3
sS'Jacksonville?"'
p3959
I1
sS'bed'
p3960
I7
sS"body's"
p3961
I2
sS'curious."'
p3962
I1
sS'bare'
p3963
I1
sS'"Say'
p3964
I1
sS'curiosity,'
p3965
I1
sS'Rosalie\x97the'
p3966
I1
sS'want?"'
p3967
I1
sS'assignment,"'
p3968
I1
sS'enforced'
p3969
I1
sS'thwarted'
p3970
I1
sS'Flying'
p3971
I1
sS'be\x85'
p3972
I1
sS'buy'
p3973
I6
sS'need'
p3974
I30
sS'flushing.'
p3975
I1
sS'fuel.'
p3976
I1
sS'bleached'
p3977
I2
sS'"Like'
p3978
I1
sS'able'
p3979
I8
sS'Healing'
p3980
I5
sS'gunned'
p3981
I1
sS'Quileute'
p3982
I1
sS'fuels'
p3983
I1
sS'mileage'
p3984
I1
sS'floundered'
p3985
I1
sS'thinking\x85"'
p3986
I1
sS'passionately'
p3987
I1
sS'behavior?'
p3988
I1
sS'horror.'
p3989
I3
sS'connected'
p3990
I2
sS'expired'
p3991
I1
sS'behavior.'
p3992
I1
sS'stereo'
p3993
I2
sS'upset'
p3994
I2
sS'Wow.'
p3995
I1
sS'Wow,'
p3996
I1
sS'talk'
p3997
I3
sS'"Har'
p3998
I1
sS'repeatedly.'
p3999
I1
sS'grateful.'
p4000
I1
sS'impression'
p4001
I2
sS'shuddered.'
p4002
I1
sS'join.'
p4003
I1
sS'anyway'
p4004
I1
sS'unfathomable'
p4005
I3
sS'Edward,"'
p4006
I4
sS'parked'
p4007
I4
sS'"Orange'
p4008
I1
sS'soldiers'
p4009
I1
sS'(whose'
p4010
I1
sS'slow,'
p4011
I1
sS'slow.'
p4012
I1
sS'shoes'
p4013
I1
sS'envy'
p4014
I2
sS'earned'
p4015
I1
sS'hopeful'
p4016
I2
sS'brighter'
p4017
I3
sS'Part'
p4018
I1
sS'thunderous'
p4019
I1
sS'truck,'
p4020
I5
sS'truck.'
p4021
I4
sS'slows'
p4022
I1
sS'below.'
p4023
I1
sS'April,'
p4024
I2
sS'below,'
p4025
I1
sS'endless'
p4026
I1
sS'gray'
p4027
I3
sS'had,'
p4028
I4
sS'talking,'
p4029
I1
sS'had.'
p4030
I4
sS'houses,'
p4031
I1
sS'talking;'
p4032
I1
sS'she'
p4033
I126
sS'contain'
p4034
I1
sS'vampire\x97nobody'
p4035
I1
sS'tux\x97"'
p4036
I2
sS'spotted'
p4037
I2
sS'humans'
p4038
I8
sS'freeze'
p4039
I1
sS'lush\x85'
p4040
I1
sS'powder'
p4041
I1
sS'desperate'
p4042
I1
sS'occupation,"'
p4043
I1
sS'"May'
p4044
I1
sS'Good'
p4045
I2
sS'"Where\'s'
p4046
I1
sS'placed'
p4047
I4
sS'beading'
p4048
I1
sS'staring,'
p4049
I1
sS"Esme's"
p4050
I3
sS'mind,'
p4051
I4
sS'state'
p4052
I3
sS'mind.'
p4053
I8
sS'correctly'
p4054
I1
sS'horrible'
p4055
I1
sS'expects,'
p4056
I1
sS'generations.'
p4057
I1
sS'(though'
p4058
I1
sS'tent'
p4059
I2
sS'asked.'
p4060
I19
sS'vigorous,'
p4061
I1
sS'asked,'
p4062
I11
sS"Alice's"
p4063
I5
sS'interfere'
p4064
I1
sS'human.'
p4065
I3
sS'blinked'
p4066
I1
sS'human,'
p4067
I2
sS'key'
p4068
I2
sS'police'
p4069
I3
sS'baby.'
p4070
I2
sS'thank'
p4071
I1
sS'hits'
p4072
I2
sS'gingery'
p4073
I1
sS'ten,'
p4074
I1
sS'distracting.'
p4075
I1
sS'minds'
p4076
I1
sS'admit'
p4077
I5
sS'huts,'
p4078
I1
sS'together;'
p4079
I1
sS'there,"'
p4080
I2
sS'Los'
p4081
I2
sS'together.'
p4082
I6
sS'together,'
p4083
I2
sS'Culler'
p4084
I1
sS'sense,'
p4085
I2
sS'shoulder,'
p4086
I2
sS'sense.'
p4087
I3
sS'shoulder.'
p4088
I3
sS'lady)\x85'
p4089
I1
sS'quit'
p4090
I1
sS'inhale'
p4091
I1
sS'addition'
p4092
I1
sS'own.'
p4093
I5
sS'thanked'
p4094
I1
sS'quiz'
p4095
I1
sS'scenery.'
p4096
I1
sS'slowly'
p4097
I7
sS'miracle\x97she'
p4098
I1
sS'day."'
p4099
I2
sS'dead.'
p4100
I1
sS'shoulders'
p4101
I2
sS'senses'
p4102
I1
sS'Peninsula\x97this'
p4103
I1
sS'sensed'
p4104
I1
sS'smoking'
p4105
I1
sS"That's"
p4106
I5
sS'And'
p4107
I50
sS'novel'
p4108
I1
sS'harder'
p4109
I4
sS'pyres.'
p4110
I1
sS'owns'
p4111
I1
sS'Shakespeare,'
p4112
I1
sS'Any'
p4113
I2
sS'name,"'
p4114
I3
sS'surface'
p4115
I4
sS'examined'
p4116
I5
sS'Pretty'
p4117
I1
sS'appearance.'
p4118
I1
sS'You'
p4119
I25
sS'apologized.'
p4120
I1
sS'nostalgically.'
p4121
I1
sS'began'
p4122
I13
sS'related\x85"'
p4123
I1
sS'strange'
p4124
I11
sS'northwest'
p4125
I1
sS'party'
p4126
I1
sS'Canada.'
p4127
I1
sS'tapped'
p4128
I1
sS'counters.'
p4129
I1
sS'"Even'
p4130
I4
sS'heartbeat,'
p4131
I1
sS'fierce'
p4132
I2
sS'frequently'
p4133
I2
sS'keep'
p4134
I15
sS'part"'
p4135
I1
sS'reflection'
p4136
I2
sS'lunch'
p4137
I3
sS'glower'
p4138
I1
sS'well'
p4139
I17
sS'part.'
p4140
I2
sS'silver-wrapped'
p4141
I2
sS'Have'
p4142
I2
sS'drowns'
p4143
I1
sS'grasped'
p4144
I1
sS'taller'
p4145
I1
sS'does\x85"'
p4146
I1
sS'enormously'
p4147
I1
sS'do,"'
p4148
I2
sS'condemned.'
p4149
I1
sS'condemned,'
p4150
I1
sS'skill'
p4151
I1
sS'coordination'
p4152
I1
sS'setup,'
p4153
I1
sS'snow?"'
p4154
I1
sS'lot!"'
p4155
I1
sS'look?"'
p4156
I1
sS'knowing,'
p4157
I1
sS'"Thanks,'
p4158
I3
sS'size,'
p4159
I1
sS'doorway.'
p4160
I3
sS'predictable,"'
p4161
I1
sS'By'
p4162
I4
sS'kick'
p4163
I1
sS'banquet'
p4164
I1
sS'vampire\x97his'
p4165
I1
sS'anymore."'
p4166
I2
sS'crushed'
p4167
I1
sS'mistake.'
p4168
I2
sS'unseen'
p4169
I1
sS'mother,"'
p4170
I1
sS'immediately'
p4171
I6
sS'prominent'
p4172
I1
sS'necessary'
p4173
I2
sS'nameplate'
p4174
I1
sS'B.'
p4175
I1
sS'fingerprints'
p4176
I1
sS'Jasper'
p4177
I14
sS'lose'
p4178
I1
sS'indecipherable.'
p4179
I1
sS'drizzly'
p4180
I2
sS'belonged'
p4181
I3
sS'library'
p4182
I1
sS'presents.'
p4183
I1
sS'warmer'
p4184
I1
sS'home'
p4185
I6
sS'liking'
p4186
I1
sS'talk.'
p4187
I1
sS'before,'
p4188
I4
sS'before.'
p4189
I8
sS'pinpoint'
p4190
I1
sS'recognize,'
p4191
I1
sS'objected'
p4192
I1
sS'yourselves."'
p4193
I1
sS'War'
p4194
I1
sS'e-mail'
p4195
I1
sS'cradle'
p4196
I1
sS'?'
I1
sS'Jamie,'
p4197
I2
sS'Varner,'
p4198
I1
sS'reaching'
p4199
I3
sS'she,'
p4200
I1
sS'millions.'
p4201
I1
sS'infants."'
p4202
I1
sS'killed\x85"'
p4203
I1
sS'defensive.'
p4204
I1
sS'instinct'
p4205
I1
sS'choked'
p4206
I5
sS'discovered.'
p4207
I1
sS'in.'
p4208
I4
sS'recognized'
p4209
I5
sS'case\x97compared'
p4210
I1
sS'Right.)'
p4211
I1
sS'Designed'
p4212
I1
sS'linoleum.'
p4213
I1
sS'march.'
p4214
I1
sS'goal,'
p4215
I1
sS'"Easy,'
p4216
I1
sS'sluggishly,'
p4217
I1
sS'times,'
p4218
I1
sS'times.'
p4219
I1
sS'goal?'
p4220
I1
sS'Sure,'
p4221
I3
sS'Sure.'
p4222
I2
sS'linear.'
p4223
I1
sS'friend\x85'
p4224
I1
sS'noticed'
p4225
I8
sS'"We'
p4226
I9
sS'notices'
p4227
I1
sS'lopsided'
p4228
I1
sS'prophetic'
p4229
I1
sS'north'
p4230
I2
sS'nostalgia.'
p4231
I1
sS'hazardous'
p4232
I1
sS'hi'
p4233
I1
sS'gain'
p4234
I2
sS'"I\'m'
p4235
I29
sS'decisions,'
p4236
I2
sS'ear'
p4237
I1
sS'eat'
p4238
I2
sS'"I\'d'
p4239
I3
sS'he'
p4240
I345
sS'mechanic\x97'
p4241
I1
sS'notice.'
p4242
I1
sS'right."'
p4243
I4
sS'cells'
p4244
I1
sS'signed'
p4245
I1
sS'stories'
p4246
I4
sS'eyes.'
p4247
I15
sS'piece'
p4248
I4
sS'display'
p4249
I1
sS'glitters.'
p4250
I1
sS'universal'
p4251
I1
sS'penny'
p4252
I1
sS'twist'
p4253
I3
sS'kissed'
p4254
I6
sS'rumors'
p4255
I1
sS'chest\x97put'
p4256
I1
sS'Never'
p4257
I3
sS'Besides'
p4258
I1
sS'suspiciously'
p4259
I1
sS'yours.'
p4260
I1
sS'yours,'
p4261
I2
sS'star'
p4262
I1
sS'Like'
p4263
I9
sS'living'
p4264
I11
sS'stay'
p4265
I8
sS'inescapably'
p4266
I1
sS'foil'
p4267
I1
sS'stab'
p4268
I1
sS'friends'
p4269
I6
sS'Thick'
p4270
I1
sS'Friday.'
p4271
I1
sS'Well,'
p4272
I5
sS'Spanish'
p4273
I1
sS'Healer'
p4274
I25
sS'scowl,'
p4275
I1
sS'polite.'
p4276
I1
sS'squared'
p4277
I1
sS'better.'
p4278
I2
sS'knelt'
p4279
I1
sS'agitation.'
p4280
I1
sS'fist,'
p4281
I1
sS'up.'
p4282
I7
sS'whose'
p4283
I6
sS'up,'
p4284
I15
sS'presents'
p4285
I5
sS'sorry'
p4286
I2
sS'glorious.'
p4287
I1
sS"mother's"
p4288
I5
sS'"However,'
p4289
I1
sS'themicroscope.'
p4290
I1
sS'today.'
p4291
I5
sS'today,'
p4292
I1
sS'vast'
p4293
I1
sS'"That'
p4294
I5
sS'present.'
p4295
I1
sS'present,'
p4296
I1
sS'convenience'
p4297
I1
sS'prattled'
p4298
I1
sS'beauty.'
p4299
I3
sS'heading'
p4300
I2
sS'clothes'
p4301
I5
sS'beauty,'
p4302
I1
sS'force'
p4303
I5
sS'quilt'
p4304
I2
sS'me,'
p4305
I48
sS'me.'
p4306
I99
sS'likely'
p4307
I3
sS'masochistic?"'
p4308
I1
sS'me?'
p4309
I1
sS'me;'
p4310
I3
sS'even'
p4311
I44
sS'Eventually'
p4312
I1
sS'seemed.'
p4313
I1
sS'Arizona'
p4314
I1
sS'trapping'
p4315
I1
sS'nodded.'
p4316
I1
sS'saved'
p4317
I1
sS'lights'
p4318
I7
sS'rest.'
p4319
I1
sS'stunning.'
p4320
I1
sS'gold;'
p4321
I1
sS'new'
p4322
I40
sS'tips'
p4323
I2
sS'Fords,'
p4324
I1
sS'strongly.'
p4325
I2
sS'niche'
p4326
I1
sS'stunning,'
p4327
I1
sS'inhaled'
p4328
I1
sS'never'
p4329
I57
sS'drew'
p4330
I1
sS'met'
p4331
I6
sS"aren't"
p4332
I6
sS'dry'
p4333
I1
sS'light.'
p4334
I3
sS'light,'
p4335
I2
sS'ignoring'
p4336
I3
sS'taped'
p4337
I2
sS'permit'
p4338
I1
sS'pack'
p4339
I2
sS'eyebrows'
p4340
I4
sS'fragrances'
p4341
I1
sS'nervously.'
p4342
I1
sS'latched,'
p4343
I1
sS'sliced'
p4344
I2
sS'Behind'
p4345
I2
sS'ninety'
p4346
I1
sS'jackets'
p4347
I1
sS'head-on'
p4348
I1
sS'exception.'
p4349
I1
sS'exception,'
p4350
I1
sS'tamed.'
p4351
I1
sS'arms'
p4352
I9
sS'movie,'
p4353
I1
sS'Clearwaters'
p4354
I1
sS'call'
p4355
I9
sS'calm'
p4356
I4
sS'survive'
p4357
I1
sS'right.'
p4358
I5
sS'tell'
p4359
I19
sS'wars'
p4360
I1
sS'specific.'
p4361
I1
sS'warn'
p4362
I1
sS'warm'
p4363
I5
sS'adult'
p4364
I2
sS'unconsciousness?'
p4365
I1
sS'gorgeous,'
p4366
I1
sS'still\x85'
p4367
I1
sS'eyebrow.'
p4368
I2
sS'eyebrow,'
p4369
I1
sS'room'
p4370
I12
sS'Cowardly'
p4371
I1
sS'waiting;'
p4372
I1
sS'roof'
p4373
I2
sS'arm.'
p4374
I11
sS'car\x97because'
p4375
I1
sS'arm,'
p4376
I3
sS'waiting.'
p4377
I1
sS'root'
p4378
I1
sS'give'
p4379
I16
sS'involve'
p4380
I1
sS'blank,'
p4381
I1
sS'blank.'
p4382
I1
sS'Phoenix'
p4383
I3
sS'pantry.'
p4384
I1
sS'sixties'
p4385
I1
sS'athlete;'
p4386
I1
sS'answer'
p4387
I6
sS'replacing'
p4388
I1
sS'vicious'
p4389
I1
sS'food.'
p4390
I2
sS'laugh.'
p4391
I2
sS'curiosity'
p4392
I2
sS'Seattle,'
p4393
I2
sS'All'
p4394
I9
sS'attempt'
p4395
I2
sS'grin,'
p4396
I1
sS'fault.'
p4397
I1
sS'out\x97a'
p4398
I1
sS'fault,'
p4399
I1
sS'still,'
p4400
I4
sS'cold.'
p4401
I3
sS'"Especially'
p4402
I1
sS'cold,'
p4403
I2
sS'fault?'
p4404
I1
sS'sat.'
p4405
I1
sS'down;'
p4406
I2
sS'sheltering'
p4407
I1
sS'"Why'
p4408
I5
sS'become\x85"'
p4409
I1
sS'helpless.'
p4410
I1
sS'hibernation'
p4411
I1
sS'ashamed.'
p4412
I2
sS'\x97'
I73
sS'down.'
p4413
I5
sS'"Who'
p4414
I3
sS'windshield'
p4415
I1
sS'before'
p4416
I45
sS'then.'
p4417
I1
sS'then,'
p4418
I11
sS'personal'
p4419
I2
sS'better'
p4420
I9
sS'then?'
p4421
I2
sS'sapphires."'
p4422
I1
sS'"Actually,"'
p4423
I1
sS'weeks'
p4424
I3
sS'panther,'
p4425
I1
sS'weakness'
p4426
I1
sS'piano,'
p4427
I2
sS'changing\x85'
p4428
I1
sS'week,'
p4429
I1
sS'week.'
p4430
I1
sS'sleepless'
p4431
I2
sS'Conversation.'
p4432
I1
sS'leaned'
p4433
I7
sS'interesting."'
p4434
I1
sS'went'
p4435
I29
sS'side'
p4436
I11
sS'bone'
p4437
I2
sS'mean'
p4438
I9
sS'hair?"'
p4439
I1
sS'"Oh,'
p4440
I9
sS'do."'
p4441
I1
sS'trading'
p4442
I1
sS'hatch'
p4443
I1
sS'forgot'
p4444
I3
sS'navy'
p4445
I1
sS'temporary'
p4446
I2
sS'Mush'
p4447
I1
sS'velvet'
p4448
I1
sS'Romeo'
p4449
I1
sS'particles'
p4450
I1
sS'is.'
p4451
I2
sS'start,'
p4452
I2
sS'almost-adult'
p4453
I1
sS'waiting."'
p4454
I1
sS'surprise'
p4455
I3
sS'Rosalie?"'
p4456
I1
sS'sluggish'
p4457
I1
sS'Must'
p4458
I2
sS'turning'
p4459
I1
sS'skin,'
p4460
I4
sS'skin.'
p4461
I10
sS'struggle'
p4462
I1
sS'aisle'
p4463
I3
sS'began.'
p4464
I3
sS'messages'
p4465
I1
sS'childishly'
p4466
I1
sS'moved,'
p4467
I1
sS'enjoy?"'
p4468
I1
sS'moving'
p4469
I4
sS'loud'
p4470
I5
sS'enjoy'
p4471
I4
sS'point\x85'
p4472
I2
sS'smirk.'
p4473
I1
sS'hyperactively'
p4474
I1
sS'comforted'
p4475
I1
sS'ditch'
p4476
I1
sS'hood'
p4477
I2
sS'shoulders,'
p4478
I1
sS'girls'
p4479
I2
sS'twisted'
p4480
I5
sS'Mike."'
p4481
I3
sS'dwell'
p4482
I2
sS'stolen.'
p4483
I1
sS'vivid.'
p4484
I1
sS'Calling."'
p4485
I1
sS'gym'
p4486
I1
sS'floor,'
p4487
I1
sS'floor.'
p4488
I8
sS'diagnosis."'
p4489
I1
sS'Healer."'
p4490
I1
sS'strong\x85'
p4491
I1
sS'somewhat'
p4492
I1
sS'heights.'
p4493
I1
sS'distance'
p4494
I4
sS'anxiety'
p4495
I3
sS'body,'
p4496
I6
sS'body.'
p4497
I7
sS'bitterness'
p4498
I1
sS'girl.'
p4499
I1
sS'body;'
p4500
I1
sS'louder'
p4501
I4
sS'silly'
p4502
I3
sS'childlike'
p4503
I1
sS'eavesdrop.'
p4504
I1
sS'mind'
p4505
I21
sS'mine'
p4506
I9
sS'breaking.'
p4507
I1
sS'notion.'
p4508
I1
sS'car."'
p4509
I3
sS'seen'
p4510
I15
sS'seem'
p4511
I12
sS'sounding'
p4512
I2
sS'seek'
p4513
I2
sS'sink,'
p4514
I1
sS'do.'
p4515
I4
sS'do,'
p4516
I2
sS'point,'
p4517
I3
sS"do'"
p4518
I1
sS'point.'
p4519
I2
sS'her\x97almost'
p4520
I1
sS'do;'
p4521
I1
sS'chest'
p4522
I2
sS'edge'
p4523
I11
sS'chess'
p4524
I1
sS'mush.'
p4525
I1
sS'tell.'
p4526
I1
sS'tell,'
p4527
I2
sS'literally,'
p4528
I1
sS'accident-prone,'
p4529
I1
sS'regular'
p4530
I2
sS'see.'
p4531
I1
sS'see,'
p4532
I4
sS'hood.'
p4533
I1
sS'hood,'
p4534
I1
sS'cedars.'
p4535
I1
sS'medical'
p4536
I1
sS'points'
p4537
I1
sS'rain."'
p4538
I1
sS'breathed'
p4539
I4
sS'annoyed'
p4540
I1
sS'strong.'
p4541
I2
sS'practice,"'
p4542
I1
sS'winced'
p4543
I1
sS'ear,'
p4544
I1
sS'ear.'
p4545
I1
sS'Cullens.'
p4546
I1
sS'"Mmm."'
p4547
I1
sS'explain'
p4548
I4
sS'folded'
p4549
I1
sS'lisps'
p4550
I1
sS'thrust.'
p4551
I1
sS'"Put'
p4552
I1
sS'field,'
p4553
I1
sS'Others'
p4554
I1
sS'folks'
p4555
I1
sS'folder'
p4556
I1
sS'History'
p4557
I1
sS'pregnant?"'
p4558
I1
sS'attempt!'
p4559
I1
sS'tiles'
p4560
I1
sS'places,'
p4561
I1
sS'colorful'
p4562
I1
sS'stop'
p4563
I7
sS'Leave'
p4564
I1
sS'."\x97I\'d'
p4565
I2
sS'gift."'
p4566
I1
sS'Over'
p4567
I1
sS'Washington'
p4568
I1
sS'bumps.'
p4569
I1
sS'whooshing'
p4570
I1
sS'bag'
p4571
I10
sS'microscope'
p4572
I3
sS'softly'
p4573
I2
sS'weekend,'
p4574
I1
sS'weekend.'
p4575
I1
sS'(because'
p4576
I1
sS'ears'
p4577
I5
sS'fluffs'
p4578
I1
sS'other."'
p4579
I1
sS'worksheet.'
p4580
I1
sS'"More'
p4581
I1
sS'me\x97and'
p4582
I1
sS'Bella'
p4583
I4
sS'laughing.'
p4584
I3
sS'laughing,'
p4585
I2
sS'decided'
p4586
I16
sS'spattered'
p4587
I1
sS'was."'
p4588
I1
sS'subject'
p4589
I4
sS'Biology'
p4590
I3
sS'said'
p4591
I44
sS'stairs,'
p4592
I4
sS'stairs.'
p4593
I2
sS'scrap'
p4594
I1
sS'Resisting?'
p4595
I1
sS"there's"
p4596
I1
sS'"So,'
p4597
I5
sS'sorts'
p4598
I1
sS'limbs,'
p4599
I1
sS'vows'
p4600
I1
sS'yet?"'
p4601
I1
sS'ignorance'
p4602
I1
sS'cousin'
p4603
I1
sS'picking'
p4604
I2
sS'weekend\x85'
p4605
I1
sS'suggested'
p4606
I1
sS'uncertainty'
p4607
I1
sS'against'
p4608
I23
sS'"Her'
p4609
I1
sS'Carlisle'
p4610
I31
sS'perplexed.'
p4611
I1
sS'appeared'
p4612
I3
sS'lullaby'
p4613
I2
sS'leader.'
p4614
I1
sS'lanterns'
p4615
I2
sS'boys.'
p4616
I1
sS'wedding!'
p4617
I1
sS'"after"'
p4618
I2
sS'passed\x97he'
p4619
I1
sS'Adorable'
p4620
I1
sS'now,'
p4621
I17
sS'now.'
p4622
I21
sS'tan,'
p4623
I1
sS'abdominal'
p4624
I1
sS'asks'
p4625
I1
sS'Swan,"'
p4626
I1
sS'Waters'
p4627
I1
sS'ceiling,'
p4628
I1
sS'three'
p4629
I15
sS'tiny'
p4630
I7
sS'Early'
p4631
I2
sS'now?'
p4632
I2
sS'interest'
p4633
I2
sS'now;'
p4634
I1
sS'cringed.'
p4635
I1
sS'entered'
p4636
I2
sS'lovely'
p4637
I3
sS'threw'
p4638
I4
sS'spring.'
p4639
I1
sS'deeper'
p4640
I1
sS'spring,'
p4641
I1
sS'true,"'
p4642
I1
sS'suppress'
p4643
I2
sS'sunshine'
p4644
I1
sS'shattering'
p4645
I1
sS'tapping'
p4646
I3
sS'personally'
p4647
I1
sS'regretted'
p4648
I1
sS"Can't"
p4649
I1
sS'unpopular'
p4650
I1
sS'exception'
p4651
I2
sS'tank'
p4652
I3
sS'reddish'
p4653
I1
sS'slices,'
p4654
I1
sS'okay,'
p4655
I1
sS'okay.'
p4656
I1
sS'transformation'
p4657
I1
sS'ugly'
p4658
I1
sS'particular.'
p4659
I2
sS'melted'
p4660
I1
sS'suppose'
p4661
I1
sS'"Such'
p4662
I1
sS'ask.'
p4663
I1
sS'worse,'
p4664
I1
sS'thought,'
p4665
I2
sS'seven'
p4666
I4
sS'thought.'
p4667
I7
sS'back\x97but'
p4668
I2
sS'is'
p4669
I120
sS'it'
p4670
I272
sS'thought"'
p4671
I1
sS'pretty."'
p4672
I1
sS'in'
p4673
I514
sS'disappear'
p4674
I1
sS'if'
p4675
I93
sS'grown'
p4676
I3
sS'growl'
p4677
I2
sS'make'
p4678
I31
sS'filtered'
p4679
I2
sS'condemnation'
p4680
I1
sS'can.'
p4681
I1
sS'soil.'
p4682
I1
sS'opportunity'
p4683
I1
sS'"Kevin'
p4684
I1
sS'thoughts'
p4685
I7
sS'kid'
p4686
I2
sS'settled'
p4687
I4
sS'failing'
p4688
I1
sS'directly'
p4689
I1
sS'qualities'
p4690
I1
sS'cool,'
p4691
I1
sS'handkerchief-sized'
p4692
I1
sS'left'
p4693
I19
sS'dream,'
p4694
I3
sS'dream.'
p4695
I4
sS'just'
p4696
I93
sS'versed'
p4697
I1
sS'sporting'
p4698
I2
sS'fans,"'
p4699
I1
sS'assigned'
p4700
I1
sS'shocked'
p4701
I1
sS'human'
p4702
I31
sS'feet.'
p4703
I1
sS'doubts,'
p4704
I1
sS'yes'
p4705
I1
sS'yet'
p4706
I8
sS'impending'
p4707
I1
sS'anything!"'
p4708
I1
sS'royal'
p4709
I1
sS'jeweler'
p4710
I1
sS'crescent-shaped'
p4711
I1
sS'save'
p4712
I4
sS'Abruptly,'
p4713
I2
sS'ago,'
p4714
I1
sS'ago.'
p4715
I1
sS'fluidity'
p4716
I1
sS'fact.'
p4717
I1
sS'fact,'
p4718
I2
sS'involuntary'
p4719
I1
sS'either."'
p4720
I4
sS'it\x97for'
p4721
I1
sS'wanting'
p4722
I1
sS'strap'
p4723
I1
sS'shoulder'
p4724
I3
sS'justice.'
p4725
I1
sS'unnecessary'
p4726
I3
sS'through."'
p4727
I1
sS"Edward's.)"
p4728
I1
sS'satisfaction.'
p4729
I1
sS'Hilarious.'
p4730
I1
sS'Heimlich'
p4731
I1
sS'deal'
p4732
I3
sS'assimilating'
p4733
I2
sS'somehow'
p4734
I3
sS'dead'
p4735
I4
sS'me\x97with'
p4736
I1
sS'tripped'
p4737
I2
sS'shapes'
p4738
I1
sS'dense'
p4739
I1
sS'dream\x85'
p4740
I1
sS'daytime'
p4741
I1
sS'meanings'
p4742
I1
sS'novelties'
p4743
I1
sS'burn'
p4744
I1
sS'"Try'
p4745
I1
sS'told,'
p4746
I1
sS'super'
p4747
I1
sS'yelling'
p4748
I1
sS'conceal'
p4749
I1
sS'Hearing'
p4750
I1
sS'afternoon'
p4751
I1
sS'status.'
p4752
I1
sS'law...."'
p4753
I1
sS'automatically'
p4754
I2
sS'nerve'
p4755
I1
sS'Dad.'
p4756
I2
sS'for.'
p4757
I4
sS'lied'
p4758
I2
sS'low,'
p4759
I1
sS'down'
p4760
I50
sS'lies'
p4761
I2
sS'frightened'
p4762
I4
sS'stance.'
p4763
I1
sS'midnight,'
p4764
I1
sS'flying'
p4765
I2
sS'"Alice'
p4766
I4
sS'vision'
p4767
I2
sS'job."'
p4768
I2
sS'prepared.'
p4769
I1
sS'fraction'
p4770
I2
sS'dizzy."'
p4771
I1
sS'creation'
p4772
I1
sS'secondhand'
p4773
I1
sS'form'
p4774
I2
sS'what?'
p4775
I3
sS'lie.'
p4776
I1
sS'lie,'
p4777
I1
sS'"One'
p4778
I2
sS'titters'
p4779
I1
sS'skin\x97trust'
p4780
I1
sS'assessment'
p4781
I1
sS'have."'
p4782
I2
sS'trends'
p4783
I1
sS'"Waste'
p4784
I1
sS'temper'
p4785
I1
sS'discovery,'
p4786
I1
sS'classic'
p4787
I1
sS'easy."'
p4788
I2
sS'stirrings'
p4789
I1
sS'explained,'
p4790
I2
sS'explained.'
p4791
I3
sS'Dad\x85'
p4792
I1
sS'handed'
p4793
I7
sS"kitchen's"
p4794
I1
sS'ribbons'
p4795
I1
sS'Volturi,'
p4796
I3
sS'willingness,'
p4797
I1
sS'felt'
p4798
I34
sS'Drive'
p4799
I1
sS'diet'
p4800
I2
sS'fell'
p4801
I4
sS'nice\x97a'
p4802
I1
sS'hissed.'
p4803
I2
sS'aware'
p4804
I8
sS'weekend'
p4805
I1
sS'ribbon,'
p4806
I2
sS'assume'
p4807
I2
sS'blushing'
p4808
I2
sS'jacket'
p4809
I2
sS'exist."'
p4810
I1
sS'alert,'
p4811
I1
sS'teeth'
p4812
I4
sS'anything\x97"'
p4813
I1
sS'room."'
p4814
I2
sS'managed'
p4815
I3
sS'skip'
p4816
I3
sS'bogusly'
p4817
I1
sS'souls'
p4818
I4
sS'skin'
p4819
I18
sS'continued,'
p4820
I3
sS'continued.'
p4821
I3
sS'vacationed'
p4822
I1
sS'suicide'
p4823
I1
sS'lids.'
p4824
I1
sS'father'
p4825
I4
sS'travel.'
p4826
I1
sS'blocking'
p4827
I2
sS'answered'
p4828
I3
sS'finally'
p4829
I14
sS'"So'
p4830
I4
sS'Nice.'
p4831
I1
sS'off.'
p4832
I3
sS'Certainly'
p4833
I2
sS'me'
p4834
I275
sS'second"\x97he'
p4835
I1
sS'string'
p4836
I1
sS'strangers,'
p4837
I2
sS'soul.'
p4838
I3
sS'soul,'
p4839
I5
sS'earliest,"'
p4840
I1
sS'fictionalized.'
p4841
I1
sS'Where'
p4842
I3
sS'hugest'
p4843
I1
sS'did'
p4844
I47
sS'die'
p4845
I2
sS'Seeker?"'
p4846
I1
sS'item'
p4847
I1
sS'stapled'
p4848
I1
sS'grimace'
p4849
I1
sS'round'
p4850
I1
sS'anesthetic'
p4851
I1
sS'pants'
p4852
I1
sS'unexpected'
p4853
I1
sS'fearing'
p4854
I2
sS'else,'
p4855
I2
sS'man."'
p4856
I1
sS'else.'
p4857
I2
sS'inconsequential'
p4858
I1
sS'Darren'
p4859
I9
sS'appetite.'
p4860
I1
sS'running.'
p4861
I2
sS'else?'
p4862
I1
sS'material."'
p4863
I1
sS'sphere,'
p4864
I1
sS'Heat'
p4865
I1
sS'suspect'
p4866
I1
sS'bruise.'
p4867
I1
sS'"Charlie,"'
p4868
I1
sS'silly,'
p4869
I2
sS'many\x97What'
p4870
I1
sS'filled'
p4871
I8
sS'growls'
p4872
I1
sS'promised."'
p4873
I1
sS'cold?"'
p4874
I1
sS'them,"'
p4875
I1
sS'wait'
p4876
I7
sS'here;'
p4877
I2
sS'sweater.'
p4878
I1
sS'here?'
p4879
I3
sS'salvage'
p4880
I1
sS'grinned'
p4881
I1
sS'half-opened,'
p4882
I1
sS'women'
p4883
I1
sS'"Maybe.'
p4884
I1
sS'here.'
p4885
I11
sS'suggestion'
p4886
I1
sS'here,'
p4887
I8
sS'shook'
p4888
I8
sS'synchronization.'
p4889
I1
sS'genuinely'
p4890
I1
sS'teenage'
p4891
I1
sS'useful'
p4892
I1
sS'queasy.'
p4893
I1
sS'"Where'
p4894
I3
sS'merely'
p4895
I2
sS'When'
p4896
I25
sS'missing?"'
p4897
I1
sS'sweating'
p4898
I2
sS'awoke.'
p4899
I1
sS'warned,'
p4900
I1
sS'least."'
p4901
I2
sS'visit'
p4902
I3
sS'ways,'
p4903
I1
sS'try.'
p4904
I1
sS'thing\x97not'
p4905
I1
sS'lessened'
p4906
I1
sS'responses.'
p4907
I1
sS'Swan'
p4908
I1
sS'Ben'
p4909
I2
sS'bluffing."'
p4910
I1
sS'rigid'
p4911
I1
sS'effort'
p4912
I4
sS'capturing'
p4913
I1
sS'"They'
p4914
I10
sS'soul'
p4915
I19
sS'sour'
p4916
I2
sS'"Then'
p4917
I2
sS'cream?'
p4918
I1
sS'growing'
p4919
I2
sS'making'
p4920
I18
sS'nearest'
p4921
I1
sS'crazy'
p4922
I2
sS'aisle.'
p4923
I1
sS'aisle,'
p4924
I1
sS'predict'
p4925
I1
sS'messages.'
p4926
I1
sS'confused'
p4927
I2
sS'unmentionable,'
p4928
I1
sS'pointedly'
p4929
I1
sS'guarded'
p4930
I1
sS'battered'
p4931
I1
sS'gentle,'
p4932
I2
sS'pink'
p4933
I4
sS'dumb.'
p4934
I1
sS'Swan."'
p4935
I1
sS'pine'
p4936
I1
sS'till'
p4937
I8
sS'swore'
p4938
I1
sS'pins'
p4939
I1
sS'sworn'
p4940
I2
sS'pathway'
p4941
I1
sS'amiss.'
p4942
I1
sS'map'
p4943
I2
sS'designer'
p4944
I1
sS'may'
p4945
I2
sS'night."'
p4946
I1
sS'mad'
p4947
I1
sS'destructive'
p4948
I1
sS'classroom,'
p4949
I2
sS'man'
p4950
I14
sS'omen'
p4951
I1
sS'maybe'
p4952
I10
sS'Trig'
p4953
I2
sS'silence'
p4954
I6
sS'tall'
p4955
I5
sS'still-life'
p4956
I1
sS'gesture'
p4957
I1
sS'shield'
p4958
I1
sS'wishing'
p4959
I1
sS'shake'
p4960
I3
sS'view,'
p4961
I1
sS'klutz'
p4962
I1
sS'view.'
p4963
I1
sS'wheeze'
p4964
I2
sS'group'
p4965
I1
sS'monitor'
p4966
I1
sS'interesting'
p4967
I3
sS'admits.'
p4968
I1
sS'months.'
p4969
I1
sS'got\x85'
p4970
I1
sS'stitched'
p4971
I1
sS'Cullen'
p4972
I18
sS'Irina\x97who'
p4973
I1
sS'World'
p4974
I1
sS'main'
p4975
I2
sS'truest'
p4976
I1
sS'tucked'
p4977
I2
sS'rattled'
p4978
I1
sS'argue,'
p4979
I1
sS'lesser'
p4980
I2
sS'argue.'
p4981
I2
sS'She'
p4982
I63
sS'shoe,'
p4983
I1
sS'opens,'
p4984
I1
sS'kids,'
p4985
I1
sS'killed'
p4986
I2
sS'kids.'
p4987
I1
sS'uncrossable'
p4988
I1
sS'Hungry?"'
p4989
I1
sS'aware,'
p4990
I1
sS'these.'
p4991
I1
sS'aware!'
p4992
I1
sS'vogue'
p4993
I1
sS'much."'
p4994
I1
sS'treacherous'
p4995
I1
sS'unlock'
p4996
I1
sS'girl'
p4997
I9
sS'winced.'
p4998
I1
sS'yes.'
p4999
I1
sS'Edward\x97still'
p5000
I1
sS'wife."'
p5001
I1
sS'miles'
p5002
I4
sS'thin,'
p5003
I2
sS'assurance'
p5004
I1
sS'"Soon."'
p5005
I1
sS'earlier'
p5006
I1
sS'sideways'
p5007
I2
sS'Sometimes'
p5008
I3
sS'pumping'
p5009
I1
sS'Anger'
p5010
I1
sS'existed.'
p5011
I1
sS'sunlight.'
p5012
I2
sS'snorted.'
p5013
I1
sS'spied'
p5014
I1
sS'Already'
p5015
I1
sS'language'
p5016
I5
sS'Being'
p5017
I1
sS'drizzling'
p5018
I1
sS"dress's"
p5019
I1
sS'thing'
p5020
I17
sS'kids\x85'
p5021
I1
sS'think'
p5022
I59
sS'waited'
p5023
I10
sS'first'
p5024
I34
sS'cheese'
p5025
I1
sS"How's"
p5026
I1
sS'fleeing'
p5027
I1
sS'question'
p5028
I7
sS'crib'
p5029
I1
sS'but,'
p5030
I3
sS'Floral,'
p5031
I1
sS'print.'
p5032
I1
sS'Black'
p5033
I1
sS'mean\x97a'
p5034
I1
sS'carry'
p5035
I2
sS'Probably'
p5036
I1
sS'sounds'
p5037
I2
sS'eye,'
p5038
I3
sS'eye.'
p5039
I3
sS'little'
p5040
I43
sS'movie."'
p5041
I1
sS'"Open'
p5042
I2
sS'arch'
p5043
I1
sS'slept'
p5044
I1
sS'immortals'
p5045
I1
sS'anyone'
p5046
I10
sS'pockets.'
p5047
I1
sS'Every'
p5048
I3
sS'outsiders,'
p5049
I1
sS'Push,'
p5050
I1
sS'speaking'
p5051
I5
sS'now?"'
p5052
I3
sS'sound,'
p5053
I4
sS'sound.'
p5054
I4
sS'accurately'
p5055
I1
sS'Ridiculous.'
p5056
I1
sS'blacklist'
p5057
I2
sS'sound;'
p5058
I1
sS'reassuringly.'
p5059
I1
sS'ready,"'
p5060
I1
sS'eyed'
p5061
I1
sS'seat'
p5062
I6
sS'scraping'
p5063
I1
sS'World."'
p5064
I2
sS'immortal,'
p5065
I1
sS'immortal.'
p5066
I1
sS'asking.'
p5067
I1
sS'were'
p5068
I171
sS'clothes."'
p5069
I1
sS'inferring'
p5070
I1
sS'noted.'
p5071
I2
sS'gathering'
p5072
I1
sS'complaint.'
p5073
I1
sS"He's"
p5074
I10
sS'patted'
p5075
I2
sS'voices'
p5076
I6
sS"He'd"
p5077
I5
sS'himself'
p5078
I3
sS'spectacle'
p5079
I1
sS'voiced'
p5080
I2
sS'furious.'
p5081
I2
sS'occupied'
p5082
I1
sS'bet.'
p5083
I1
sS'Do'
p5084
I5
sS'clung'
p5085
I3
sS'isolate'
p5086
I1
sS'story,"'
p5087
I1
sS'gladly.'
p5088
I1
sS'eyepiece'
p5089
I1
sS'switching'
p5090
I1
sS'pain'
p5091
I9
sS'trace'
p5092
I3
sS'normal'
p5093
I4
sS'track'
p5094
I2
sS'paid'
p5095
I1
sS'voice,'
p5096
I4
sS'voice.'
p5097
I9
sS'sheets'
p5098
I1
sS'complaints'
p5099
I2
sS'tugging'
p5100
I2
sS'conspicuous'
p5101
I1
sS'"With'
p5102
I1
sS'especially'
p5103
I2
sS'wreathed'
p5104
I1
sS'suicide,"'
p5105
I1
sS'gracefully'
p5106
I1
sS'Mom,'
p5107
I2
sS'food."'
p5108
I1
sS'alone,'
p5109
I2
sS'alone.'
p5110
I4
sS'precise'
p5111
I2
sS'shot'
p5112
I4
sS'show'
p5113
I5
sS'"He\'s'
p5114
I3
sS'easy,"'
p5115
I1
sS'"Well\x85'
p5116
I1
sS'bedside'
p5117
I1
sS'Wondering'
p5118
I1
sS'corner'
p5119
I7
sS'Hmmm.'
p5120
I1
sS'curled'
p5121
I1
sS'enthusiast'
p5122
I1
sS'fend'
p5123
I1
sS'We'
p5124
I26
sS'enough'
p5125
I26
sS'paused'
p5126
I4
sS'black'
p5127
I17
sS'enthusiasm'
p5128
I2
sS"up\x97I'm"
p5129
I1
sS'awareness'
p5130
I1
sS'"She\'s'
p5131
I3
sS'get'
p5132
I75
sS'drawing.'
p5133
I1
sS'Worse,'
p5134
I1
sS'prolonged'
p5135
I1
sS'bad."'
p5136
I1
sS'nearly'
p5137
I8
sS'"She\'d'
p5138
I1
sS'human\x85)'
p5139
I1
sS'"Hmm.'
p5140
I1
sS'seared'
p5141
I1
sS'morning'
p5142
I2
sS'accounts,'
p5143
I1
sS'stupid'
p5144
I2
sS'blanched'
p5145
I1
sS'fringes,'
p5146
I1
sS'finishing'
p5147
I1
sS'worrying'
p5148
I1
sS'silently'
p5149
I1
sS'"Carefully'
p5150
I1
sS'declared'
p5151
I2
sS'heartbeats.'
p5152
I1
sS'heartbeats,'
p5153
I1
sS'stipulation'
p5154
I2
sS"Edward's."
p5155
I1
sS'calendar'
p5156
I1
sS'Tasered.'
p5157
I1
sS'wonder'
p5158
I3
sS'"Here,'
p5159
I2
sS'camping'
p5160
I1
sS'label'
p5161
I1
sS"father's"
p5162
I2
sS'behind'
p5163
I21
sS'herself,'
p5164
I1
sS'"Well,'
p5165
I19
sS'reading'
p5166
I2
sS'across'
p5167
I13
sS'oversized'
p5168
I2
sS'date.'
p5169
I1
sS'whispered'
p5170
I6
sS'FOOD'
p5171
I1
sS'pained'
p5172
I1
sS'killing'
p5173
I1
sS'honest,'
p5174
I2
sS'mutters,'
p5175
I1
sS'reaction...'
p5176
I1
sS'Each'
p5177
I1
sS'erased.'
p5178
I1
sS'Gran.'
p5179
I1
sS'doing?'
p5180
I1
sS'Gran,'
p5181
I2
sS'check.'
p5182
I1
sS'peace!"'
p5183
I1
sS'row,'
p5184
I1
sS'honest.'
p5185
I1
sS'chatter,'
p5186
I1
sS'spare'
p5187
I1
sS'diamond?'
p5188
I1
sS'Perfume,'
p5189
I1
sS'among'
p5190
I5
sS'over-helpful.'
p5191
I1
sS'stretched'
p5192
I6
sS'cancel'
p5193
I1
sS'ordered'
p5194
I1
sS'destroyed'
p5195
I1
sS'unusual'
p5196
I3
sS'capable'
p5197
I2
sS'"C\'mon,"'
p5198
I1
sS'mark'
p5199
I1
sS'marked.'
p5200
I1
sS'shopping'
p5201
I2
sS'offered'
p5202
I4
sS'"Does'
p5203
I1
sS'suns,'
p5204
I1
sS'dangerous'
p5205
I1
sS'gripped'
p5206
I1
sS'those'
p5207
I11
sS'breakfast,'
p5208
I1
sS'sound'
p5209
I21
sS'carton'
p5210
I1
sS'stacked'
p5211
I1
sS'Marshall'
p5212
I1
sS'B).'
p5213
I1
sS'problem,'
p5214
I4
sS'Besides,'
p5215
I2
sS'net.'
p5216
I1
sS'blood?"'
p5217
I1
sS'rubbing'
p5218
I1
sS'"monkey'
p5219
I1
sS'sleeping'
p5220
I1
sS'middle'
p5221
I5
sS'pressing'
p5222
I1
sS'Chevy.'
p5223
I2
sS'different'
p5224
I11
sS'(who'
p5225
I1
sS'harsh'
p5226
I2
sS'doctor'
p5227
I3
sS'urged.'
p5228
I1
sS'same'
p5229
I21
sS'Plane'
p5230
I2
sS'speech'
p5231
I2
sS'favor,"'
p5232
I1
sS'stepped'
p5233
I6
sS'disappointment'
p5234
I1
sS'movement,'
p5235
I1
sS'movement.'
p5236
I3
sS'oil'
p5237
I1
sS'Chevys'
p5238
I1
sS'knowledge,'
p5239
I1
sS'running'
p5240
I4
sS'been.'
p5241
I3
sS'guardians'
p5242
I1
sS'bathroom.'
p5243
I1
sS'bathroom,'
p5244
I1
sS'totally'
p5245
I1
sS'noticeable.'
p5246
I1
sS'else\x97am'
p5247
I1
sS'businesslike'
p5248
I1
sS'argument.'
p5249
I2
sS'traded'
p5250
I3
sS'objection'
p5251
I1
sS'bottle'
p5252
I1
sS'absence,'
p5253
I1
sS'bag.'
p5254
I2
sS'bag,'
p5255
I3
sS'blanket.'
p5256
I1
sS'lumbered'
p5257
I1
sS'summers,'
p5258
I1
sS'money'
p5259
I4
sS'time!"'
p5260
I1
sS'thudding'
p5261
I1
sS'tense.'
p5262
I1
sS'palms.'
p5263
I1
sS'"Violence'
p5264
I1
sS'Bell."'
p5265
I1
sS'pile'
p5266
I5
sS'grip'
p5267
I4
sS'obligingly'
p5268
I1
sS'grit'
p5269
I1
sS'up\x97and'
p5270
I1
sS'considerately'
p5271
I1
sS'sight.'
p5272
I1
sS'sight,'
p5273
I2
sS'English,'
p5274
I3
sS'mom'
p5275
I10
sS'less-alarming'
p5276
I1
sS'missing.'
p5277
I1
sS'identifying'
p5278
I1
sS'Weed,'
p5279
I1
sS'unarmed!'
p5280
I1
sS'facing'
p5281
I1
sS'audience'
p5282
I2
sS'either'
p5283
I1
sS'served'
p5284
I1
sS'voluntarily'
p5285
I1
sS'rush?"'
p5286
I1
sS'second.'
p5287
I4
sS'second,'
p5288
I12
sS'New'
p5289
I1
sS'matching'
p5290
I2
sS'spasm'
p5291
I1
sS'booming'
p5292
I1
sS'Four'
p5293
I1
sS'pocket,'
p5294
I2
sS'"That\'s'
p5295
I18
sS'overly'
p5296
I3
sS'asleep\x85'
p5297
I1
sS'expressing'
p5298
I1
sS'claustrophobia'
p5299
I1
sS'station.'
p5300
I1
sS'linoleum'
p5301
I1
sS'"Slide'
p5302
I1
sS'cab.'
p5303
I1
sS'seconds'
p5304
I1
sS'unopened'
p5305
I1
sS'somewhere."'
p5306
I1
sS'broken'
p5307
I3
sS'nickname,"'
p5308
I1
sS'obsession,'
p5309
I1
sS'giggle'
p5310
I1
sS'understanding.'
p5311
I1
sS'violence'
p5312
I3
sS'community,'
p5313
I1
sS'pockets'
p5314
I2
sS'mixed'
p5315
I1
sS'out,'
p5316
I5
sS'out.'
p5317
I7
sS'quietly'
p5318
I2
sS'whiter'
p5319
I1
sS'spreading'
p5320
I1
sS'staircase,'
p5321
I1
sS'up."'
p5322
I1
sS'strip'
p5323
I1
sS'morning,'
p5324
I4
sS'attractive,"'
p5325
I1
sS'morning.'
p5326
I3
sS'Leah.'
p5327
I2
sS'Though'
p5328
I11
sS'corrected.'
p5329
I2
sS'dress?'
p5330
I1
sS'wide\x97and'
p5331
I1
sS'planet\x97Earth,'
p5332
I1
sS'fridge."'
p5333
I1
sS'hysterical'
p5334
I1
sS'truck'
p5335
I19
sS'tobacco,'
p5336
I1
sS'white.'
p5337
I1
sS'walkway'
p5338
I1
sS'terrifying.'
p5339
I1
sS'smugly.'
p5340
I1
sS'downstairs'
p5341
I1
sS'wild.'
p5342
I1
sS'anatomy,'
p5343
I1
sS'anatomy.'
p5344
I1
sS'again,"'
p5345
I1
sS"wasn't"
p5346
I55
sS'billowed'
p5347
I1
sS'faces?'
p5348
I1
sS'images.'
p5349
I1
sS'peeking'
p5350
I1
sS'ones,'
p5351
I1
sS'altogether\x97except'
p5352
I1
sS'faces,'
p5353
I1
sS'faces.'
p5354
I3
sS'away).'
p5355
I1
sS'Milk,'
p5356
I1
sS'mind."'
p5357
I1
sS'deep'
p5358
I14
sS'examine'
p5359
I3
sS'to?"'
p5360
I1
sS"she'd"
p5361
I13
sS'sure\x85'
p5362
I1
sS'lifetime'
p5363
I1
sS'film'
p5364
I1
sS'fill'
p5365
I1
sS'back.'
p5366
I8
sS'As'
p5367
I27
sS'field'
p5368
I1
sS'wet,'
p5369
I2
sS'"Emmett,'
p5370
I1
sS'sick.'
p5371
I2
sS'students'
p5372
I6
sS'planet,'
p5373
I1
sS'planet.'
p5374
I2
sS'fight!\x97were'
p5375
I1
sS'Jasper?"'
p5376
I1
sS'video.'
p5377
I1
sS'awkwardly'
p5378
I2
sS'tendency.'
p5379
I1
sS'turtleneck'
p5380
I1
sS'tightened'
p5381
I2
sS'Toyota,'
p5382
I1
sS'starting'
p5383
I4
sS'silent.'
p5384
I1
sS'agreed.'
p5385
I2
sS'forget'
p5386
I7
sS'news."'
p5387
I1
sS'slung'
p5388
I1
sS'translation,'
p5389
I1
sS'expressions'
p5390
I1
sS'children'
p5391
I3
sS'shattered'
p5392
I2
sS'red-hot'
p5393
I1
sS'awkwardness.'
p5394
I1
sS'Bronte,'
p5395
I1
sS'souls."'
p5396
I1
sS'day,'
p5397
I4
sS'sense\x97if'
p5398
I1
sS'footsteps!'
p5399
I1
sS'human\x85'
p5400
I1
sS'mother,'
p5401
I2
sS'swallow'
p5402
I1
sS'mother.'
p5403
I5
sS'enjoying'
p5404
I1
sS'them!"'
p5405
I1
sS'me\x97almost'
p5406
I1
sS'mostly."'
p5407
I1
sS'expression,'
p5408
I1
sS'expression.'
p5409
I6
sS'Jeep'
p5410
I1
sS'bowery'
p5411
I1
sS'college?'
p5412
I1
sS'sun.'
p5413
I5
sS'sun,'
p5414
I1
sS'fall'
p5415
I6
sS'difference'
p5416
I3
sS'elated'
p5417
I1
sS'washing'
p5418
I3
sS"Don't"
p5419
I3
sS'along.'
p5420
I1
sS'along,'
p5421
I1
sS'nine,'
p5422
I1
sS'undulated'
p5423
I1
sS'"Bella,'
p5424
I3
sS"Darren's"
p5425
I2
sS'then."'
p5426
I1
sS'thread.'
p5427
I2
sS'grabs'
p5428
I2
sS'quiet.'
p5429
I2
sS'quiet,'
p5430
I4
sS'further'
p5431
I1
sS'partners,'
p5432
I1
sS'chafing'
p5433
I1
sS'stood'
p5434
I12
sS'gash,'
p5435
I1
sS'youngest,'
p5436
I2
sS'devastating'
p5437
I2
sS'unmatching'
p5438
I1
sS'behave."'
p5439
I1
sS'tribute'
p5440
I2
sS'public'
p5441
I1
sS'movement'
p5442
I3
sS'ranged'
p5443
I1
sS'knife?'
p5444
I1
sS'reminders.'
p5445
I1
sS'operating'
p5446
I3
sS'speckles.'
p5447
I1
sS'gazes'
p5448
I1
sS'knife.'
p5449
I1
sS'title:'
p5450
I1
sS'knife,'
p5451
I1
sS'search'
p5452
I1
sS'exhausted.'
p5453
I1
sS'airport'
p5454
I1
sS'responded.'
p5455
I3
sS'narrow'
p5456
I2
sS'"I\x85"'
p5457
I1
sS'tottered'
p5458
I1
sS'"Steak'
p5459
I1
sS'America.'
p5460
I1
sS'bright,'
p5461
I1
sS'imagined.'
p5462
I1
sS'armed'
p5463
I1
sS'Europe'
p5464
I1
sS'archangel'
p5465
I1
sS'hillock'
p5466
I2
sS'wiped'
p5467
I2
sS'sarcasm.'
p5468
I1
sS'two'
p5469
I28
sS'guard,'
p5470
I1
sS'before?"'
p5471
I1
sS'hours\x85'
p5472
I1
sS'cedars'
p5473
I1
sS'staggering'
p5474
I1
sS'brisk'
p5475
I1
sS"family's"
p5476
I3
sS'landed'
p5477
I2
sS'Stryder.'
p5478
I1
sS'particular'
p5479
I3
sS'Cullens?"'
p5480
I1
sS'nineteen'
p5481
I1
sS'town'
p5482
I13
sS'none'
p5483
I4
sS'hour'
p5484
I4
sS'Edward?"'
p5485
I2
sS'though,"'
p5486
I2
sS'intercepted'
p5487
I1
sS'snickered,'
p5488
I1
sS"dancer's"
p5489
I1
sS'abandon'
p5490
I1
sS'nothing,'
p5491
I1
sS'nothing.'
p5492
I3
sS'marble'
p5493
I3
sS'lingered'
p5494
I3
sS'stubborn'
p5495
I2
sS'onslaught'
p5496
I1
sS'share'
p5497
I3
sS'seventeen-year-old'
p5498
I1
sS'conceding'
p5499
I1
sS'numbers'
p5500
I2
sS'sharp'
p5501
I7
sS'him.""He\'s'
p5502
I1
sS'needs'
p5503
I1
sS'awkward'
p5504
I4
sS'cocking'
p5505
I1
sS'comfort'
p5506
I3
sS'eat.'
p5507
I1
sS'camera.'
p5508
I1
sS"Pachelbel's"
p5509
I1
sS'painful.'
p5510
I1
sS'command."'
p5511
I1
sS'painful,'
p5512
I1
sS'great\x97it'
p5513
I1
sS'blood'
p5514
I8
sS'coming'
p5515
I12
sS'Edward\x97began'
p5516
I1
sS'gravel,'
p5517
I1
sS'response'
p5518
I2
sS'bleak'
p5519
I1
sS'box?"'
p5520
I1
sS'crowded'
p5521
I2
sS'unfamiliar.'
p5522
I1
sS'map.'
p5523
I1
sS'map,'
p5524
I1
sS'upholstered'
p5525
I1
sS'coal'
p5526
I1
sS'pay'
p5527
I3
sS'pleasure'
p5528
I1
sS'hesitated,'
p5529
I1
sS'need,'
p5530
I1
sS"that's"
p5531
I9
sS'What'
p5532
I19
sS'rounded'
p5533
I1
sS'wall,'
p5534
I1
sS'wall.'
p5535
I3
sS'through'
p5536
I76
sS'steady,'
p5537
I2
sS'male.'
p5538
I1
sS'steady.'
p5539
I1
sS'existence'
p5540
I1
sS'suffer'
p5541
I1
sS'later,'
p5542
I3
sS'thrilling'
p5543
I1
sS'habit.'
p5544
I1
sS'late'
p5545
I5
sS'microscopic'
p5546
I1
sS'raining.'
p5547
I2
sS'toes,'
p5548
I1
sS'arguments'
p5549
I1
sS'Bat'
p5550
I1
sS'someone'
p5551
I13
sS'thinking,'
p5552
I1
sS'encouraging'
p5553
I2
sS'phase),'
p5554
I1
sS'awry.'
p5555
I1
sS'bounded'
p5556
I1
sS'easily'
p5557
I1
sS'huddle'
p5558
I1
sS'resentment,'
p5559
I1
sS'fluttered'
p5560
I1
sS'today,"'
p5561
I1
sS'habits'
p5562
I1
sS'also.'
p5563
I1
sS'ex-wife,'
p5564
I1
sS'decorations?"'
p5565
I1
sS'watched,'
p5566
I2
sS'Seekers,'
p5567
I1
sS'Seekers.'
p5568
I1
sS'everyone'
p5569
I11
sS'difficult,'
p5570
I1
sS'difficult.'
p5571
I2
sS'house'
p5572
I12
sS'hard'
p5573
I27
sS'idea'
p5574
I8
sS'Sarcasm,'
p5575
I1
sS'course,"'
p5576
I1
sS'mealtime\x97the'
p5577
I1
sS'extended'
p5578
I1
sS'fist'
p5579
I2
sS'sacrificed.'
p5580
I1
sS'childish'
p5581
I1
sS'acting'
p5582
I1
sS'dejectedly'
p5583
I1
sS'computer,'
p5584
I2
sS'flowed'
p5585
I3
sS'edging'
p5586
I1
sS'backpack.'
p5587
I1
sS'cloaks,'
p5588
I2
sS'pleasant'
p5589
I2
sS'extraordinary'
p5590
I1
sS'others\x97Seth'
p5591
I1
sS'backed'
p5592
I1
sS'beginning'
p5593
I1
sS"Charlie's"
p5594
I14
sS'chairs,'
p5595
I1
sS'demands,'
p5596
I1
sS'muscles,'
p5597
I1
sS'needing'
p5598
I1
sS'suit"'
p5599
I1
sS'forgot!'
p5600
I1
sS'peaceful,'
p5601
I1
sS'indebted'
p5602
I1
sS'embraces'
p5603
I1
sS'"Mom\'s'
p5604
I1
sS'been,'
p5605
I3
sS'staying,"'
p5606
I1
sS'done'
p5607
I7
sS'precariously'
p5608
I1
sS'senses,'
p5609
I2
sS'"older"'
p5610
I1
sS'senses.'
p5611
I1
sS'twenty'
p5612
I2
sS'family,'
p5613
I4
sS'Very,'
p5614
I1
sS'least'
p5615
I13
sS'paint'
p5616
I1
sS'statement'
p5617
I1
sS'family?'
p5618
I1
sS'ride?"'
p5619
I2
sS'smoothed'
p5620
I1
sS'suppose.'
p5621
I1
sS'muscles'
p5622
I2
sS'needle'
p5623
I1
sS'sensation'
p5624
I5
sS'draped'
p5625
I2
sS'part'
p5626
I10
sS'believe'
p5627
I13
sS'embrace,'
p5628
I1
sS'carnage'
p5629
I1
sS'peaked'
p5630
I1
sS'elegant.'
p5631
I1
sS'incision'
p5632
I1
sS'gotten'
p5633
I5
sS'pain.'
p5634
I2
sS'supposed'
p5635
I6
sS'about?"'
p5636
I1
sS'"Ah,"'
p5637
I1
sS'curtains'
p5638
I1
sS'creases'
p5639
I3
sS'ear\x97his'
p5640
I1
sS'engagement?'
p5641
I1
sS'fading'
p5642
I1
sS'"No!'
p5643
I1
sS'mountain'
p5644
I1
sS'desire.'
p5645
I1
sS'built'
p5646
I1
sS'scrubby'
p5647
I1
sS'intercede.'
p5648
I1
sS'reflection,'
p5649
I1
sS'"No,'
p5650
I6
sS'"No.'
p5651
I1
sS'"Ha,'
p5652
I1
sS'build'
p5653
I1
sS'facts,'
p5654
I1
sS'order.'
p5655
I2
sS'serene'
p5656
I1
sS'reality'
p5657
I1
sS'eggs'
p5658
I2
sS'had."'
p5659
I1
sS'conspicuously'
p5660
I1
sS'age.'
p5661
I2
sS"fore'ter"
p5662
I1
sS'giggling'
p5663
I1
sS'Tyler,'
p5664
I1
sS'myeyes'
p5665
I1
sS'cramped'
p5666
I1
sS'"Not'
p5667
I6
sS'"Now'
p5668
I1
sS'particularly'
p5669
I1
sS'summer'
p5670
I4
sS'opaque.'
p5671
I1
sS'guests\x97they'
p5672
I1
sS'carefully'
p5673
I10
sS'hopped'
p5674
I1
sS'children."'
p5675
I2
sS'fine'
p5676
I1
sS'find'
p5677
I21
sS'skipper."'
p5678
I1
sS'depended'
p5679
I1
sS'fantasies.'
p5680
I1
sS'imagine."'
p5681
I1
sS'nervous'
p5682
I2
sS'ruin'
p5683
I1
sS'"Prophase,"'
p5684
I1
sS'unhappy'
p5685
I1
sS'explain,'
p5686
I1
sS'Bella,"'
p5687
I8
sS'disapproving.'
p5688
I1
sS'diplomats,'
p5689
I1
sS'toddlers'
p5690
I1
sS'silk'
p5691
I1
sS'spikes'
p5692
I1
sS'Suddenly'
p5693
I1
sS'remove'
p5694
I4
sS'idiot.'
p5695
I2
sS'common'
p5696
I2
sS'chime.'
p5697
I1
sS"Carlisle's"
p5698
I4
sS'neck."'
p5699
I1
sS'response?'
p5700
I2
sS'tended'
p5701
I2
sS'acquaintances,'
p5702
I1
sS'response,'
p5703
I1
sS'feared'
p5704
I2
sS'enveloped'
p5705
I1
sS'hungry!'
p5706
I1
sS'hungry.'
p5707
I3
sS'kitchen,'
p5708
I1
sS'kitchen.'
p5709
I3
sS'Tanya,'
p5710
I2
sS'burned'
p5711
I3
sS'brilliant.'
p5712
I1
sS'"Nice'
p5713
I1
sS'Dang'
p5714
I1
sS'missile-proof'
p5715
I2
sS'folding'
p5716
I2
sS'lightly.'
p5717
I1
sS'restaurant'
p5718
I1
sS'"We\'d'
p5719
I1
sS'drained'
p5720
I1
sS'foreign'
p5721
I1
sS'tightens'
p5722
I1
sS'talk,'
p5723
I1
sS'Yet'
p5724
I1
sS'repair,'
p5725
I1
sS'"Well'
p5726
I2
sS'Suddenly,'
p5727
I1
sS'point'
p5728
I7
sS'lifeless.'
p5729
I1
sS'newborn'
p5730
I1
sS'reversed?"'
p5731
I1
sS'simply'
p5732
I2
sS'forgetting,'
p5733
I1
sS'talents,'
p5734
I1
sS'expensive'
p5735
I3
sS'weaving'
p5736
I1
sS'raise'
p5737
I1
sS'straightforward,'
p5738
I1
sS'secret'
p5739
I5
sS'Sorry,'
p5740
I1
sS'gossip.'
p5741
I1
sS'meeting'
p5742
I3
sS'Daughter'
p5743
I1
sS'gas'
p5744
I5
sS'instant,'
p5745
I1
sS'dissension'
p5746
I1
sS'strange,'
p5747
I1
sS'skills.'
p5748
I1
sS'understand'
p5749
I7
sS"Charlie's."
p5750
I1
sS'protested.'
p5751
I3
sS'cake,'
p5752
I2
sS'unnecessarily'
p5753
I1
sS'bile'
p5754
I1
sS'fur'
p5755
I2
sS'hopeful.'
p5756
I1
sS'solid'
p5757
I2
sS'irises'
p5758
I1
sS'candles,'
p5759
I1
sS'replaced'
p5760
I2
sS'fun'
p5761
I5
sS'this\x97as'
p5762
I1
sS'wife,'
p5763
I2
sS'Bells,"'
p5764
I2
sS'century'
p5765
I1
sS'shades'
p5766
I1
sS'perilously'
p5767
I1
sS'husband,'
p5768
I1
sS'Tanya'
p5769
I2
sS'Uncomprehending,'
p5770
I1
sS'human,"'
p5771
I1
sS'hobby.'
p5772
I1
sS'personal,'
p5773
I1
sS'"Count'
p5774
I1
sS'Jamie.'
p5775
I2
sS'will."'
p5776
I1
sS'"Getting'
p5777
I2
sS'luck,"'
p5778
I1
sS'blossoms\x85'
p5779
I1
sS'development'
p5780
I1
sS'keys'
p5781
I1
sS'up!"'
p5782
I2
sS'victorious.'
p5783
I1
sS'desks'
p5784
I1
sS'moment'
p5785
I13
sS'nerves."'
p5786
I1
sS'task'
p5787
I1
sS'"Carlisle'
p5788
I2
sS'werewolf'
p5789
I1
sS'spent'
p5790
I4
sS'hyperventilation'
p5791
I1
sS'spend'
p5792
I6
sS'sorry.'
p5793
I1
sS'echoing'
p5794
I1
sS'memories.'
p5795
I1
sS'(he'
p5796
I1
sS'memories,'
p5797
I1
sS'entails.'
p5798
I1
sS'matter,'
p5799
I1
sS'irresistible,'
p5800
I1
sS'shape'
p5801
I2
sS'seven."'
p5802
I1
sS'circling'
p5803
I1
sS'lives,'
p5804
I1
sS'lives.'
p5805
I2
sS'letting'
p5806
I2
sS'cut'
p5807
I6
sS'six."'
p5808
I1
sS'hated'
p5809
I2
sS'world\x97a'
p5810
I1
sS'well.\x85"'
p5811
I1
sS'shouting'
p5812
I1
sS'dare'
p5813
I2
sS'moron.'
p5814
I1
sS'scowled'
p5815
I1
sS'excited'
p5816
I2
sS'hates'
p5817
I1
sS'ridiculously'
p5818
I1
sS'senior?"'
p5819
I1
sS'Did'
p5820
I4
sS'big'
p5821
I13
sS'jerked'
p5822
I2
sS'"Look,'
p5823
I1
sS'"Look!'
p5824
I1
sS'jobs,'
p5825
I1
sS'miffed'
p5826
I2
sS'"There'
p5827
I1
sS'Juice,'
p5828
I1
sS'jolted'
p5829
I1
sS'bamboo'
p5830
I1
sS'paused.'
p5831
I2
sS'often'
p5832
I3
sS'absolutely'
p5833
I3
sS'"Jasper?'
p5834
I1
sS"girl's"
p5835
I1
sS'Flowers,'
p5836
I1
sS'clearly\x97the'
p5837
I1
sS'mirror'
p5838
I2
sS'ourselves'
p5839
I1
sS'harrumphed\x97'
p5840
I1
sS"Emmett's"
p5841
I5
sS'scale'
p5842
I1
sS'decision'
p5843
I2
sS'good?'
p5844
I1
sS'Nothing'
p5845
I2
sS'pile,'
p5846
I1
sS'epic'
p5847
I1
sS'good,'
p5848
I3
sS'good.'
p5849
I4
sS'nose'
p5850
I4
sS'lounged'
p5851
I1
sS'else,"'
p5852
I1
sS'strapped'
p5853
I1
sS'remembered'
p5854
I5
sS'yoga,'
p5855
I1
sS'presence.'
p5856
I1
sS'Esme\x97impossibly'
p5857
I1
sS'taught,'
p5858
I1
sS'taught.'
p5859
I1
sS'public.'
p5860
I1
sS'tripping'
p5861
I2
sS'goods'
p5862
I2
sS"You'd"
p5863
I1
sS'"Guess'
p5864
I1
sS'ducts.'
p5865
I1
sS'graduation'
p5866
I1
sS'staircase.'
p5867
I1
sS'piled'
p5868
I1
sS'today."'
p5869
I4
sS'contact.'
p5870
I1
sS'Mercifully,'
p5871
I1
sS'jag.'
p5872
I1
sS'"Gah,"'
p5873
I1
sS'flinch.'
p5874
I1
sS'aliens'
p5875
I1
sS'boy.'
p5876
I2
sS'concerned.'
p5877
I1
sS'boy,'
p5878
I3
sS'concerned,'
p5879
I1
sS'"Actually,'
p5880
I2
sS'save,"'
p5881
I1
sS'calming'
p5882
I1
sS'careful;'
p5883
I1
sS'plane,'
p5884
I1
sS'plane.'
p5885
I2
sS'driveway.'
p5886
I1
sS'careful.'
p5887
I1
sS'forward'
p5888
I6
sS'bored'
p5889
I1
sS'frame.'
p5890
I1
sS'hoped'
p5891
I4
sS'"Huh,"'
p5892
I1
sS'noticed.'
p5893
I1
sS"I'll"
p5894
I11
sS'darkness,'
p5895
I2
sS'course."'
p5896
I1
sS'planet'
p5897
I2
sS'aversion'
p5898
I2
sS'disappeared'
p5899
I3
sS'roe.'
p5900
I1
sS'helpful,'
p5901
I1
sS'freeway.'
p5902
I1
sS'constant'
p5903
I2
sS'Selfconsciously,'
p5904
I1
sS'Perhaps'
p5905
I1
sS'metal'
p5906
I1
sS'Dr.'
p5907
I4
sS'blushed.'
p5908
I1
sS'blushed,'
p5909
I1
sS'single'
p5910
I2
sS"town's"
p5911
I1
sS'curl'
p5912
I1
sS'different."'
p5913
I1
sS'pecks'
p5914
I1
sS'blue,"'
p5915
I2
sS'plugged'
p5916
I1
sS'fading.'
p5917
I1
sS'shelters.'
p5918
I1
sS'brushing'
p5919
I1
sS'gaze.'
p5920
I1
sS'neck.'
p5921
I5
sS'neck,'
p5922
I2
sS'fished'
p5923
I1
sS'Oregon.'
p5924
I1
sS'"Could"'
p5925
I1
sS'relatives.'
p5926
I1
sS'fervently'
p5927
I1
sS'"What,'
p5928
I1
sS'admiring'
p5929
I1
sS'implied'
p5930
I1
sS'yourself!"'
p5931
I1
sS'health."'
p5932
I1
sS'pulsing'
p5933
I1
sS'intricate'
p5934
I1
sS'soul."'
p5935
I4
sS'he?"'
p5936
I2
sS'compose'
p5937
I1
sS'control\x97overwhelmed'
p5938
I1
sS'helps'
p5939
I2
sS'gravel'
p5940
I1
sS'partner?"'
p5941
I1
sS'gray,'
p5942
I1
sS'startlingly'
p5943
I1
sS'putting'
p5944
I4
sS'surgeon'
p5945
I1
sS'entire'
p5946
I2
sS'checking."'
p5947
I1
sS'help.'
p5948
I1
sS'shock'
p5949
I4
sS'relax,'
p5950
I1
sS'married'
p5951
I2
sS'help?'
p5952
I1
sS'unsatisfied'
p5953
I1
sS'think.'
p5954
I3
sS'safe.'
p5955
I1
sS'Bella."'
p5956
I1
sS'other,'
p5957
I2
sS'other.'
p5958
I3
sS'Long'
p5959
I1
sS'Gym.'
p5960
I1
sS'Gym,'
p5961
I1
sS'insertion'
p5962
I2
sS'here!"'
p5963
I1
sS'other?'
p5964
I1
sS'instead.'
p5965
I1
sS'birthday,"'
p5966
I3
sS'"Prophase."'
p5967
I1
sS'giving'
p5968
I2
sS'wilderness\x85'
p5969
I1
sS'access'
p5970
I1
sS'splinters'
p5971
I2
sS'feebly.'
p5972
I1
sS'events?"'
p5973
I2
sS'help\x85'
p5974
I1
sS'river;'
p5975
I1
sS'apologetic'
p5976
I1
sS'river,'
p5977
I1
sS'bachelor'
p5978
I3
sS'sink'
p5979
I1
sS'others'
p5980
I5
sS'same?"'
p5981
I1
sS'lovely,'
p5982
I3
sS'extreme'
p5983
I2
sS'lower-income'
p5984
I1
sS'"Must'
p5985
I1
sS'"Melanie,"'
p5986
I2
sS'eating,'
p5987
I1
sS'eating.'
p5988
I1
sS'shot,'
p5989
I1
sS'added,'
p5990
I3
sS'added.'
p5991
I3
sS'honor'
p5992
I1
sS'named'
p5993
I6
sS'blizzard'
p5994
I1
sS'flawless.'
p5995
I1
sS'baskets'
p5996
I1
sS'news\x97news'
p5997
I1
sS'names'
p5998
I5
sS'Weber'
p5999
I4
sS'Nice'
p6000
I1
sS'Q-tip,'
p6001
I1
sS'"Fine."'
p6002
I1
sS'debatable."'
p6003
I1
sS'note."'
p6004
I1
sS'Jessica.'
p6005
I2
sS'themselves'
p6006
I2
sS'assailed'
p6007
I1
sS'excitedly'
p6008
I2
sS'upcoming'
p6009
I1
sS'name.'
p6010
I5
sS'trait'
p6011
I1
sS'name,'
p6012
I9
sS'fianc\xe9,'
p6013
I1
sS'Albuquerque,'
p6014
I1
sS'train'
p6015
I2
sS'Relief'
p6016
I1
sS'Washington\x97and'
p6017
I1
sS'gruff'
p6018
I1
sS'obvious'
p6019
I3
sS'rectangle'
p6020
I1
sS'run.'
p6021
I1
sS'excited."'
p6022
I1
sS'relocated,'
p6023
I1
sS'water,'
p6024
I2
sS'high.'
p6025
I1
sS'bones'
p6026
I2
sS'building,'
p6027
I1
sS'"Moot'
p6028
I1
sS'building.'
p6029
I1
sS'honeymoon.'
p6030
I1
sS'noises'
p6031
I2
sS'holds'
p6032
I1
sS'line.'
p6033
I4
sS'responsibilities'
p6034
I1
sS'snipping'
p6035
I1
sS'forest'
p6036
I2
sS'later?"'
p6037
I1
sS'stock'
p6038
I1
sS'buildings'
p6039
I1
sS'waters'
p6040
I1
sS'collection'
p6041
I2
sS'bothered'
p6042
I3
sS'sadistic'
p6043
I1
sS'meaning."'
p6044
I1
sS'fickle?'
p6045
I1
sS'good,"'
p6046
I1
sS'gone.'
p6047
I4
sS'wanted;'
p6048
I1
sS'lines'
p6049
I6
sS'winner.'
p6050
I1
sS'chief'
p6051
I1
sS'dinner.'
p6052
I2
sS'hold.'
p6053
I1
sS'lined'
p6054
I2
sS'wanted,'
p6055
I1
sS'wanted.'
p6056
I3
sS'wedding'
p6057
I10
sS'whimpered'
p6058
I1
sS'Beside'
p6059
I2
sS'hugged'
p6060
I2
sS'breaths,'
p6061
I1
sS'burning'
p6062
I4
sS'me?"'
p6063
I3
sS'winning'
p6064
I1
sS'kindergarten'
p6065
I1
sS'willing'
p6066
I2
sS'rough,'
p6067
I1
sS'backpedaled.'
p6068
I1
sS'dad'
p6069
I6
sS'greater'
p6070
I2
sS'"Good."'
p6071
I1
sS'forgotten?'
p6072
I1
sS'sculpture,'
p6073
I1
sS'insisting'
p6074
I1
sS'agreed,'
p6075
I1
sS'day'
p6076
I16
sS'forgotten.'
p6077
I2
sS'sky,'
p6078
I1
sS'human."'
p6079
I2
sS'snowdrift'
p6080
I1
sS'warned'
p6081
I2
sS'least,'
p6082
I1
sS'taboo.'
p6083
I1
sS'embellished'
p6084
I1
sS'From'
p6085
I1
sS'bothturned'
p6086
I1
sS'Sharon\x97I'
p6087
I1
sS'winked'
p6088
I1
sS'regardless.'
p6089
I2
sS'most.'
p6090
I1
sS'most,'
p6091
I1
sS'accumulated'
p6092
I1
sS'popping'
p6093
I1
sS'lungs,'
p6094
I1
sS'barrier,'
p6095
I1
sS'announcer'
p6096
I1
sS"don't,"
p6097
I1
sS"don't."
p6098
I2
sS'mid-thought.'
p6099
I1
sS'mate'
p6100
I1
sS'lecture'
p6101
I1
sS'wedding\x97which'
p6102
I1
sS'wincing'
p6103
I1
sS'announced'
p6104
I2
sS'approached'
p6105
I2
sS'weak."'
p6106
I1
sS'"Ha!"'
p6107
I1
sS'decorations,'
p6108
I1
sS'cold\x97and'
p6109
I1
sS'retriever'
p6110
I1
sS'yard'
p6111
I2
sS'paraphernalia'
p6112
I1
sS'curiously,'
p6113
I1
sS'south'
p6114
I1
sS'distracted'
p6115
I2
sS'braced'
p6116
I1
sS'reaches'
p6117
I1
sS'embarrassed'
p6118
I2
sS'reached'
p6119
I12
sS'grins,'
p6120
I1
sS'braces'
p6121
I1
sS'ancient'
p6122
I3
sS'raging."'
p6123
I1
sS'love.'
p6124
I2
sS'Red!'
p6125
I1
sS'love?'
p6126
I1
sS'wistfully'
p6127
I1
sS'scans'
p6128
I1
sS'Fluidly'
p6129
I1
sS'"See'
p6130
I2
sS'argumentative.'
p6131
I1
sS'articulation.'
p6132
I1
sS'loved'
p6133
I6
sS'scan.'
p6134
I1
sS'freesia'
p6135
I2
sS'flashed'
p6136
I3
sS'upon.'
p6137
I2
sS'boyish'
p6138
I1
sS'Emmett!"'
p6139
I1
sS'loves'
p6140
I1
sS'lap.'
p6141
I1
sS'flashes'
p6142
I1
sS'counting'
p6143
I1
sS'imaginative'
p6144
I1
sS'wakes'
p6145
I1
sS"Renee's"
p6146
I1
sS'comfortable'
p6147
I8
sS'disappointment.'
p6148
I1
sS'"It\'s'
p6149
I22
sS'have'
p6150
I159
sS'throat'
p6151
I7
sS'apparently'
p6152
I4
sS'Whatever'
p6153
I1
sS'cards.'
p6154
I1
sS'acceleration'
p6155
I2
sS'"Oh."'
p6156
I1
sS'teenagers.'
p6157
I2
sS'Gently,'
p6158
I1
sS'three?"'
p6159
I1
sS'hundreds!"'
p6160
I1
sS'expected,'
p6161
I4
sS'expected.'
p6162
I1
sS'Tomorrow,'
p6163
I1
sS'unavoidable.'
p6164
I1
sS'looking.'
p6165
I1
sS'unless'
p6166
I1
sS'mortal'
p6167
I1
sS"where's"
p6168
I1
sS'eight'
p6169
I2
sS'sedan'
p6170
I1
sS'enthusiastic'
p6171
I1
sS'gather'
p6172
I2
sS'concern,'
p6173
I1
sS'concern.'
p6174
I1
sS'park,'
p6175
I1
sS"that\x97I'd"
p6176
I1
sS'rendezvous'
p6177
I3
sS'occasion'
p6178
I1
sS'saying.'
p6179
I1
sS'searching,'
p6180
I1
sS'admit,"'
p6181
I1
sS'bags.'
p6182
I1
sS'accepted."'
p6183
I1
sS'Religion'
p6184
I1
sS'mechanic\x85"'
p6185
I1
sS'gasping'
p6186
I1
sS'combs.'
p6187
I1
sS'knowledge'
p6188
I3
sS'team,'
p6189
I1
sS'Jacob'
p6190
I2
sS'fumbled'
p6191
I1
sS'pull'
p6192
I4
sS'beat'
p6193
I2
sS'bag,"'
p6194
I1
sS'hopefully'
p6195
I2
sS'stripes'
p6196
I1
sS'bear'
p6197
I4
sS'beam'
p6198
I1
sS'"Apology'
p6199
I1
sS'Stories'
p6200
I1
sS'grapes.'
p6201
I1
sS'others\x97he'
p6202
I1
sS'nails,"'
p6203
I1
sS'him\x97conscious'
p6204
I1
sS'anything.'
p6205
I2
sS'anything,'
p6206
I2
sS'exist\x85'
p6207
I1
sS'motherhood'
p6208
I1
sS'Bright'
p6209
I1
sS'presentable."'
p6210
I1
sS'amazing!'
p6211
I1
sS'anything;'
p6212
I1
sS'blacktop\x97and'
p6213
I1
sS'"Now,'
p6214
I1
sS'straight.'
p6215
I2
sS'exists'
p6216
I2
sS'racked'
p6217
I1
sS'unknowns.'
p6218
I1
sS'intensity'
p6219
I1
sS'enhanced'
p6220
I1
sS'"vegetarian"'
p6221
I1
sS'resistance."'
p6222
I1
sS'phases'
p6223
I1
sS'Again,'
p6224
I3
sS'pattern'
p6225
I3
sS'"Today?'
p6226
I2
sS'routine'
p6227
I2
sS'pursed'
p6228
I1
sS'voucher'
p6229
I1
sS'nudged'
p6230
I2
sS'while."'
p6231
I1
sS'shifts.'
p6232
I1
sS'thanks.'
p6233
I1
sS'he,'
p6234
I1
sS'sweating,"'
p6235
I1
sS'Thriftway.'
p6236
I1
sS'squared-off'
p6237
I1
sS'exist,'
p6238
I1
sS'exist.'
p6239
I1
sS'summer),'
p6240
I1
sS'instant'
p6241
I1
sS'"Think'
p6242
I1
sS'joke'
p6243
I1
sS'taking'
p6244
I11
sS'"Would'
p6245
I2
sS'fulfilled'
p6246
I1
sS'assure'
p6247
I1
sS'busted'
p6248
I2
sS'passing'
p6249
I1
sS'gasped.'
p6250
I6
sS'glorious'
p6251
I1
sS'fifty-seven'
p6252
I1
sS'comment'
p6253
I1
sS'correctly?"'
p6254
I1
sS'"Do'
p6255
I19
sS'teasing'
p6256
I2
sS'not,"'
p6257
I1
sS'birthday."'
p6258
I1
sS'laugh'
p6259
I2
sS'done,'
p6260
I1
sS'done.'
p6261
I3
sS'rippled,'
p6262
I1
sS'pity,'
p6263
I1
sS'accusation.\x85'
p6264
I1
sS'sister\x85'
p6265
I1
sS'1935.'
p6266
I1
sS'gaze'
p6267
I1
sS'curtain'
p6268
I1
sS'copied'
p6269
I1
sS'home.'
p6270
I7
sS'home,'
p6271
I4
sS'listen,"'
p6272
I1
sS'angled'
p6273
I1
sS'Forks?"'
p6274
I1
sS'looked,'
p6275
I1
sS'glasses.'
p6276
I1
sS'finished'
p6277
I5
sS'tense'
p6278
I1
sS'volunteer'
p6279
I1
sS'crustiness'
p6280
I1
sS'plain'
p6281
I3
sS'stay-at-home,'
p6282
I1
sS'rectangular'
p6283
I2
sS'hampering'
p6284
I1
sS'ill'
p6285
I1
sS'carved'
p6286
I2
sS'hand-eye'
p6287
I1
sS'sister.'
p6288
I2
sS'sister,'
p6289
I3
sS'almost'
p6290
I22
sS'started.'
p6291
I1
sS'respected'
p6292
I1
sS'girlfriend'
p6293
I1
sS'shame.'
p6294
I1
sS'claimed'
p6295
I1
sS'crash'
p6296
I1
sS'host."'
p6297
I2
sS'comparison.'
p6298
I1
sS'"Sunny,"'
p6299
I1
sS'connected,'
p6300
I1
sS'though,'
p6301
I7
sS'though.'
p6302
I4
sS'grimaced.'
p6303
I1
sS'grimaced,'
p6304
I1
sS'slammed'
p6305
I5
sS'Stories.'
p6306
I1
sS'injured'
p6307
I1
sS'tighten'
p6308
I1
sS'pulse,'
p6309
I1
sS'again'
p6310
I9
sS'faces'
p6311
I5
sS'James,'
p6312
I1
sS'sisters'
p6313
I1
sS'judgment'
p6314
I1
sS'center'
p6315
I4
sS'overshadowed'
p6316
I1
sS'thought'
p6317
I39
sS'diet.'
p6318
I1
sS'position'
p6319
I1
sS'hesitates,'
p6320
I1
sS'usual'
p6321
I7
sS'appropriately,'
p6322
I1
sS'older,'
p6323
I1
sS'older.'
p6324
I1
sS'seats'
p6325
I2
sS'protecting'
p6326
I1
sS'flashlight'
p6327
I1
sS'flaming.'
p6328
I1
sS'work.'
p6329
I1
sS'Friday'
p6330
I2
sS'slower,'
p6331
I1
sS'Victoria'
p6332
I2
sS'add'
p6333
I1
sS'Deeply'
p6334
I1
sS'ought'
p6335
I2
sS'loss,'
p6336
I1
sS'ambush,'
p6337
I1
sS'seat,'
p6338
I3
sS'seat.'
p6339
I8
sS'gurgles,'
p6340
I1
sS'nickname,'
p6341
I1
sS'"Mom,'
p6342
I1
sS'naturally'
p6343
I2
sS'confusion.'
p6344
I1
sS'like'
p6345
I132
sS'inviting'
p6346
I1
sS'sofa'
p6347
I3
sS'thoroughly?"'
p6348
I1
sS'admitted'
p6349
I3
sS'cheerful.'
p6350
I1
sS'Fear'
p6351
I1
sS'soft'
p6352
I12
sS'heel'
p6353
I1
sS'simple,'
p6354
I1
sS'simple.'
p6355
I1
sS'preferable.'
p6356
I1
sS'fretted.'
p6357
I2
sS'authority'
p6358
I1
sS'hair'
p6359
I29
sS'ostracism'
p6360
I1
sS'convey'
p6361
I1
sS'know?\x97I'
p6362
I1
sS'proper'
p6363
I1
sS'happens'
p6364
I1
sS'Mike'
p6365
I23
sS'bulbous'
p6366
I1
sS'highlighting'
p6367
I1
sS'pleasant,'
p6368
I1
sS'blessing.'
p6369
I1
sS'"He?"'
p6370
I1
sS'thud,'
p6371
I1
sS'thud.'
p6372
I1
sS'burned,'
p6373
I1
sS'"Sure'
p6374
I2
sS'slight'
p6375
I3
sS'stuff,'
p6376
I1
sS'from\x85"'
p6377
I1
sS'applause,'
p6378
I1
sS'host'
p6379
I21
sS'snapped'
p6380
I2
sS'hurts.'
p6381
I2
sS'noisy'
p6382
I1
sS'about'
p6383
I74
sS'tray'
p6384
I4
sS'truck\x97a'
p6385
I1
sS'"Yes,"'
p6386
I5
sS'introduced'
p6387
I1
sS'awkward,'
p6388
I1
sS'backpackers'
p6389
I1
sS'Two'
p6390
I2
sS'stage-whispered.'
p6391
I1
sS'"Time'
p6392
I1
sS'die,"'
p6393
I1
sS'female'
p6394
I2
sS'Desperate,'
p6395
I1
sS'shocked.'
p6396
I1
sS'shocked,'
p6397
I1
sS'minute.'
p6398
I2
sS'dizzying'
p6399
I1
sS'minute,'
p6400
I1
sS'doorknob,'
p6401
I2
sS'minute"'
p6402
I1
sS'surprised,"'
p6403
I1
sS'Capulets'
p6404
I1
sS'mist.'
p6405
I1
sS'biggest'
p6406
I1
sS'earsplitting'
p6407
I1
sS'ivory'
p6408
I1
sS'"We\'ll'
p6409
I1
sS'hesitantly.'
p6410
I1
sS'brand'
p6411
I1
sS'but'
p6412
I134
sS'plague'
p6413
I2
sS'children.'
p6414
I1
sS'match.'
p6415
I1
sS'children,'
p6416
I3
sS'sprawling'
p6417
I1
sS'misty'
p6418
I2
sS'students,'
p6419
I2
sS'students.'
p6420
I2
sS'flit'
p6421
I1
sS'variations'
p6422
I1
sS'Mariners'
p6423
I1
sS'students;'
p6424
I1
sS'bride.'
p6425
I1
sS'minutes'
p6426
I3
sS'Ivy'
p6427
I1
sS'excruciatingly'
p6428
I1
sS'herself."'
p6429
I1
sS'pin'
p6430
I1
sS'whisper'
p6431
I1
sS'shooting'
p6432
I2
sS'pit'
p6433
I1
sS'unintelligible'
p6434
I1
sS'accident,'
p6435
I2
sS'accident.'
p6436
I1
sS'dressed'
p6437
I3
sS'oak'
p6438
I1
sS'detail'
p6439
I2
sS'wondered,'
p6440
I1
sS'surreal'
p6441
I1
sS'bake,'
p6442
I1
sS'Please,'
p6443
I2
sS'ducked'
p6444
I3
sS'granite'
p6445
I1
sS'fathoms.'
p6446
I1
sS'dresses'
p6447
I1
sS'towel.'
p6448
I1
sS'"Have'
p6449
I3
sS'traumatic'
p6450
I1
sS'death?'
p6451
I1
sS'wallow'
p6452
I1
sS'time?'
p6453
I1
sS'running."'
p6454
I1
sS'gloriously'
p6455
I1
sS'death.'
p6456
I1
sS'stirred'
p6457
I1
sS'planets."'
p6458
I2
sS"Rosaline\x97don't"
p6459
I1
sS'jeep.'
p6460
I1
sS'armor'
p6461
I2
sS'Canon.'
p6462
I1
sS'"Thanks'
p6463
I3
sS'friendly.'
p6464
I1
sS'friendly,'
p6465
I1
sS'artlessly.'
p6466
I1
sS'Strangely'
p6467
I1
sS'ever.'
p6468
I2
sS'sleek'
p6469
I1
sS'sleep'
p6470
I5
sS'hate'
p6471
I1
sS'poorly'
p6472
I3
sS'"Really,'
p6473
I1
sS'"as'
p6474
I1
sS'"Really?'
p6475
I3
sS'"Okay,'
p6476
I3
sS'"Okay.'
p6477
I2
sS'under'
p6478
I39
sS'sleeping...'
p6479
I1
sS'regrets'
p6480
I2
sS'"Shut'
p6481
I1
sS'risk'
p6482
I3
sS'now,"'
p6483
I1
sS'tears.'
p6484
I1
sS'tears,'
p6485
I1
sS'Bats,"'
p6486
I1
sS'every'
p6487
I19
sS'smoothly\x97proof'
p6488
I1
sS'fireplace'
p6489
I1
sS'"It'
p6490
I9
sS'school'
p6491
I11
sS'pooled'
p6492
I1
sS'this\x97could'
p6493
I1
sS'Dad,"'
p6494
I4
sS'obsessive'
p6495
I1
sS'Long-established'
p6496
I1
sS'There,'
p6497
I1
sS'created,'
p6498
I1
sS'shoulders.'
p6499
I1
sS'feathery'
p6500
I1
sS'stare.'
p6501
I1
sS'direct'
p6502
I1
sS'Howe.'
p6503
I1
sS'street'
p6504
I2
sS'emptiness'
p6505
I1
sS'"Okay\x85'
p6506
I1
sS'blue'
p6507
I6
sS'change.'
p6508
I3
sS'hide'
p6509
I6
sS'century.'
p6510
I1
sS'supplied'
p6511
I2
sS'characters.'
p6512
I1
sS'leave.'
p6513
I1
sS'creased,'
p6514
I1
sS'dashboard'
p6515
I1
sS'Plants'
p6516
I1
sS'Made'
p6517
I1
sS'them\x97our'
p6518
I1
sS'"Focus,'
p6519
I1
sS'shimmery'
p6520
I1
sS'stared'
p6521
I12
sS'hundreds'
p6522
I3
sS'wedding,'
p6523
I3
sS'wedding.'
p6524
I1
sS'represented'
p6525
I1
sS'path'
p6526
I3
sS'stares'
p6527
I1
sS'engine.'
p6528
I2
sS'hideously'
p6529
I1
sS'worse.'
p6530
I1
sS'leaves'
p6531
I1
sS'changed'
p6532
I8
sS'sterile,'
p6533
I1
sS'changes'
p6534
I2
sS'breath,'
p6535
I4
sS'breath.'
p6536
I6
sS'visibly'
p6537
I1
sS'feelings'
p6538
I3
sS'patience'
p6539
I2
sS'salary.'
p6540
I1
sS'old-fashioned'
p6541
I2
sS'would'
p6542
I150
sS'"Anaphase,"'
p6543
I1
sS'hospital'
p6544
I4
sS'spiky'
p6545
I2
sS'distributing'
p6546
I1
sS'asset'
p6547
I1
sS'conversation?"'
p6548
I1
sS'used,'
p6549
I1
sS'breathe'
p6550
I1
sS'"Hello?"'
p6551
I1
sS'phone'
p6552
I3
sS'feeling.'
p6553
I1
sS'off"'
p6554
I1
sS'breaths'
p6555
I1
sS'excellent'
p6556
I1
sS'off,'
p6557
I4
sS'must'
p6558
I18
sS'shoot'
p6559
I2
sS'join'
p6560
I1
sS'caramel-colored'
p6561
I1
sS'Actually,'
p6562
I2
sS'Ford,'
p6563
I1
sS'Where?'
p6564
I1
sS'my'
p6565
I709
sS'quarrel'
p6566
I1
sS'is."'
p6567
I3
sS'Maria.'
p6568
I1
sS'"Be'
p6569
I2
sS'generically'
p6570
I1
sS'"By'
p6571
I1
sS'mouth,'
p6572
I1
sS'mouth.'
p6573
I2
sS'returned'
p6574
I4
sS'ceremony'
p6575
I3
sS'"Send'
p6576
I1
sS'end'
p6577
I12
sS'drummed'
p6578
I1
sS'company\x85'
p6579
I1
sS'sitting'
p6580
I13
sS'myself\x97I'
p6581
I1
sS'righting'
p6582
I1
sS'widespread'
p6583
I1
sS'personality.'
p6584
I1
sS'eyeballs'
p6585
I1
sS'both.'
p6586
I1
sS'mouths'
p6587
I1
sS'mess'
p6588
I1
sS'unscratched,'
p6589
I1
sS'poked'
p6590
I1
sS'walkway.'
p6591
I1
sS'burly'
p6592
I1
sS'"Tanya,'
p6593
I1
sS'snarling'
p6594
I1
sS'car?"'
p6595
I3
sS'accusation,'
p6596
I2
sS'possessive.'
p6597
I1
sS'Japanese'
p6598
I1
sS'upside'
p6599
I1
sS'ultimate'
p6600
I2
sS'behavior."'
p6601
I1
sS'"Calm'
p6602
I1
sS'smoldered.'
p6603
I1
sS'over'
p6604
I58
sS'clench'
p6605
I2
sS'expects'
p6606
I1
sS'oven'
p6607
I1
sS'clapped'
p6608
I1
sS'glances'
p6609
I2
sS'beside'
p6610
I11
sS'Here'
p6611
I1
sS'writing'
p6612
I2
sS'perfectly,'
p6613
I1
sS'perfectly.'
p6614
I1
sS'strand'
p6615
I1
sS'fade'
p6616
I1
sS'glanced'
p6617
I8
sS'denizens'
p6618
I1
sS'ridiculous."'
p6619
I1
sS'sane'
p6620
I1
sS'pain\x97still'
p6621
I1
sS'expect.'
p6622
I1
sS'Here."'
p6623
I1
sS'carefully,'
p6624
I4
sS'carefully.'
p6625
I1
sS'hospital,'
p6626
I2
sS'40X'
p6627
I1
sS'shadows'
p6628
I1
sS'stinking'
p6629
I1
sS'worry,'
p6630
I3
sS'swaying'
p6631
I1
sS'potatoes'
p6632
I2
sS'expectation.'
p6633
I1
sS'filling'
p6634
I1
sS'"Tell'
p6635
I3
sS'each'
p6636
I14
sS'insensible.'
p6637
I1
sS'embraced.'
p6638
I1
sS"Healer's."
p6639
I1
sS'fad.'
p6640
I1
sS'glance,'
p6641
I1
sS'positions."'
p6642
I1
sS'"Wow,"'
p6643
I1
sS'clomping'
p6644
I1
sS'impasse,'
p6645
I1
sS'driving'
p6646
I3
sS'god'
p6647
I1
sS'washed'
p6648
I2
sS'day.'
p6649
I7
sS'laid'
p6650
I2
sS'adjust'
p6651
I1
sS'gauze,'
p6652
I1
sS'got'
p6653
I29
sS'clamps'
p6654
I1
sS'perception'
p6655
I1
sS'greeneryoutside.'
p6656
I1
sS'free'
p6657
I11
sS'wanted'
p6658
I19
sS'go,'
p6659
I2
sS'go.'
p6660
I1
sS'days'
p6661
I10
sS'Eric,"'
p6662
I1
sS'labored'
p6663
I1
sS'soda'
p6664
I2
sS'"Everyone'
p6665
I1
sS'bat."'
p6666
I1
sS'rang'
p6667
I2
sS'already'
p6668
I26
sS'Working'
p6669
I1
sS'too.'
p6670
I13
sS'too,'
p6671
I11
sS'"Wait!"'
p6672
I1
sS'primary'
p6673
I1
sS'huh?"'
p6674
I1
sS'loaded'
p6675
I1
sS'end\x97it'
p6676
I1
sS'grumbled.'
p6677
I1
sS'top'
p6678
I13
sS'fiction'
p6679
I1
sS'too'
p6680
I48
sS'wildly'
p6681
I1
sS'role.'
p6682
I1
sS'sheepishly,'
p6683
I1
sS'sheepishly.'
p6684
I1
sS'blunt,'
p6685
I1
sS'ceiling'
p6686
I1
sS'murder'
p6687
I1
sS'centered'
p6688
I4
sS'tool'
p6689
I1
sS'took'
p6690
I41
sS'bandage.'
p6691
I1
sS'Twice'
p6692
I1
sS'included,'
p6693
I1
sS'hour,'
p6694
I1
sS'brushed'
p6695
I4
sS'avoid.'
p6696
I1
sS'"good'
p6697
I2
sS'covens'
p6698
I1
sS"Phil's"
p6699
I2
sS'whispers.'
p6700
I2
sS'Only'
p6701
I3
sS'Snow.'
p6702
I1
sS'classes'
p6703
I3
sS'to.'
p6704
I6
sS'to,'
p6705
I1
sS'"Yes."'
p6706
I1
sS'fashion'
p6707
I1
sS'that?"'
p6708
I3
sS'ran'
p6709
I6
sS'talking'
p6710
I6
sS'lunchtime'
p6711
I2
sS'thoroughly'
p6712
I3
sS'Swan\'s,"'
p6713
I1
sS'snow'
p6714
I5
sS'romantic!'
p6715
I1
sS'ribbon'
p6716
I1
sS'laughed'
p6717
I6
sS'mix.'
p6718
I1
sS'tangled,'
p6719
I1
sS'joked.'
p6720
I1
sS"who've"
p6721
I1
sS'newborns.'
p6722
I1
sS'though'
p6723
I17
sS'garter'
p6724
I3
sS'rumble'
p6725
I1
sS'mirrors?"'
p6726
I1
sS'picker\x97spread'
p6727
I1
sS'her."'
p6728
I3
sS'lifted,'
p6729
I1
sS'flow'
p6730
I3
sS'things!"'
p6731
I2
sS'violence!"'
p6732
I1
sS'orderly'
p6733
I1
sS'contacted'
p6734
I1
sS'random'
p6735
I1
sS'colors'
p6736
I1
sS'radio'
p6737
I4
sS'fuzzy'
p6738
I1
sS'earth'
p6739
I1
sS'overwhelming'
p6740
I1
sS'burn.'
p6741
I1
sS'spite'
p6742
I1
sS'Big'
p6743
I1
sS'new\x85'
p6744
I1
sS'flashy.'
p6745
I1
sS'disgust'
p6746
I1
sS'carries.'
p6747
I1
sS'introductions.'
p6748
I1
sS'anger.'
p6749
I4
sS'Anxiety'
p6750
I1
sS'"You'
p6751
I39
sS'hostility'
p6752
I1
sS'watch'
p6753
I5
sS'color,'
p6754
I2
sS'blinking'
p6755
I1
sS'color.'
p6756
I2
sS'despite'
p6757
I5
sS'about.'
p6758
I1
sS'holiday."'
p6759
I1
sS'cheating.'
p6760
I1
sS'fast-forward,'
p6761
I1
sS'goodbyes'
p6762
I1
sS'anxiously'
p6763
I2
sS'"Every'
p6764
I2
sS'situation.'
p6765
I1
sS'delay,'
p6766
I1
sS'situation,'
p6767
I1
sS'automatic'
p6768
I1
sS'quintessential'
p6769
I1
sS'nut'
p6770
I1
sS'Fords,"'
p6771
I2
sS'nightmare.'
p6772
I2
sS'nightmare,'
p6773
I1
sS'resist'
p6774
I1
sS'Charlie?"'
p6775
I2
sS'everywhere.\x85'
p6776
I1
sS'disturbing'
p6777
I1
sS'presents,"'
p6778
I2
sS'temptation'
p6779
I1
sS'face,'
p6780
I11
sS'face.'
p6781
I11
sS'player,'
p6782
I1
sS'memory\x97the'
p6783
I1
sS'Cullen,"'
p6784
I1
sS'finger'
p6785
I1
sS'"Need'
p6786
I1
sS'rhythm.'
p6787
I1
sS'"Haven\'t'
p6788
I1
sS'"Bella'
p6789
I1
sS'face;'
p6790
I1
sS'weak'
p6791
I5
sS'however'
p6792
I3
sS'bows.'
p6793
I1
sS'Chevy'
p6794
I2
sS'honestly.'
p6795
I1
sS'wear'
p6796
I2
sS'news'
p6797
I1
sS'sipped'
p6798
I1
sS'faced'
p6799
I4
sS'Among'
p6800
I1
sS'protect'
p6801
I4
sS'Dad."'
p6802
I4
sS'tenderly,'
p6803
I1
sS"We'd"
p6804
I4
sS'furry'
p6805
I1
sS'gasoline,'
p6806
I1
sS'snores'
p6807
I1
sS'trust'
p6808
I1
sS'bad,"'
p6809
I1
sS'stomped'
p6810
I2
sS'bathroom'
p6811
I6
sS'incomparable'
p6812
I1
sS'teacher.'
p6813
I1
sS'teacher,'
p6814
I2
sS'been'
p6815
I85
sS'quickly'
p6816
I10
sS'were,'
p6817
I2
sS'were.'
p6818
I3
sS'deep,'
p6819
I3
sS'expected'
p6820
I7
sS'"Begin'
p6821
I1
sS'glided'
p6822
I2
sS'TV,'
p6823
I1
sS'TV.'
p6824
I1
sS'parasite!"'
p6825
I1
sS'catch'
p6826
I5
sS'Thankfully,'
p6827
I1
sS'think,"'
p6828
I1
sS'strangest'
p6829
I1
sS'yells.'
p6830
I1
sS'"Once'
p6831
I4
sS'teachers'
p6832
I1
sS'cracked'
p6833
I1
sS'atmosphere,'
p6834
I1
sS'power\x85"'
p6835
I1
sS'atop'
p6836
I2
sS'character.'
p6837
I1
sS'accountant;'
p6838
I1
sS'were\x85'
p6839
I2
sS'dad,'
p6840
I2
sS'heart.'
p6841
I2
sS'"A'
p6842
I5
sS'wound'
p6843
I1
sS'"I'
p6844
I80
sS'forehead'
p6845
I2
sS'Forks.'
p6846
I7
sS'embarrassment,'
p6847
I1
sS'Forks,'
p6848
I4
sS'several'
p6849
I9
sS'harming'
p6850
I1
sS'Noses'
p6851
I1
sS'Wuthering'
p6852
I2
sS'".'
p6853
I1
sS'greeted'
p6854
I3
sS'myself?"'
p6855
I1
sS'coupe.'
p6856
I1
sS'made,'
p6857
I1
sS'mentioning'
p6858
I1
sS'warily.'
p6859
I2
sS'incredulously'
p6860
I1
sS'kicked'
p6861
I1
sS'ramrod'
p6862
I1
sS'possessed'
p6863
I1
sS'ocean'
p6864
I2
sS'incapable'
p6865
I1
sS'mother'
p6866
I15
sS'childhood.'
p6867
I1
sS'hearts'
p6868
I1
sS'outnumbered'
p6869
I1
sS'leagues'
p6870
I1
sS'afraid.'
p6871
I2
sS"day's"
p6872
I1
sS'rodent'
p6873
I1
sS'perfect,'
p6874
I2
sS'office.'
p6875
I1
sS'"Jared'
p6876
I1
sS'showering.'
p6877
I1
sS'humanity'
p6878
I1
sS'erratically'
p6879
I1
sS'features.'
p6880
I1
sS'casting'
p6881
I2
sS'which'
p6882
I23
sS'causes.'
p6883
I1
sS'mounds'
p6884
I1
sS'James'
p6885
I2
sS'Taking'
p6886
I1
sS'jealousy.'
p6887
I1
sS'"Nothing,"'
p6888
I1
sS'melting'
p6889
I2
sS'gift'
p6890
I3
sS'Tears'
p6891
I1
sS'specific'
p6892
I1
sS'eyelet'
p6893
I1
sS'missed.'
p6894
I1
sS'body."'
p6895
I1
sS'rustling'
p6896
I1
sS'successfully'
p6897
I1
sS'Much'
p6898
I2
sS'"Everything\'s'
p6899
I1
sS'escape'
p6900
I2
sS'orange-flecked'
p6901
I1
sS'deeper.'
p6902
I1
sS'"Eighteen'
p6903
I1
sS'effort.'
p6904
I1
sS'sunshine.'
p6905
I1
sS'everything'
p6906
I9
sS'icy'
p6907
I2
sS'attack.'
p6908
I2
sS'Ha'
p6909
I1
sS'He'
p6910
I180
sS'core'
p6911
I1
sS'who'
p6912
I46
sS'origins.'
p6913
I1
sS'raised."'
p6914
I1
sS'chest.'
p6915
I2
sS'chest,'
p6916
I1
sS'hung'
p6917
I4
sS'newcomer'
p6918
I1
sS'edge,'
p6919
I1
sS'eaves'
p6920
I1
sS'gut\x97and'
p6921
I1
sS'little,"'
p6922
I1
sS'shards'
p6923
I1
sS'dinner'
p6924
I1
sS'plus'
p6925
I1
sS'Still'
p6926
I2
sS'froze'
p6927
I1
sS'"Wow."'
p6928
I1
sS'difference,'
p6929
I1
sS'difference.'
p6930
I2
sS'cafeteria'
p6931
I4
sS'existed'
p6932
I2
sS'practiced.'
p6933
I1
sS'occurred,'
p6934
I1
sS'class'
p6935
I10
sS'stuck'
p6936
I5
sS'fought'
p6937
I2
sS'version.'
p6938
I1
sS'head'
p6939
I23
sS'permanence.'
p6940
I1
sS'Sundays'
p6941
I1
sS'heal'
p6942
I1
sS'heat'
p6943
I2
sS'hear'
p6944
I20
sS'dial.'
p6945
I2
sS'nodded'
p6946
I7
sS'hands.'
p6947
I4
sS'Esme'
p6948
I9
sS'bargain'
p6949
I1
sS'tedious.'
p6950
I1
sS'brightly'
p6951
I2
sS'forearm'
p6952
I1
sS'harder.'
p6953
I1
sS'shined'
p6954
I1
sS'suspicions'
p6955
I2
sS'sometime'
p6956
I1
sS'now\x97completely'
p6957
I1
sS'shines'
p6958
I1
sS'check'
p6959
I2
sS'willingly'
p6960
I1
sS'looked'
p6961
I59
sS'no'
p6962
I56
sS'when'
p6963
I85
sS'battle.'
p6964
I1
sS'papers'
p6965
I1
sS'implant'
p6966
I1
sS'staid,'
p6967
I1
sS'picture'
p6968
I4
sS'dark,'
p6969
I1
sS'"Probably,"'
p6970
I1
sS'dark.'
p6971
I4
sS'flushed'
p6972
I3
sS'night?"'
p6973
I1
sS'longer'
p6974
I11
sS'luck.'
p6975
I1
sS'serious'
p6976
I3
sS'Everybody'
p6977
I1
sS'remarkable'
p6978
I1
sS'procedure.'
p6979
I1
sS'focus'
p6980
I3
sS'signed,'
p6981
I1
sS'ice'
p6982
I2
sS'Today'
p6983
I1
sS'row'
p6984
I2
sS'questions?'
p6985
I1
sS'cooped'
p6986
I1
sS'contemplating'
p6987
I1
sS'asking'
p6988
I2
sS'questions.'
p6989
I1
sS'slowly,'
p6990
I2
sS'slowly.'
p6991
I4
sS'Government,'
p6992
I1
sS'advantage'
p6993
I2
sS'unfamiliar'
p6994
I3
sS'alternative.'
p6995
I1
sS'cook'
p6996
I1
sS'"S\'okay,'
p6997
I1
sS'neighbor.'
p6998
I1
sS'cool'
p6999
I7
sS'married,'
p7000
I2
sS'married.'
p7001
I1
sS'sighed'
p7002
I3
sS'impressive'
p7003
I1
sS'level'
p7004
I1
sS'brother'
p7005
I4
sS'her,"'
p7006
I1
sS'married?'
p7007
I1
sS'essential.'
p7008
I1
sS'red-faced'
p7009
I1
sS'mine,"'
p7010
I1
sS'drier'
p7011
I1
sS'slower'
p7012
I1
sS'valid.'
p7013
I1
sS'widened'
p7014
I2
sS'indifferent.'
p7015
I1
sS'hair,'
p7016
I5
sS'hair.'
p7017
I11
sS'enchanting,'
p7018
I1
sS'chicken'
p7019
I1
sS'precaution,'
p7020
I1
sS'distaste'
p7021
I2
sS'See?'
p7022
I1
sS'thrice-over'
p7023
I1
sS'"Let\'s'
p7024
I3
sS'pushed,'
p7025
I1
sS'stomach.'
p7026
I5
sS'goes'
p7027
I1
sS'reply'
p7028
I1
sS'class?"'
p7029
I2
sS'say?'
p7030
I1
sS'learn'
p7031
I2
sS'funds,'
p7032
I1
sS'club,'
p7033
I1
sS'water'
p7034
I2
sS'apprehensively,'
p7035
I1
sS'good."'
p7036
I1
sS'crippled'
p7037
I1
sS'say.'
p7038
I2
sS'destroyed.'
p7039
I2
sS'arcadia'
p7040
I1
sS'deadly.'
p7041
I1
sS'shove'
p7042
I2
sS'healthy'
p7043
I1
sS'guilty'
p7044
I2
sS'beautiful!'
p7045
I1
sS'weird'
p7046
I1
sS'beautiful,'
p7047
I4
sS'beautiful.'
p7048
I3
sS'mimicked'
p7049
I1
sS'insight.'
p7050
I1
sS'myself.'
p7051
I15
sS'morals'
p7052
I1
sS'myself,'
p7053
I4
sS"It's"
p7054
I23
sS'swallowed'
p7055
I1
sS'halfheartedly.'
p7056
I1
sS'handled'
p7057
I2
sS'sports'
p7058
I1
sS'frothy'
p7059
I1
sS'memory'
p7060
I16
sS'presents."'
p7061
I1
sS'sick,"'
p7062
I1
sS'today'
p7063
I6
sS'World?"'
p7064
I2
sS'These'
p7065
I6
sS'inherited'
p7066
I1
sS'Calling'
p7067
I1
sS'topa2'
p7068
I1
sS'Push'
p7069
I2
sS'sweetie.'
p7070
I4
sS'and,'
p7071
I4
sS'bandaged.'
p7072
I1
sS'thousands'
p7073
I1
sS'wrong.'
p7074
I1
sS'handle.'
p7075
I2
sS'laughter'
p7076
I4
sS'hurt?"'
p7077
I1
sS'agree.'
p7078
I1
sS'figure'
p7079
I2
sS'choke'
p7080
I1
sS'stroke'
p7081
I1
sS'dropped'
p7082
I8
sS'eight.'
p7083
I1
sS'unaware?'
p7084
I1
sS'requirements'
p7085
I1
sS'afterlife'
p7086
I1
sS'secured'
p7087
I1
sS'myself\x85'
p7088
I1
sS'vital'
p7089
I1
sS'reluctantly,'
p7090
I1
sS'story?"'
p7091
I2
sS'myself\x97'
p7092
I1
sS'winds.'
p7093
I1
sS'information'
p7094
I8
sS'and\x85'
p7095
I1
sS'birthday'
p7096
I10
sS'category)'
p7097
I1
sS'classroom'
p7098
I1
sS'twitch'
p7099
I1
sS'branches'
p7100
I1
sS'different.'
p7101
I1
sS'liquid'
p7102
I2
sS'different,'
p7103
I3
sS'speak;'
p7104
I1
sS'minivan,'
p7105
I1
sS'glancing'
p7106
I1
sS'paid,'
p7107
I1
sS'futilely,'
p7108
I1
sS"Tanya's"
p7109
I5
sS'conversation.'
p7110
I4
sS'mom.'
p7111
I1
sS'conversation,'
p7112
I2
sS'mom,'
p7113
I2
sS'weather,'
p7114
I1
sS'mom!'
p7115
I2
sS'dreading'
p7116
I2
sS"he's"
p7117
I16
sS'convenient\x97too'
p7118
I1
sS"he'd"
p7119
I23
sS'souls,'
p7120
I1
sS'corner.'
p7121
I4
sS'corner,'
p7122
I1
sS'SUV'
p7123
I1
sS'happened'
p7124
I5
sS'"What'
p7125
I27
sS'"Forgive'
p7126
I1
sS'nomads'
p7127
I1
sS'appraised'
p7128
I1
sS'delighted'
p7129
I1
sS'underneath'
p7130
I1
sS'feathered'
p7131
I1
sS'Aro,'
p7132
I1
sS'Impossibly'
p7133
I1
sS'gushing'
p7134
I1
sS'cry,'
p7135
I1
sS'term'
p7136
I3
sS'name'
p7137
I17
sS'ridiculous,'
p7138
I1
sS'offer.'
p7139
I1
sS'possibilities'
p7140
I1
sS'soon,'
p7141
I1
sS'cheerleader,'
p7142
I1
sS'wedding,"'
p7143
I1
sS'never,'
p7144
I3
sS'trunks'
p7145
I1
sS'closely.'
p7146
I1
sS'Marie.'
p7147
I1
sS'catching'
p7148
I1
sS'farewell'
p7149
I1
sS'Forks'
p7150
I9
sS'Biology?"'
p7151
I1
sS'Chicago,'
p7152
I1
sS'gust.'
p7153
I1
sS'treading'
p7154
I1
sS'attracted'
p7155
I1
sS"shouldn't"
p7156
I4
sS'Chicago?'
p7157
I1
sS'whispered,'
p7158
I1
sS'doing."'
p7159
I1
sS'whispered.'
p7160
I8
sS'maneuver'
p7161
I1
sS'unfriendly'
p7162
I1
sS'grab'
p7163
I3
sS'Earth,'
p7164
I1
sS'turn'
p7165
I3
sS'place'
p7166
I12
sS'retreating'
p7167
I1
sS'beeping.'
p7168
I1
sS'"Charlie?"'
p7169
I1
sS'be?"'
p7170
I1
sS'fences,'
p7171
I1
sS'cop.'
p7172
I1
sS'clumsy'
p7173
I1
sS'soaring'
p7174
I1
sS'self-denial'
p7175
I1
sS'Human\x85'
p7176
I1
sS'tingling'
p7177
I1
sS'given'
p7178
I11
sS'it\x97I'
p7179
I2
sS'familiar;'
p7180
I1
sS'plastic'
p7181
I2
sS'card;'
p7182
I1
sS'Such'
p7183
I2
sS'white'
p7184
I25
sS'insane.'
p7185
I1
sS'hardwired'
p7186
I1
sS'Keeping'
p7187
I2
sS'hug'
p7188
I3
sS'mouths\x97hers'
p7189
I1
sS'shrouded'
p7190
I1
sS'hurtful'
p7191
I1
sS'point?"'
p7192
I1
sS'rumors.'
p7193
I1
sS'reception."'
p7194
I1
sS'grunt'
p7195
I1
sS'wide'
p7196
I1
sS'noiselessly.'
p7197
I1
sS'return,'
p7198
I2
sS'oath'
p7199
I1
sS'and'
p7200
I676
sS'"before"'
p7201
I2
sS'fine."'
p7202
I3
sS'straddles'
p7203
I1
sS'fall,'
p7204
I2
sS'fall.'
p7205
I2
sS'fifty-eight'
p7206
I1
sS'name.Soul.'
p7207
I1
sS'any'
p7208
I47
sS'deserted'
p7209
I1
sS'wandered'
p7210
I1
sS'late.'
p7211
I2
sS'pencil.'
p7212
I1
sS'urge'
p7213
I1
sS'sure'
p7214
I39
sS'tornado'
p7215
I1
sS'clearer'
p7216
I1
sS'boiling'
p7217
I2
sS'staccato'
p7218
I1
sS'odorless'
p7219
I1
sS'cleared'
p7220
I4
sS'gruffly.'
p7221
I1
sS'gruffly,'
p7222
I1
sS'strength,'
p7223
I1
sS'safe,"'
p7224
I1
sS'considered'
p7225
I6
sS'assume?"'
p7226
I2
sS'later'
p7227
I2
sS'hungry'
p7228
I1
sS'playing'
p7229
I2
sS'idea.'
p7230
I1
sS'idea,'
p7231
I3
sS'kids."'
p7232
I1
sS'touching.'
p7233
I1
sS'cluttering'
p7234
I1
sS'senior'
p7235
I1
sS'permeable'
p7236
I1
sS'horribly'
p7237
I1
sS'colors\x97fair'
p7238
I1
sS'cheap'
p7239
I1
sS'hack'
p7240
I1
sS'boring.'
p7241
I1
sS'hands,'
p7242
I3
sS'joke,'
p7243
I1
sS'gulp'
p7244
I1
sS'virtuously.'
p7245
I1
sS'walls'
p7246
I3
sS'panic-stricken.'
p7247
I1
sS"humans'"
p7248
I1
sS'welled'
p7249
I1
sS'allotted'
p7250
I1
sS'space,'
p7251
I2
sS'space.'
p7252
I1
sS'caught."'
p7253
I1
sS'neither'
p7254
I2
sS'ribs,'
p7255
I1
sS'proof."'
p7256
I1
sS'hit,'
p7257
I1
sS'hoped,'
p7258
I1
sS'probably,'
p7259
I1
sS'command.'
p7260
I1
sS'discussing'
p7261
I1
sS'her.'
p7262
I14
sS'Thanks!"'
p7263
I1
sS'you\x85"'
p7264
I1
sS'college'
p7265
I3
sS'parking'
p7266
I6
sS'quizzing'
p7267
I1
sS'all."'
p7268
I1
sS'League'
p7269
I1
sS'crooked'
p7270
I2
sS'Newton.'
p7271
I1
sS'relief.'
p7272
I5
sS'relief,'
p7273
I1
sS'eighty-first'
p7274
I1
sS'joy'
p7275
I1
sS'own\x97without'
p7276
I1
sS'toying'
p7277
I2
sS'arrival'
p7278
I1
sS'unbitten'
p7279
I1
sS'ignore.'
p7280
I1
sS'good-looking'
p7281
I1
sS'emotional'
p7282
I1
sS'come'
p7283
I24
sS'"Ladies'
p7284
I1
sS'reaction'
p7285
I2
sS'his,'
p7286
I2
sS'his.'
p7287
I1
sS'quiet'
p7288
I7
sS'way.'
p7289
I9
sS'way,'
p7290
I4
sS'duty'
p7291
I1
sS'champion,'
p7292
I1
sS'mingled\x97and'
p7293
I1
sS'color'
p7294
I9
sS'hunched'
p7295
I2
sS'Denali'
p7296
I2
sS'pop'
p7297
I1
sS'pole'
p7298
I1
sS'Really?'
p7299
I2
sS'approval'
p7300
I1
sS'Bad.'
p7301
I1
sS'bizarre'
p7302
I1
sS'"Feisty'
p7303
I1
sS'firmly.'
p7304
I1
sS'teammate'
p7305
I1
sS'truth.'
p7306
I1
sS'But'
p7307
I69
sS'Thriftway'
p7308
I1
sS'fierce.'
p7309
I1
sS'peaceful'
p7310
I2
sS'"Traditional!"'
p7311
I1
sS'promises.'
p7312
I1
sS'hardly'
p7313
I5
sS'engine'
p7314
I6
sS'direction'
p7315
I4
sS'nod.'
p7316
I1
sS'with,"'
p7317
I1
sS'Phil'
p7318
I1
sS'really\x97that'
p7319
I1
sS'minister'
p7320
I1
sS'careful'
p7321
I5
sS'matter'
p7322
I8
sS'case'
p7323
I2
sS'shaft'
p7324
I1
sS'myself'
p7325
I29
sS'clearly.'
p7326
I1
sS'cupping'
p7327
I1
sS'cash'
p7328
I1
sS'disappeared.'
p7329
I2
sS'cast'
p7330
I2
sS'life.'
p7331
I7
sS'life,'
p7332
I6
sS'clearly;'
p7333
I1
sS'diplomatic,'
p7334
I1
sS'confident.'
p7335
I1
sS'drive,'
p7336
I1
sS'good'
p7337
I30
sS'punched'
p7338
I1
sS'distracting,'
p7339
I1
sS'nonessentials,'
p7340
I1
sS'impossibility.'
p7341
I1
sS'sides.'
p7342
I1
sS'sides,'
p7343
I1
sS'resentful'
p7344
I1
sS'firsthand,'
p7345
I1
sS'I?'
p7346
I1
sS'eighteen?'
p7347
I1
sS'speak.'
p7348
I1
sS'happen?"'
p7349
I2
sS'reminded'
p7350
I10
sS'simply,'
p7351
I1
sS'shifts'
p7352
I1
sS'eighteen,'
p7353
I1
sS'eighteen.'
p7354
I1
sS'I.'
p7355
I2
sS'mode.'
p7356
I1
sS'events'
p7357
I1
sS'week'
p7358
I2
sS'song.'
p7359
I1
sS'muffled'
p7360
I1
sS'driven'
p7361
I1
sS'devoid'
p7362
I1
sS'delicate'
p7363
I3
sS'tiny,'
p7364
I2
sS'changing'
p7365
I2
sS'numb,'
p7366
I1
sS'event.'
p7367
I2
sS'Esme.'
p7368
I2
sS'Esme,'
p7369
I1
sS'Rosalie,"'
p7370
I1
sS'close.'
p7371
I3
sS'Is'
p7372
I2
sS'loveseat.'
p7373
I1
sS'It'
p7374
I122
sS'without'
p7375
I28
sS'flakes'
p7376
I1
sS'relief'
p7377
I3
sS'In'
p7378
I19
sS'modem'
p7379
I1
sS'bodies'
p7380
I3
sS'If'
p7381
I14
sS'United'
p7382
I1
sS'mesquites.'
p7383
I1
sS'tip'
p7384
I2
sS'guided'
p7385
I1
sS'violent'
p7386
I2
sS'kill'
p7387
I5
sS'okay?"'
p7388
I2
sS'Kevin,'
p7389
I1
sS'satin'
p7390
I2
sS'guides'
p7391
I1
sS'captured'
p7392
I1
sS'blow'
p7393
I1
sS'credits.'
p7394
I1
sS'hint'
p7395
I3
sS'possible.'
p7396
I3
sS'rose'
p7397
I4
sS'brightness'
p7398
I1
sS'seems'
p7399
I3
sS'except'
p7400
I3
sS'gym.'
p7401
I1
sS'lets'
p7402
I1
sS'gym,'
p7403
I2
sS'plenty'
p7404
I1
sS'scrapbook'
p7405
I1
sS'flashing'
p7406
I1
sS'great,'
p7407
I1
sS'cushion'
p7408
I1
sS'bones,'
p7409
I1
sS'kills'
p7410
I1
sS'Alaska."'
p7411
I1
sS'stiffened.'
p7412
I1
sS'loaner'
p7413
I1
sS'accepted'
p7414
I1
sS'"Was'
p7415
I1
sS'standstill'
p7416
I1
sS'Shoved'
p7417
I1
sS'towed'
p7418
I1
sS'"Ren\xe9e,'
p7419
I2
sS'seem.'
p7420
I1
sS'bear."'
p7421
I1
sS'Something'
p7422
I5
sS'always'
p7423
I21
sS'syrup-colored'
p7424
I1
sS'woman.'
p7425
I1
sS'responsive?'
p7426
I1
sS'Newton'
p7427
I5
sS'buttery,'
p7428
I1
sS'joking'
p7429
I1
sS'dad;'
p7430
I1
sS'Since'
p7431
I2
sS'down."'
p7432
I1
sS'respect'
p7433
I2
sS'Worrying,'
p7434
I1
sS'Knowing'
p7435
I1
sS'slice'
p7436
I1
sS'mood'
p7437
I2
sS'subdue.'
p7438
I1
sS'slick'
p7439
I1
sS'Kevin\x85'
p7440
I1
sS'moot'
p7441
I1
sS'"Ew."'
p7442
I1
sS'light-flecked'
p7443
I1
sS'exiled'
p7444
I1
sS'erased'
p7445
I1
sS'silently.'
p7446
I3
sS'silently,'
p7447
I1
sS'nails'
p7448
I1
sS'cringing'
p7449
I1
sS'terrified'
p7450
I4
sS'unseen.'
p7451
I1
sS'seem\x85'
p7452
I1
sS'me\x97it'
p7453
I1
sS'on'
p7454
I217
sS'indestructibility'
p7455
I1
sS'provide.'
p7456
I1
sS'tensed.'
p7457
I1
sS'tensed,'
p7458
I1
sS'masked,'
p7459
I1
sS'stop.'
p7460
I3
sS'stand'
p7461
I4
sS'free,'
p7462
I1
sS'or'
p7463
I66
sS'Yes,'
p7464
I2
sS'attachments.'
p7465
I1
sS'names?'
p7466
I1
sS'attachments,'
p7467
I1
sS'cursed'
p7468
I1
sS'spinal'
p7469
I1
sS'choking\x97but'
p7470
I1
sS'rising'
p7471
I1
sS'hammering,'
p7472
I1
sS'names,'
p7473
I2
sS'breakable.'
p7474
I1
sS'sloshing'
p7475
I1
sS'unisex'
p7476
I1
sS'strictly'
p7477
I1
sS'Jamie'
p7478
I4
sS'disposed'
p7479
I1
sS'wear."'
p7480
I1
sS'valley'
p7481
I1
sS'it?"'
p7482
I10
sS'pottery,'
p7483
I1
sS'Oooh,"'
p7484
I2
sS'annoyance.'
p7485
I1
sS'faster'
p7486
I6
sS'Hales'
p7487
I1
sS'exhaled.'
p7488
I1
sS'classes,'
p7489
I2
sS'classes.'
p7490
I2
sS'here\x97"'
p7491
I1
sS'creeping'
p7492
I3
sS'strongly'
p7493
I1
sS'words:'
p7494
I2
sS'taste'
p7495
I3
sS'cringed'
p7496
I1
sS'words.'
p7497
I3
sS'summer\x97the'
p7498
I1
sS'pillow,'
p7499
I2
sS'stages,'
p7500
I1
sS'overflowing'
p7501
I1
sS'stumbled'
p7502
I2
sS'downstairs.'
p7503
I1
sS'electrical,'
p7504
I1
sS'Dark'
p7505
I1
sS'roses'
p7506
I1
sS'odd,'
p7507
I1
sS'"Memory.'
p7508
I1
sS'quick.'
p7509
I1
sS'requested'
p7510
I1
sS'trip'
p7511
I4
sS'reception'
p7512
I1
sS'separate'
p7513
I2
sS'symbol'
p7514
I1
sS'were?\x97but'
p7515
I1
sS'bullets'
p7516
I1
sS'included'
p7517
I2
sS'wife'
p7518
I3
sS'odds'
p7519
I1
sS'curve'
p7520
I1
sS'Choppy,'
p7521
I1
sS'all'
p7522
I104
sS'lace'
p7523
I1
sS'flail,'
p7524
I1
sS'lack'
p7525
I3
sS'favor?"'
p7526
I1
sS'speak,'
p7527
I1
sS'son.'
p7528
I1
sS'Irritation.'
p7529
I1
sS'changed."'
p7530
I1
sS'follow'
p7531
I2
sS'Romeo,"'
p7532
I1
sS'catastrophe'
p7533
I1
sS'liar,'
p7534
I1
sS'diplomacy'
p7535
I1
sS'sparkling'
p7536
I1
sS'granola'
p7537
I2
sS'siblings'
p7538
I3
sS'void.'
p7539
I1
sS'woman'
p7540
I9
sS'worse'
p7541
I7
sS'everyone.'
p7542
I2
sS'inhumanly'
p7543
I1
sS'there."'
p7544
I6
sS'ticked'
p7545
I1
sS'Still,'
p7546
I2
sS'worst'
p7547
I4
sS'"Very."'
p7548
I1
sS'cheerfully.'
p7549
I1
sS'gangly'
p7550
I1
sS'list'
p7551
I2
sS'safe."'
p7552
I1
sS'blankly'
p7553
I1
sS'weak,'
p7554
I1
sS'wordSeeker,'
p7555
I1
sS'conflicted'
p7556
I1
sS'direction.'
p7557
I2
sS'ten'
p7558
I3
sS'direction,'
p7559
I1
sS'should,'
p7560
I1
sS'battle'
p7561
I1
sS'East'
p7562
I1
sS'cheetah.'
p7563
I1
sS'toe.'
p7564
I1
sS'what'
p7565
I78
sS'necessary.'
p7566
I1
sS'waved.'
p7567
I1
sS'sun'
p7568
I5
sS'mind-reading'
p7569
I1
sS'brief'
p7570
I5
sS'necessary?'
p7571
I1
sS'racing'
p7572
I1
sS'shortly."'
p7573
I1
sS'toes'
p7574
I1
sS'when,'
p7575
I1
sS'landed.'
p7576
I1
sS'directions'
p7577
I1
sS'observing'
p7578
I1
sS'gun.'
p7579
I1
sS'horrified'
p7580
I1
sS'off."'
p7581
I1
sS'must.'
p7582
I1
sS'sticking'
p7583
I1
sS'tools,'
p7584
I1
sS'Eric,'
p7585
I4
sS'suddenly'
p7586
I6
sS'Things'
p7587
I1
sS'charade,'
p7588
I1
sS'Too'
p7589
I2
sS'know.'
p7590
I5
sS'know,'
p7591
I5
sS'ferns.'
p7592
I1
sS'always,'
p7593
I2
sS'all,"'
p7594
I1
sS'faint'
p7595
I1
sS'rose.'
p7596
I1
sS'irritation.'
p7597
I1
sS'one?"'
p7598
I1
sS'"Esme'
p7599
I1
sS'aching.'
p7600
I1
sS'debate,'
p7601
I1
sS'minor'
p7602
I1
sS'flat'
p7603
I5
sS'knows'
p7604
I1
sS'stutter'
p7605
I1
sS'screen.'
p7606
I1
sS'stick'
p7607
I3
sS'acclimatization.'
p7608
I1
sS'known'
p7609
I5
sS'mellow'
p7610
I1
sS'glad'
p7611
I3
sS'market.'
p7612
I1
sS'"Clever,"'
p7613
I1
sS'"You\'d'
p7614
I1
sS'Fine."'
p7615
I1
sS'Tomorrow'
p7616
I1
sS'run\x97it'
p7617
I1
sS'extracts\x85"'
p7618
I1
sS'it\x85'
p7619
I2
sS'embarrassing'
p7620
I3
sS'challenging'
p7621
I3
sS'swung'
p7622
I1
sS'wallowing.'
p7623
I1
sS'Maneuvering'
p7624
I1
sS'Anything'
p7625
I1
sS'rather'
p7626
I6
sS'occasionally'
p7627
I1
sS'"Last'
p7628
I1
sS'concentrating'
p7629
I1
sS'Everyone'
p7630
I2
sS'soul?"'
p7631
I1
sS'animatedly'
p7632
I1
sS'critically.'
p7633
I1
sS'Ren\xe9e?"'
p7634
I1
sS'shade'
p7635
I3
sS'music,'
p7636
I2
sS'music.'
p7637
I1
sS'"Thirty'
p7638
I1
sS'would,'
p7639
I1
sS"don't"
p7640
I67
sS'"if'
p7641
I1
sS'"Edward,'
p7642
I2
sS'"Edward.'
p7643
I1
sS'"it'
p7644
I1
sS'State,'
p7645
I1
sS'avenue'
p7646
I1
sS'disagreed'
p7647
I1
sS'style'
p7648
I3
sS'retriever,'
p7649
I1
sS'glide'
p7650
I1
sS'winning,'
p7651
I1
sS'tonight\x85"'
p7652
I1
sS'harmless'
p7653
I1
sS'parts'
p7654
I1
sS'Mason.'
p7655
I1
sS'again,'
p7656
I13
sS'might'
p7657
I13
sS'return'
p7658
I3
sS'little.'
p7659
I3
sS'speechless'
p7660
I1
sS'Soon,'
p7661
I1
sS'clouds'
p7662
I2
sS'bigger'
p7663
I2
sS'eighteen,"'
p7664
I1
sS'Bells.'
p7665
I1
sS'pancakes.'
p7666
I1
sS'thing."'
p7667
I1
sS'trembling,'
p7668
I1
sS'Sucked'
p7669
I1
sS'friendship'
p7670
I1
sS'malfunction'
p7671
I1
sS'weight'
p7672
I3
sS'colder'
p7673
I1
sS'airbrushed'
p7674
I1
sS'expect'
p7675
I2
sS'inflict'
p7676
I1
sS'stilled'
p7677
I1
sS'More'
p7678
I2
sS'alcohol'
p7679
I1
sS'wondered'
p7680
I11
sS'would\x85'
p7681
I1
sS'Waters.'
p7682
I3
sS'Waters,'
p7683
I1
sS'cleared.'
p7684
I1
sS'Inconspicuously,'
p7685
I1
sS'forgive'
p7686
I2
sS'clergyman,"'
p7687
I1
sS'sidewalk'
p7688
I1
sS'guest'
p7689
I1
sS'People'
p7690
I3
sS'truck."'
p7691
I1
sS'threat'
p7692
I1
sS'family.'
p7693
I5
sS'Origin."'
p7694
I1
sS'relaxed.'
p7695
I3
sS'seeming'
p7696
I1
sS'feel'
p7697
I41
sS'relate'
p7698
I2
sS'fancy'
p7699
I1
sS'feet'
p7700
I10
sS'Indian'
p7701
I1
sS'blank'
p7702
I2
sS'car\x97it'
p7703
I1
sS'story'
p7704
I3
sS'"'
I1
sS'thoughts.'
p7705
I1
sS'plink.'
p7706
I1
sS'plink,'
p7707
I2
sS'hangs'
p7708
I1
sS'ignored.'
p7709
I1
sS'passed'
p7710
I9
sS'syrup'
p7711
I1
sS'store'
p7712
I2
sS'professional-looking'
p7713
I1
sS'erupted'
p7714
I1
sS'"Bella!"'
p7715
I1
sS'relieved'
p7716
I2
sS'from.'
p7717
I2
sS'retinal'
p7718
I1
sS'Okay."'
p7719
I1
sS'choice,"'
p7720
I1
sS'newcomers,'
p7721
I1
sS'immediately.'
p7722
I2
sS'"When'
p7723
I5
sS'from?'
p7724
I1
sS'information.'
p7725
I2
sS'information,'
p7726
I1
sS'me\x97on'
p7727
I1
sS'kind'
p7728
I19
sS'nagging'
p7729
I1
sS'vial'
p7730
I1
sS'slowed'
p7731
I1
sS'outrageous'
p7732
I1
sS'risks'
p7733
I1
sS'coast.'
p7734
I1
sS'dried'
p7735
I1
sS'motivation'
p7736
I1
sS'ma\'am."'
p7737
I1
sS'outstanding'
p7738
I1
sS'part,'
p7739
I2
sS'suspicious'
p7740
I1
sS'mean?"'
p7741
I1
sS'"Sorry,"'
p7742
I1
sS'profession,"'
p7743
I1
sS'cleaned'
p7744
I5
sS'warning.'
p7745
I1
sS'before,"'
p7746
I1
sS'nights'
p7747
I1
sS'relationship'
p7748
I1
sS'har."'
p7749
I1
sS'institution?'
p7750
I1
sS'finding'
p7751
I3
sS'me."'
p7752
I13
sS'added'
p7753
I3
sS'electric'
p7754
I1
sS'ivory-skinned,'
p7755
I1
sS'warnings'
p7756
I1
sS'reach'
p7757
I4
sS'react'
p7758
I2
sS'"Alice,'
p7759
I2
sS'gilt'
p7760
I1
sS'"Alice,"'
p7761
I1
sS'tongue.'
p7762
I1
sS'sniffed,'
p7763
I1
sS'windows'
p7764
I3
sS'traditional'
p7765
I4
sS'dissolved'
p7766
I1
sS'"Hey,'
p7767
I7
sS'night,'
p7768
I3
sS'lying'
p7769
I2
sS'Juliet'
p7770
I1
sS'stones'
p7771
I1
sS'find\x85'
p7772
I1
sS'stomach,'
p7773
I2
sS'unwrapped'
p7774
I1
sS'forward.'
p7775
I1
sS'Then,'
p7776
I3
sS'picture?"'
p7777
I1
sS'unlikely.'
p7778
I1
sS'"Charlie,'
p7779
I2
sS'hip'
p7780
I1
sS'razor-sharp,'
p7781
I1
sS'his'
p7782
I302
sS'hit'
p7783
I3
sS'babble'
p7784
I1
sS'hid'
p7785
I1
sS'fastest'
p7786
I1
sS'guilt,'
p7787
I1
sS'everyone,"'
p7788
I1
sS'him'
p7789
I63
sS'Olympia'
p7790
I1
sS'Olympic'
p7791
I2
sS'serene.'
p7792
I1
sS'pedal.'
p7793
I1
sS'medicines'
p7794
I1
sS'ya."'
p7795
I1
sS'you!"'
p7796
I1
sS'cringe'
p7797
I2
sS'wrote'
p7798
I1
sS'bars'
p7799
I2
sS'city.'
p7800
I1
sS'"Shh,"'
p7801
I1
sS'city,'
p7802
I2
sS'achieved'
p7803
I1
sS'forward."'
p7804
I1
sS'stereo?'
p7805
I1
sS'are'
p7806
I57
sS'competent.'
p7807
I1
sS'moping,'
p7808
I2
sS'arm'
p7809
I20
sS'visualize'
p7810
I1
sS'glistening'
p7811
I2
sS'slapped'
p7812
I1
sS'various'
p7813
I1
sS"other's"
p7814
I1
sS'numerous'
p7815
I1
sS'creating'
p7816
I1
sS'Could'
p7817
I3
sS'attention'
p7818
I8
sS'days.'
p7819
I2
sS'days,'
p7820
I3
sS'wincing,'
p7821
I1
sS'head.'
p7822
I13
sS'Scrubs.'
p7823
I1
sS'bronze'
p7824
I2
sS'head,'
p7825
I7
sS'false.'
p7826
I1
sS'Mmm,'
p7827
I1
sS'became'
p7828
I3
sS'finds'
p7829
I2
sS'flies'
p7830
I1
sS'host,'
p7831
I1
sS'knew,'
p7832
I2
sS'back,"'
p7833
I2
sS'reasons'
p7834
I1
sS'sweet'
p7835
I1
sS'opposite.'
p7836
I1
sS"hadn't"
p7837
I21
sS'ceremony.'
p7838
I1
sS'there,'
p7839
I4
sS'there.'
p7840
I7
sS'roaring'
p7841
I1
sS'agree'
p7842
I3
sS'overlook'
p7843
I1
sS'due'
p7844
I2
sS'dug'
p7845
I3
sS'whom'
p7846
I1
sS'Plan'
p7847
I3
sS'woke'
p7848
I2
sS'stay,"'
p7849
I1
sS'flight'
p7850
I1
sS'vaguely'
p7851
I3
sS'reason.'
p7852
I2
sS'demand'
p7853
I1
sS'standout'
p7854
I1
sS'rocking'
p7855
I1
sS'Angeles,'
p7856
I3
sS'stolen'
p7857
I1
sS'frozen'
p7858
I6
sS'lips.'
p7859
I5
sS'lips,'
p7860
I2
sS'armor.'
p7861
I2
sS'who,'
p7862
I1
sS"parents'"
p7863
I1
sS"Jessica's"
p7864
I1
sS'parents,'
p7865
I1
sS'parents.'
p7866
I1
sS'Italy'
p7867
I1
sS'potatoes,"'
p7868
I1
sS'stupidly.'
p7869
I1
sS'liquid,'
p7870
I1
sS"color\x97that's"
p7871
I1
sS'bedtime,'
p7872
I1
sS'lodged'
p7873
I1
sS'him\x97and'
p7874
I1
sS'rid'
p7875
I1
sS'arrive.'
p7876
I2
sS'cavernous'
p7877
I1
sS'away.'
p7878
I9
sS'away,'
p7879
I9
sS'shirt'
p7880
I3
sS'solid.'
p7881
I1
sS'welcome,"'
p7882
I1
sS'broil.'
p7883
I1
sS'higher'
p7884
I3
sS'About'
p7885
I3
sS'maroon-colored'
p7886
I1
sS'aging.'
p7887
I1
sS'accordingly.'
p7888
I1
sS'peacemaking'
p7889
I1
sS'flown'
p7890
I1
sS'Edward,'
p7891
I10
sS'eliminated.'
p7892
I1
sS'Edward.'
p7893
I12
sS'noticeably'
p7894
I1
sS'lower'
p7895
I1
sS'overwhelming,'
p7896
I1
sS'soul?'
p7897
I1
sS'registered,'
p7898
I1
sS'people,'
p7899
I2
sS'cheek'
p7900
I3
sS'bounces'
p7901
I1
sS'anybody'
p7902
I1
sS'reflection.'
p7903
I1
sS'bacon.'
p7904
I1
sS'reason\x85'
p7905
I1
sS'abilities'
p7906
I3
sS'anything."'
p7907
I1
sS'mood.'
p7908
I2
sS'mood,'
p7909
I2
sS'Porsche'
p7910
I1
sS'Suspicion'
p7911
I1
sS"We're"
p7912
I3
sS'questions'
p7913
I4
sS'vigilant'
p7914
I1
sS'"Mike'
p7915
I1
sS'couch'
p7916
I2
sS'association.'
p7917
I1
sS'case,'
p7918
I2
sS'tables'
p7919
I1
sS'murmured,'
p7920
I1
sS'exhibition'
p7921
I1
sS'murmured.'
p7922
I2
sS'thoughtlessly?'
p7923
I1
sS'Last'
p7924
I1
sS'Abashed,'
p7925
I1
sS'question,'
p7926
I1
sS'question.'
p7927
I2
sS'unlimited'
p7928
I1
sS'reuse'
p7929
I1
sS'Definitely'
p7930
I1
sS'alcohol-soaked'
p7931
I1
sS'question;'
p7932
I1
sS'helpful'
p7933
I2
sS'lost'
p7934
I4
sS'confront'
p7935
I1
sS'ignore'
p7936
I5
sS'doing,'
p7937
I2
sS'there\x97her'
p7938
I1
sS'table.'
p7939
I14
sS'table,'
p7940
I4
sS'hinted'
p7941
I1
sS'volleyball,'
p7942
I1
sS'shop."'
p7943
I1
sS'Bella?"'
p7944
I3
sS'understood'
p7945
I2
sS'jump,'
p7946
I1
sS'jump.'
p7947
I1
sS'gradually'
p7948
I1
sS'doing.'
p7949
I1
sS'fourteen.'
p7950
I1
sS"'53"
p7951
I1
sS'"Somewhere'
p7952
I1
sS'ticking'
p7953
I1
sS'rang.'
p7954
I2
sS'fragments'
p7955
I1
sS'rang,'
p7956
I1
sS'traditions,'
p7957
I1
sS'loud,'
p7958
I2
sS'loud.'
p7959
I1
sS'refused'
p7960
I2
sS'kind\x97braver'
p7961
I1
sS'intense'
p7962
I2
sS'fronded'
p7963
I1
sS'amused,'
p7964
I1
sS'birthday?"'
p7965
I1
sS'mingled'
p7966
I1
sS'most'
p7967
I21
sS'ordeal'
p7968
I1
sS'boxes.'
p7969
I1
sS'as,"'
p7970
I1
sS'here."'
p7971
I5
sS'hatred'
p7972
I3
sS'youthful'
p7973
I1
sS'honey,'
p7974
I2
sS'Vegas,'
p7975
I1
sS'noises.'
p7976
I1
sS'Everything'
p7977
I3
sS'mitosis'
p7978
I1
sS'returning'
p7979
I1
sS'drifted'
p7980
I1
sS'"No,"'
p7981
I4
sS'impressed'
p7982
I2
sS'rows'
p7983
I1
sS'sequence'
p7984
I1
sS'pallid'
p7985
I1
sS'fast'
p7986
I5
sS'presents\x97the'
p7987
I1
sS'nothing."'
p7988
I1
sS'once,"'
p7989
I1
sS'laughed,'
p7990
I3
sS"we're"
p7991
I5
sS'laughed.'
p7992
I3
sS'files'
p7993
I1
sS'satin-draped'
p7994
I1
sS'dismissal.'
p7995
I1
sS'cloth'
p7996
I1
sS'Bear,'
p7997
I1
sS'junior'
p7998
I1
sS'raising'
p7999
I1
sS"hasn't"
p8000
I1
sS'question."'
p8001
I1
sS'vapors,'
p8002
I1
sS'vapors.'
p8003
I1
sS'fried'
p8004
I1
sS'etc.'
p8005
I1
sS'called'
p8006
I13
sS'bell'
p8007
I3
sS'tiniest'
p8008
I1
sS'soft,'
p8009
I4
sS'warning'
p8010
I2
sS'Audi,'
p8011
I1
sS'tightly.'
p8012
I2
sS'tightly,'
p8013
I1
sS'rainbow'
p8014
I1
sS'verbose,'
p8015
I1
sS'replacing,'
p8016
I1
sS'rains'
p8017
I1
sS'peace'
p8018
I2
sS'income'
p8019
I1
sS'mock'
p8020
I1
sS'nice'
p8021
I12
sS'close."'
p8022
I1
sS'problems'
p8023
I2
sS'meaning'
p8024
I1
sS'allowing'
p8025
I2
sS'"Bella?"'
p8026
I2
sS'chocolate'
p8027
I1
sS'evil;'
p8028
I1
sS'back?'
p8029
I3
sS'reason,'
p8030
I2
sS'back;'
p8031
I1
sS'strawberries,'
p8032
I1
sS'shining,'
p8033
I1
sS'impatient'
p8034
I1
sS'back,'
p8035
I6
sS'rain.'
p8036
I2
sS'rain,'
p8037
I3
sS'me\x97these'
p8038
I1
sS'once'
p8039
I2
sS'wrestle'
p8040
I1
sS'hesitated'
p8041
I1
sS'fine,"'
p8042
I4
sS'resistance'
p8043
I2
sS'rules.'
p8044
I1
sS'alien'
p8045
I3
sS'screen'
p8046
I2
sS'issues'
p8047
I1
sS'cruiser'
p8048
I2
sS'deal.'
p8049
I2
sS'deal,'
p8050
I1
sS'note,'
p8051
I1
sS'me,"'
p8052
I5
sS'include'
p8053
I2
sS'Impossible.'
p8054
I1
sS'breathing'
p8055
I5
sS'wished'
p8056
I7
sS'porcelain-colored'
p8057
I1
sS'"Everyone?"'
p8058
I1
sS'failed.'
p8059
I2
sS'wishes'
p8060
I1
sS'floors.'
p8061
I1
sS'puppies.'
p8062
I2
sS'posture'
p8063
I1
sS'Enjoy'
p8064
I1
sS'quietly.'
p8065
I3
sS'notes'
p8066
I1
sS'language.'
p8067
I1
sS'drive?"'
p8068
I1
sS'dealt'
p8069
I1
sS'friendliness'
p8070
I1
sS'someday'
p8071
I1
sS'sweats,'
p8072
I1
sS'smaller'
p8073
I1
sS'gripping'
p8074
I1
sS"you'd"
p8075
I6
sS'accident-prone'
p8076
I1
sS'procession'
p8077
I1
sS'desire;'
p8078
I1
sS'perched'
p8079
I1
sS'translucent-looking'
p8080
I1
sS'marinade'
p8081
I1
sS'wrong,'
p8082
I1
sS'note\x85'
p8083
I1
sS'veins,'
p8084
I1
sS'rules\x85'
p8085
I1
sS'example\x97seemed'
p8086
I1
sS'bookstore.'
p8087
I1
sS'mayhem,'
p8088
I1
sS"man's"
p8089
I2
sS'shade.'
p8090
I1
sS'waiting'
p8091
I23
sS'shade,'
p8092
I2
sS'large,'
p8093
I1
sS'adjust.'
p8094
I1
sS'adult.\x85"'
p8095
I1
sS'America\x97do'
p8096
I1
sS'"Shh!"'
p8097
I2
sS'degree'
p8098
I3
sS'Light'
p8099
I1
sS'pushing'
p8100
I1
sS'chokes'
p8101
I1
sS'explore'
p8102
I1
sS"gets\x97she'll"
p8103
I1
sS'swirled'
p8104
I1
sS"Angela's"
p8105
I1
sS'slender,'
p8106
I1
sS'arms\x97but'
p8107
I1
sS'"He'
p8108
I11
sS'ones.'
p8109
I1
sS'leaving'
p8110
I3
sS'Isabella?"'
p8111
I1
sS'apple'
p8112
I1
sS'shoved'
p8113
I1
sS'himself."'
p8114
I1
sS'apt'
p8115
I1
sS'"They\'re'
p8116
I5
sS'duck'
p8117
I1
sS'apply'
p8118
I1
sS'bindings'
p8119
I1
sS'use'
p8120
I7
sS'from'
p8121
I135
sS'few'
p8122
I24
sS'sort'
p8123
I4
sS'hard,'
p8124
I2
sS'aware?"'
p8125
I1
sS'porch'
p8126
I1
sS'musician'
p8127
I1
sS'infection'
p8128
I1
sS'tsked'
p8129
I1
sS'red.'
p8130
I2
sS'red,'
p8131
I2
sS'annoy'
p8132
I1
sS'topic'
p8133
I1
sS'squealed'
p8134
I1
sS'us.'
p8135
I8
sS'us,'
p8136
I7
sS'ice.'
p8137
I1
sS'bulletproof?'
p8138
I1
sS'anywhere'
p8139
I2
sS'uncomfortably.'
p8140
I1
sS'posing'
p8141
I1
sS'Varner'
p8142
I1
sS'tap'
p8143
I1
sS'Esme\x85"'
p8144
I1
sS'Alice\x97"Don\'t'
p8145
I1
sS'dripping'
p8146
I5
sS'tag'
p8147
I1
sS'something'
p8148
I37
sS'tan'
p8149
I2
sS'summers'
p8150
I1
sS'provoke'
p8151
I1
sS'memorize'
p8152
I1
sS'sit'
p8153
I9
sS'news?"'
p8154
I1
sS'six'
p8155
I5
sS'perks'
p8156
I1
sS'reassurance.'
p8157
I1
sS'instead'
p8158
I4
sS'struggled'
p8159
I5
sS'toddler'
p8160
I1
sS'panic'
p8161
I3
sS'sin'
p8162
I1
sS'ashy'
p8163
I1
sS'"I\x97I'
p8164
I1
sS'cupboard'
p8165
I1
sS'attend'
p8166
I1
sS'impossiblypainful.'
p8167
I1
sS'I?"'
p8168
I1
sS'discomfort'
p8169
I1
sS'roses\x97lined'
p8170
I1
sS'perm.'
p8171
I1
sS'"Yes,'
p8172
I4
sS'"Yes.'
p8173
I3
sS'moving.'
p8174
I1
sS'gift\x97one'
p8175
I1
sS'thirteenth.'
p8176
I1
sS'light'
p8177
I25
sS'interrupted'
p8178
I2
sS'sidewalk.'
p8179
I1
sS'sidewalk,'
p8180
I2
sS'honestly'
p8181
I2
sS'live."'
p8182
I2
sS'blurry.'
p8183
I1
sS'pulsed'
p8184
I1
sS'saturated'
p8185
I1
sS'"Aren\'t'
p8186
I2
sS'looks'
p8187
I5
sS'raw'
p8188
I1
sS'heavily.'
p8189
I1
sS'goading'
p8190
I1
sS'Thanks.'
p8191
I1
sS'Thanks,'
p8192
I1
sS'choose'
p8193
I4
sS'orange'
p8194
I1
sS'covered'
p8195
I8
sS'world.'
p8196
I3
sS'"Whatever'
p8197
I1
sS'world,'
p8198
I7
sS'"Luckily,'
p8199
I1
sS'look.'
p8200
I2
sS'look,'
p8201
I2
sS'practice'
p8202
I2
sS'flew'
p8203
I1
sS'Can'
p8204
I1
sS'requestedthat'
p8205
I1
sS'Chaucer,'
p8206
I1
sS'worlds'
p8207
I1
sS'crowd,'
p8208
I2
sS'movements,'
p8209
I1
sS'movements.'
p8210
I2
sS'yesterday.'
p8211
I1
sS'by,'
p8212
I1
sS'"Are'
p8213
I5
sS'bills'
p8214
I1
sS'eases'
p8215
I1
sS'related'
p8216
I1
sS'Next'
p8217
I1
sS'fault?"'
p8218
I1
sS'doubled'
p8219
I1
sS'Which'
p8220
I3
sS'our'
p8221
I46
sS'anything,"'
p8222
I2
sS'out'
p8223
I103
sS'wobbles.'
p8224
I1
sS'gossamer'
p8225
I1
sS'double-check'
p8226
I1
sS'yanked'
p8227
I1
sS'Baby'
p8228
I1
sS'problem."'
p8229
I1
sS'This'
p8230
I21
sS'dishes.'
p8231
I1
sS'overpower'
p8232
I1
sS'squishing'
p8233
I1
sS'disgusted'
p8234
I2
sS'walls.'
p8235
I2
sS'walls,'
p8236
I3
sS'conversation'
p8237
I5
sS'phrased'
p8238
I1
sS'plainly'
p8239
I1
sS'bouquet'
p8240
I2
sS'sickness.'
p8241
I1
sS'baby-faced'
p8242
I1
sS'slide.'
p8243
I1
sS'floral'
p8244
I1
sS'called.'
p8245
I2
sS'called,'
p8246
I2
sS"doesn't"
p8247
I13
sS'enough?'
p8248
I1
sS'patient,'
p8249
I1
sS'their'
p8250
I54
sS'enough.'
p8251
I4
sS'enough,'
p8252
I1
sS'thinking\x97the'
p8253
I1
sS'Choked'
p8254
I1
sS'squishy'
p8255
I1
sS'"Perhaps'
p8256
I2
sS'slides'
p8257
I3
sS'reflecting'
p8258
I1
sS'diminish'
p8259
I1
sS'thrilled,'
p8260
I1
sS'chatterer'
p8261
I1
sS'isolation'
p8262
I1
sS'not?"'
p8263
I1
sS'chattered'
p8264
I1
sS'here,"'
p8265
I3
sS'Peter'
p8266
I1
sS'lame,'
p8267
I1
sS'"Arg!"'
p8268
I1
sS'varied,'
p8269
I1
sS'response.'
p8270
I2
sS'incredulously.'
p8271
I1
sS'hilarious,'
p8272
I1
sS'purple,'
p8273
I1
sS'afraid'
p8274
I8
sS'angle'
p8275
I1
sS'After'
p8276
I7
sS'comfortable.'
p8277
I1
sS'bagel'
p8278
I1
sS'lope'
p8279
I1
sS'wide-eyed.'
p8280
I1
sS"Kevin's"
p8281
I1
sS'Ben,'
p8282
I1
sS'nicknames.'
p8283
I1
sS'think."'
p8284
I2
sS'confided.'
p8285
I1
sS'ribbons.'
p8286
I1
sS'Mercedes'
p8287
I3
sS'alarmed'
p8288
I1
sS'why'
p8289
I14
sS'deny'
p8290
I1
sS'"No."'
p8291
I1
sS'name\x97and'
p8292
I1
sS'"Toasty'
p8293
I1
sS'prisoners.'
p8294
I1
sS'Pop'
p8295
I1
sS'High'
p8296
I3
sS'protective,'
p8297
I1
sS'Earth'
p8298
I2
sS'smirked'
p8299
I1
sS'strong."'
p8300
I1
sS'balding'
p8301
I1
sS'bulging'
p8302
I1
sS'chances'
p8303
I1
sS'word,'
p8304
I2
sS'agreed'
p8305
I7
sS'word.'
p8306
I5
sS'one,'
p8307
I5
sS'one.'
p8308
I9
sS'planning'
p8309
I2
sS'utter'
p8310
I1
sS'fear'
p8311
I7
sS'darkest'
p8312
I1
sS'eyes'
p8313
I70
sS'pleased'
p8314
I3
sS'one?'
p8315
I1
sS'true,'
p8316
I1
sS'Shut'
p8317
I1
sS'true.'
p8318
I2
sS'clutching'
p8319
I1
sS'waterfall.'
p8320
I1
sS'combs'
p8321
I1
sS'Singing'
p8322
I1
sS'know."'
p8323
I4
sS'piano'
p8324
I2
sS"Juliet's"
p8325
I1
sS'local'
p8326
I1
sS'head\x97as'
p8327
I1
sS'spun'
p8328
I2
sS'distress,'
p8329
I1
sS'Breaking'
p8330
I1
sS'overdressed.'
p8331
I1
sS'watching'
p8332
I3
sS'spine.'
p8333
I2
sS'ones'
p8334
I7
sS'please,'
p8335
I2
sS'words'
p8336
I17
sS'please.'
p8337
I1
sS'ended'
p8338
I1
sS'notice,'
p8339
I1
sS'down,"'
p8340
I1
sS'overheard.'
p8341
I1
sS'view'
p8342
I2
sS'available'
p8343
I3
sS'stung.'
p8344
I1
sS'Darren."'
p8345
I2
sS'buzzed'
p8346
I2
sS'around."'
p8347
I2
sS'closer'
p8348
I5
sS'still'
p8349
I55
sS'closet'
p8350
I1
sS'Angela,'
p8351
I1
sS'me\x97the'
p8352
I1
sS'fifties'
p8353
I1
sS'closed'
p8354
I4
sS'limit'
p8355
I1
sS'frustrated'
p8356
I1
sS'speed'
p8357
I1
sS'bought'
p8358
I4
sS'prompted.'
p8359
I1
sS'challenged.'
p8360
I1
sS'ability'
p8361
I3
sS"Gran's"
p8362
I1
sS'opening'
p8363
I3
sS'peace."'
p8364
I2
sS'"Yes?"'
p8365
I1
sS'glimmered'
p8366
I1
sS'Facing'
p8367
I1
sS'embarrassment'
p8368
I1
sS'job'
p8369
I3
sS'spoil'
p8370
I2
sS'friends?"'
p8371
I1
sS'eyes,'
p8372
I7
sS'cookies.'
p8373
I1
sS'"Calling'
p8374
I1
sS'motionlessly'
p8375
I1
sS'careful!"'
p8376
I1
sS'Irritation'
p8377
I1
sS'canopy'
p8378
I2
sS'safely'
p8379
I2
sS'close,'
p8380
I1
sS'Porsche.'
p8381
I1
sS'unclear'
p8382
I1
sS'flecked'
p8383
I1
sS'wall'
p8384
I4
sS'shoving'
p8385
I1
sS'dresser,'
p8386
I1
sS'walk'
p8387
I5
sS'table'
p8388
I15
sS'narrowed'
p8389
I1
sS'resists."'
p8390
I1
sS'choice,'
p8391
I1
sS'choice.'
p8392
I3
sS'Moving'
p8393
I1
sS'greenly'
p8394
I1
sS'unchanging.'
p8395
I1
sS'painted'
p8396
I3
sS'eighty-one'
p8397
I1
sS'freak.'
p8398
I1
sS'last'
p8399
I28
sS'present'
p8400
I2
sS'reverse'
p8401
I1
sS'eyelashes'
p8402
I1
sS'unlike'
p8403
I1
sS'agreement.'
p8404
I1
sS'lived;'
p8405
I1
sS'will'
p8406
I37
sS'respond,'
p8407
I1
sS'fingertip'
p8408
I1
sS'wild'
p8409
I2
sS'lived.'
p8410
I1
sS'"But'
p8411
I15
sS'province.'
p8412
I1
sS'ringing'
p8413
I1
sS'prom.'
p8414
I1
sS'prom,'
p8415
I1
sS'Tents,'
p8416
I1
sS'Healer.'
p8417
I5
sS'Healer,'
p8418
I1
sS'(preferably'
p8419
I1
sS'thud'
p8420
I2
sS'elbow.'
p8421
I1
sS'Volturi?"'
p8422
I1
sS'apart,'
p8423
I1
sS'perhaps'
p8424
I3
sS'cross'
p8425
I3
sS'black-topped'
p8426
I1
sS'"They\x85'
p8427
I1
sS'member'
p8428
I1
sS'wasted.'
p8429
I1
sS'merciful'
p8430
I1
sS'gets'
p8431
I7
sS'snatcher,'
p8432
I1
sS'difficult'
p8433
I4
sS'audience.'
p8434
I1
sS'Mine,'
p8435
I2
sS'student'
p8436
I1
sS'pedal'
p8437
I2
sS'fighting'
p8438
I2
sS'States'
p8439
I1
sS'sensing'
p8440
I2
sS'lightbulb'
p8441
I1
sS'excessive'
p8442
I1
sS'cried'
p8443
I3
sS'heavily'
p8444
I1
sS'seconds,'
p8445
I2
sS'seconds.'
p8446
I2
sS'fishing'
p8447
I3
sS'rooms,'
p8448
I1
sS'happiness'
p8449
I1
sS'wonder.'
p8450
I2
sS'host.'
p8451
I3
sS'guts'
p8452
I1
sS'sky'
p8453
I3
sS'Jasper.'
p8454
I1
sS'Jasper,'
p8455
I3
sS'other'
p8456
I34
sS'illumination,'
p8457
I1
sS'tawny'
p8458
I1
sS'me\x97until'
p8459
I1
sS'surprised.'
p8460
I1
sS'surprised,'
p8461
I2
sS'came.'
p8462
I1
sS'came,'
p8463
I1
sS"who's"
p8464
I2
sS'frighteningly'
p8465
I1
sS'yell'
p8466
I1
sS'know'
p8467
I53
sS'presume'
p8468
I1
sS'raincoats'
p8469
I1
sS'press'
p8470
I1
sS'"You\'ll'
p8471
I1
sS'hollow'
p8472
I1
sS'toe'
p8473
I1
sS'cruiser.'
p8474
I3
sS'Charlie."'
p8475
I2
sS'hosts'
p8476
I5
sS'repressed'
p8477
I1
sS'it\x97not'
p8478
I1
sS'because'
p8479
I28
sS'smoothly'
p8480
I2
sS'scared'
p8481
I2
sS'searching'
p8482
I2
sS'Unsmiling'
p8483
I1
sS'past,'
p8484
I1
sS'kinds'
p8485
I3
sS'soon.'
p8486
I1
sS'lead'
p8487
I1
sS'markers'
p8488
I1
sS'leap'
p8489
I1
sS'ripped'
p8490
I2
sS'executed,'
p8491
I1
sS'"Edward\'s'
p8492
I1
sS'foolish,"'
p8493
I1
sS'beat.'
p8494
I1
sS'paste'
p8495
I1
sS'injury."'
p8496
I1
sS'throng'
p8497
I1
sS'rare'
p8498
I3
sS'carried'
p8499
I1
sS'herself?'
p8500
I1
sS'linger'
p8501
I1
sS'himself,'
p8502
I2
sS'himself.'
p8503
I4
sS'urged'
p8504
I1
sS'surge'
p8505
I1
sS'mine.'
p8506
I10
sS'mine,'
p8507
I6
sS"Seeker's"
p8508
I3
sS'sweat'
p8509
I1
sS'herself.'
p8510
I1
sS'own'
p8511
I16
sS'polished'
p8512
I2
sS'cocked'
p8513
I1
sS'wilderness'
p8514
I1
sS'triumphant,'
p8515
I1
sS'pajamas'
p8516
I1
sS'fund.'
p8517
I1
sS'brush'
p8518
I1
sS'venom-coated'
p8519
I1
sS'remoteness.'
p8520
I1
sS'fast.'
p8521
I1
sS'"Which'
p8522
I2
sS'calling.'
p8523
I1
sS'"From'
p8524
I1
sS'town,"'
p8525
I1
sS'experience."'
p8526
I1
sS'Gran\x97I'
p8527
I1
sS'faithfully'
p8528
I1
sS'feat'
p8529
I1
sS'inescapable.'
p8530
I1
sS'tinged'
p8531
I1
sS'omniscient'
p8532
I1
sS'volume'
p8533
I1
sS'"Hello,"'
p8534
I1
sS'squeeze'
p8535
I1
sS'made'
p8536
I53
sS'Ten'
p8537
I1
sS'whether'
p8538
I3
sS'this,'
p8539
I10
sS'distract'
p8540
I4
sS'this.'
p8541
I5
sS'record'
p8542
I1
sS'below'
p8543
I1
sS'cake'
p8544
I1
sS'"No'
p8545
I4
sS'this:'
p8546
I1
sS'my\x85'
p8547
I3
sS'this?'
p8548
I1
sS'horrific'
p8549
I1
sS'"so'
p8550
I1
sS'kind.'
p8551
I3
sS'kind,'
p8552
I1
sS'Bella?'
p8553
I2
sS'case."'
p8554
I1
sS'"Alice\x97wow."'
p8555
I1
sS'volume.'
p8556
I3
sS'myself."'
p8557
I2
sS'pills'
p8558
I2
sS'Bella.'
p8559
I10
sS'Bella,'
p8560
I4
sS'book'
p8561
I4
sS'sick'
p8562
I1
sS'Idaho.'
p8563
I1
sS'Banner'
p8564
I3
sS'Bella!'
p8565
I1
sS'this\x85'
p8566
I1
sS'toasty'
p8567
I1
sS'squeak'
p8568
I1
sS'gap'
p8569
I1
sS'opened'
p8570
I12
sS'click,'
p8571
I1
sS'could,'
p8572
I1
sS'jewel'
p8573
I1
sS'sister-in-law-to-be.'
p8574
I1
sS'"Maybe."'
p8575
I1
sS'not!"'
p8576
I1
sS'sleeves'
p8577
I1
sS'cursorily.'
p8578
I1
sS'struggled,'
p8579
I1
s.