(dp1
S'Saints'
p2
I1
sS'shouted,'
p3
I2
sS'shouted.'
p4
I1
sS'yellow'
p5
I9
sS'four'
p6
I11
sS'rocketing'
p7
I1
sS'woods'
p8
I1
sS'ocean.'
p9
I3
sS'hanging'
p10
I3
sS'Until'
p11
I1
sS'though?"'
p12
I1
sS'looking'
p13
I33
sS'Petite'
p14
I1
sS'crossbar'
p15
I1
sS'advice.'
p16
I1
sS'wood.'
p17
I1
sS'advice,'
p18
I1
sS'Camarada,"'
p19
I1
sS'handling'
p20
I2
sS'Cleveland."'
p21
I2
sS'fingers.'
p22
I1
sS'fingers,'
p23
I1
sS'stems,'
p24
I1
sS'writing.'
p25
I1
sS'pairs,'
p26
I1
sS'disturb'
p27
I1
sS'wooden'
p28
I2
sS'stars.'
p29
I1
sS'everything."'
p30
I3
sS'straight'
p31
I12
sS'Kongoni'
p32
I1
sS'her.'
p33
I24
sS'tired'
p34
I3
sS'ate.'
p35
I1
sS'excellent,"'
p36
I2
sS'mail'
p37
I1
sS'second'
p38
I7
sS'oars.'
p39
I1
sS'strong,"'
p40
I1
sS'admire'
p41
I1
sS'Brett!'
p42
I1
sS'cooking'
p43
I1
sS'fingers'
p44
I4
sS'report.'
p45
I1
sS'Hamilton'
p46
I1
sS'fishless'
p47
I1
sS'to-morrow?"'
p48
I1
sS'so."'
p49
I4
sS'crouch'
p50
I1
sS'Church'
p51
I1
sS'here'
p52
I20
sS'herd'
p53
I2
sS'reported'
p54
I2
sS'glass.'
p55
I3
sS'endorsing,'
p56
I1
sS'shock.'
p57
I1
sS'talk."'
p58
I2
sS'climbed'
p59
I7
sS'"why'
p60
I2
sS'finger.'
p61
I1
sS'flattened,'
p62
I1
sS'pieces.'
p63
I1
sS'attractiveness.'
p64
I1
sS'military'
p65
I5
sS'golden'
p66
I3
sS'ground'
p67
I5
sS'Harvey'
p68
I5
sS'explained'
p69
I1
sS'Three'
p70
I1
sS'brought'
p71
I21
sS'stern'
p72
I4
sS'female.'
p73
I1
sS'"The'
p74
I26
sS'spoke'
p75
I13
sS'music'
p76
I3
sS'until'
p77
I22
sS'higher,'
p78
I1
sS'dry,'
p79
I1
sS'dry.'
p80
I2
sS'successful'
p81
I1
sS'brings'
p82
I3
sS'hurt'
p83
I7
sS'glass'
p84
I9
sS'melt,"'
p85
I1
sS'hold'
p86
I6
sS'attack,"'
p87
I1
sS'locked'
p88
I1
sS'army,"'
p89
I1
sS'desk.'
p90
I1
sS'clock,"'
p91
I2
sS'Comrade,"'
p92
I1
sS'Le'
p93
I1
sS'La'
p94
I1
sS'artillery'
p95
I1
sS'shore,'
p96
I1
sS'that."'
p97
I8
sS'dynamite,"'
p98
I2
sS'want'
p99
I51
sS'absolute'
p100
I2
sS'around.'
p101
I3
sS'travel'
p102
I2
sS'timer,'
p103
I1
sS'cigarette.'
p104
I1
sS'machine'
p105
I3
sS'how'
p106
I38
sS'clubbing'
p107
I1
sS'youth,'
p108
I1
sS'Genevieve.'
p109
I1
sS'place'
p110
I8
sS"He'll"
p111
I3
sS'A'
I9
sS'beauty'
p112
I6
sS'swing'
p113
I1
sS'wrong'
p114
I4
sS'scornfully.'
p115
I1
sS'Aloud'
p116
I1
sS'Linked'
p117
I1
sS'cigarettes'
p118
I4
sS'keeps'
p119
I1
sS'"To'
p120
I5
sS'wind'
p121
I8
sS'wine'
p122
I10
sS'school,'
p123
I2
sS'dreamed'
p124
I5
sS'"Hello,'
p125
I6
sS'sharply.'
p126
I1
sS'"Give'
p127
I1
sS'Monsieur,"'
p128
I1
sS'Told'
p129
I6
sS'[35]'
p130
I1
sS'His'
p131
I15
sS'fit'
p132
I1
sS'fix'
p133
I1
sS'shaved,"'
p134
I1
sS'ready?'
p135
I1
sS'closed.'
p136
I2
sS'hidden'
p137
I3
sS'easier'
p138
I1
sS'ready.'
p139
I2
sS'doorway?"'
p140
I1
sS'wooded'
p141
I1
sS'schools'
p142
I2
sS'silver'
p143
I2
sS'sore.'
p144
I1
sS'blushed'
p145
I2
sS'Padiglione'
p146
I2
sS'stalks.'
p147
I1
sS'speed,'
p148
I1
sS'hard."'
p149
I1
sS'sick?"'
p150
I1
sS'Work'
p151
I1
sS'galloping,'
p152
I1
sS'heavy,'
p153
I8
sS'heavy.'
p154
I3
sS'"They\'ve'
p155
I1
sS'moment'
p156
I5
sS'machine-gun'
p157
I1
sS'shipped'
p158
I3
sS'disturbed'
p159
I1
sS'"Told'
p160
I1
sS'front.'
p161
I2
sS'Dun'
p162
I1
sS'Please'
p163
I1
sS'wash'
p164
I2
sS'likes.'
p165
I1
sS'service'
p166
I2
sS'marry,'
p167
I1
sS'her,'
p168
I8
sS'needed'
p169
I4
sS'master'
p170
I1
sS'legs'
p171
I5
sS'easy.'
p172
I1
sS'easy,'
p173
I1
sS'trip."'
p174
I1
sS'snooty'
p175
I1
sS'falling,'
p176
I1
sS'mutilated'
p177
I1
sS'was,'
p178
I1
sS'was.'
p179
I1
sS'postponed?'
p180
I1
sS'showed'
p181
I16
sS'tree'
p182
I9
sS'Ashley,'
p183
I1
sS'Ashley.'
p184
I4
sS'inshore.'
p185
I1
sS'taken,"'
p186
I1
sS'feeling'
p187
I9
sS'old,'
p188
I2
sS'runner'
p189
I1
sS'well,'
p190
I3
sS'well.'
p191
I7
sS'dozen'
p192
I2
sS'"You,'
p193
I1
sS'Then'
p194
I47
sS'town."'
p195
I1
sS'straightened'
p196
I1
sS'"That,"'
p197
I1
sS'drunk.'
p198
I3
sS'circling.'
p199
I1
sS'aboard,'
p200
I1
sS'They'
p201
I67
sS'horrible-looking'
p202
I1
sS'hardest,'
p203
I1
sS'long?'
p204
I1
sS'object'
p205
I1
sS'wells'
p206
I1
sS'mouth'
p207
I10
sS'fast.'
p208
I7
sS'letter'
p209
I1
sS'long,'
p210
I3
sS'yes,"'
p211
I1
sS'cocked,'
p212
I1
sS'door,'
p213
I1
sS'door.'
p214
I5
sS'consummate'
p215
I1
sS'came'
p216
I69
sS'saying'
p217
I1
sS'too."'
p218
I7
sS'whittling'
p219
I2
sS'capes'
p220
I1
sS'touches'
p221
I1
sS'busy'
p222
I1
sS'bush'
p223
I1
sS'tight.'
p224
I1
sS'touched'
p225
I4
sS'rich'
p226
I5
sS'boat?"'
p227
I1
sS'rice'
p228
I3
sS'plate'
p229
I1
sS'wide'
p230
I6
sS'pocket'
p231
I8
sS'dropping.'
p232
I1
sS'new'
p233
I8
sS'badness."'
p234
I2
sS'Dites'
p235
I1
sS'dipping'
p236
I2
sS'salao,'
p237
I1
sS'produced.'
p238
I1
sS'men,'
p239
I2
sS'them.'
p240
I25
sS'them,'
p241
I8
sS'blew'
p242
I6
sS'tendon-'
p243
I1
sS'pads'
p244
I1
sS'John'
p245
I1
sS'best'
p246
I6
sS'Maria."'
p247
I1
sS'lots'
p248
I3
sS'injuries'
p249
I1
sS'month,"'
p250
I1
sS'planes,'
p251
I1
sS'trigger.'
p252
I1
sS'claws'
p253
I1
sS'never'
p254
I52
sS'rolled'
p255
I3
sS'smelled'
p256
I3
sS'noise."'
p257
I1
sS'extent'
p258
I1
sS'angling'
p259
I1
sS'roller'
p260
I1
sS'whisky,"'
p261
I1
sS'pity'
p262
I1
sS'described.'
p263
I1
sS'Why?"'
p264
I2
sS'country'
p265
I8
sS'adventures'
p266
I1
sS'demanded'
p267
I1
sS'garcon,'
p268
I1
sS'drove.'
p269
I1
sS'"Something'
p270
I4
sS'asked'
p271
I37
sS'vain'
p272
I1
sS'money.'
p273
I2
sS'money,'
p274
I2
sS'gypsies'
p275
I1
sS'barman.'
p276
I1
sS'Montagne'
p277
I1
sS'cleanest'
p278
I1
sS'bothers'
p279
I1
sS'much'
p280
I41
sS'sommelier'
p281
I1
sS'mane,'
p282
I1
sS'life'
p283
I12
sS'beach.'
p284
I1
sS'so,"'
p285
I1
sS'wish'
p286
I20
sS'untracked,'
p287
I1
sS'Bois.'
p288
I1
sS'worked'
p289
I9
sS'angry.'
p290
I3
sS'professionally'
p291
I1
sS'"Pernod."'
p292
I1
sS'remembering'
p293
I2
sS'played'
p294
I5
sS'trees.'
p295
I5
sS'said:'
p296
I6
sS'trees,'
p297
I3
sS'"Rather,"'
p298
I2
sS'said"'
p299
I1
sS'to-morrow'
p300
I2
sS'south.'
p301
I1
sS'said,'
p302
I40
sS'trusted'
p303
I1
sS'things'
p304
I21
sS'finger,'
p305
I1
sS'flattened.'
p306
I1
sS'split'
p307
I1
sS'passed.'
p308
I1
sS'rebound'
p309
I2
sS'fairly'
p310
I2
sS'typhoid'
p311
I1
sS'Maybe'
p312
I6
sS'tops'
p313
I4
sS'dexterous'
p314
I1
sS'marched'
p315
I1
sS'Cannes.'
p316
I1
sS'tuna'
p317
I6
sS'danced.'
p318
I2
sS'army."'
p319
I1
sS'thing.'
p320
I5
sS'thing,'
p321
I2
sS'Thank'
p322
I1
sS'bush.'
p323
I1
sS'distribute'
p324
I1
sS'sleepy'
p325
I3
sS'nor,"'
p326
I1
sS'"Looking'
p327
I1
sS'had'
p328
I314
sS'liquor,"'
p329
I1
sS'accordion.'
p330
I1
sS'mouth."'
p331
I1
sS'iridescent,'
p332
I1
sS'Surely'
p333
I1
sS'innocent'
p334
I2
sS'prison'
p335
I1
sS"Wilson's"
p336
I4
sS'has'
p337
I40
sS'hat'
p338
I6
sS'one,"'
p339
I3
sS'"Also'
p340
I2
sS'Fontainebleau'
p341
I1
sS'hate,'
p342
I1
sS'possible'
p343
I1
sS'wide-spread'
p344
I1
sS'shadow'
p345
I6
sS'sleep.'
p346
I4
sS'"Listen'
p347
I2
sS'"Wasn\'t'
p348
I1
sS'Francis,'
p349
I1
sS'Jacob,"'
p350
I1
sS'teasingly.'
p351
I1
sS'right'
p352
I16
sS'old'
p353
I190
sS'crowd'
p354
I6
sS'people'
p355
I34
sS'cheeks.'
p356
I1
sS'rested.'
p357
I1
sS'left,'
p358
I3
sS'left.'
p359
I3
sS'Jake.'
p360
I4
sS"Cohn's"
p361
I2
sS'female,'
p362
I1
sS'need?"'
p363
I1
sS'for'
p364
I167
sS'tell."'
p365
I1
sS'fox'
p366
I3
sS'forever.'
p367
I1
sS'forever,'
p368
I1
sS'filaments'
p369
I4
sS'Think'
p370
I2
sS'shaken'
p371
I2
sS'First'
p372
I1
sS'"Sorry.'
p373
I1
sS'dollars'
p374
I6
sS'worry,'
p375
I1
sS'slightly'
p376
I1
sS'hell,"'
p377
I1
sS'raised'
p378
I3
sS'Boulevard'
p379
I10
sS'Scotland'
p380
I1
sS'son'
p381
I1
sS'Italians.'
p382
I1
sS'despised'
p383
I1
sS'apricots."'
p384
I1
sS'lay,'
p385
I1
sS'Aloysius'
p386
I1
sS'go?"'
p387
I4
sS'overhead'
p388
I1
sS'lay;'
p389
I1
sS'happy'
p390
I4
sS'brute?'
p391
I1
sS"l'eau."
p392
I1
sS'offer'
p393
I1
sS'magazine.'
p394
I1
sS'Mencken.'
p395
I2
sS'so,'
p396
I2
sS'so.'
p397
I3
sS'Greek,'
p398
I1
sS'statement.'
p399
I2
sS'Seeing'
p400
I1
sS'rippling'
p401
I1
sS'inside'
p402
I10
sS'stories,'
p403
I1
sS'Krum.'
p404
I5
sS'barbarous."'
p405
I1
sS'nicest'
p406
I1
sS'smashed'
p407
I1
sS'time,"'
p408
I1
sS'books.'
p409
I1
sS'explosion,'
p410
I1
sS'proud'
p411
I2
sS'gun-bearers?"'
p412
I1
sS'Virgin'
p413
I1
sS'lion?"'
p414
I1
sS'acacia'
p415
I1
sS'idea.'
p416
I1
sS'bloody-headed'
p417
I1
sS'floor'
p418
I9
sS'Possibly'
p419
I1
sS'republic'
p420
I1
sS'smell'
p421
I12
sS'tallness'
p422
I1
sS'valiant.'
p423
I1
sS'smelling'
p424
I1
sS'rolling'
p425
I4
sS'hornrimmed'
p426
I1
sS'Escorial.'
p427
I1
sS'"Never'
p428
I3
sS'warm.'
p429
I1
sS'time'
p430
I44
sS'push'
p431
I1
sS'"Barnes!'
p432
I1
sS'crowded."'
p433
I1
sS'gloom.'
p434
I1
sS'chain'
p435
I1
sS'whoever'
p436
I1
sS'Indians'
p437
I2
sS'chair'
p438
I5
sS'really,"'
p439
I1
sS'uneven'
p440
I1
sS'pay?"'
p441
I1
sS'happy."'
p442
I2
sS'cook,'
p443
I1
sS'jerk'
p444
I3
sS'choice'
p445
I3
sS'gloomy'
p446
I2
sS'stays'
p447
I1
sS'child,'
p448
I2
sS'minute'
p449
I1
sS'cooks'
p450
I2
sS'Provincetown,'
p451
I1
sS'leave'
p452
I19
sS'Bar.'
p453
I1
sS'wear?"'
p454
I1
sS'meadow'
p455
I1
sS'sigh'
p456
I1
sS'"Hell'
p457
I1
sS'too,"'
p458
I1
sS'sign'
p459
I4
sS'chopping'
p460
I1
sS'climb.'
p461
I1
sS'realizing'
p462
I1
sS'current'
p463
I8
sS'falling'
p464
I2
sS'Francis'
p465
I12
sS'shirt.'
p466
I2
sS'shirt,'
p467
I2
sS'trail.'
p468
I1
sS'yards'
p469
I3
sS'alone'
p470
I5
sS'thinker.'
p471
I1
sS'along'
p472
I20
sS'My'
p473
I6
sS'see,"'
p474
I1
sS'posts?"'
p475
I1
sS'studied'
p476
I3
sS'wherever'
p477
I1
sS'Kansas'
p478
I1
sS'love'
p479
I20
sS'prefer'
p480
I1
sS'bloody'
p481
I5
sS'marvelous'
p482
I1
sS'rocks,"'
p483
I1
sS'"Use'
p484
I1
sS'plague."'
p485
I1
sS'sorrel,'
p486
I1
sS'it,"'
p487
I15
sS'working'
p488
I9
sS'positive'
p489
I1
sS'angry'
p490
I1
sS'only'
p491
I49
sS'believe,'
p492
I1
sS'believe.'
p493
I1
sS'"Everything'
p494
I1
sS'loving'
p495
I1
sS'afford'
p496
I1
sS'tines'
p497
I1
sS'virtue'
p498
I1
sS'stored.'
p499
I1
sS'pretend'
p500
I1
sS'already?"'
p501
I1
sS'coldly.'
p502
I2
sS'Our'
p503
I1
sS'deep-chested'
p504
I2
sS'Out'
p505
I1
sS'lid,'
p506
I1
sS'frogs'
p507
I1
sS'hides'
p508
I1
sS'difficulty,"'
p509
I1
sS'evidently'
p510
I1
sS'winter'
p511
I2
sS'Who'
p512
I1
sS'horses?"'
p513
I1
sS'immune'
p514
I1
sS'prisoner."'
p515
I1
sS'shirt-sleeves,'
p516
I1
sS'elephant'
p517
I1
sS'Europe,'
p518
I3
sS'Why'
p519
I9
sS'Europe."'
p520
I1
sS'listen,'
p521
I1
sS'stood'
p522
I15
sS'hide,'
p523
I2
sS'blasting'
p524
I2
sS'spot'
p525
I2
sS'shoot?"'
p526
I2
sS'date'
p527
I2
sS'such'
p528
I14
sS'dove'
p529
I1
sS'shockingly'
p530
I1
sS'natural'
p531
I1
sS'so'
p532
I87
sS'wolves'
p533
I1
sS'pulled'
p534
I8
sS'drunken'
p535
I1
sS'tennis,"'
p536
I1
sS'early?'
p537
I1
sS'Barnes'
p538
I2
sS'below.'
p539
I1
sS'years'
p540
I12
sS'hiring'
p541
I1
sS'incapacity'
p542
I1
sS"sardine's"
p543
I1
sS'"Going,'
p544
I1
sS'tore'
p545
I1
sS'thumb'
p546
I4
sS'accordion'
p547
I2
sS'did,'
p548
I1
sS'did.'
p549
I1
sS'lunch?"'
p550
I1
sS'twitching'
p551
I1
sS'suspicion'
p552
I1
sS'dead.'
p553
I1
sS'fifty-franc'
p554
I1
sS'Islands.'
p555
I1
sS'saint?'
p556
I1
sS'concerned.'
p557
I1
sS'year,'
p558
I1
sS"boy's."
p559
I1
sS'year.'
p560
I1
sS'"Let'
p561
I4
sS'frightful."'
p562
I1
sS'next,'
p563
I1
sS'fisherman'
p564
I2
sS'off?"'
p565
I1
sS'quarter'
p566
I3
sS'repaired'
p567
I1
sS'turtle'
p568
I2
sS'square'
p569
I1
sS'prisms'
p570
I2
sS'right."'
p571
I4
sS'Live'
p572
I1
sS'curb.'
p573
I1
sS'Macomber,'
p574
I8
sS'superior,'
p575
I1
sS'Macomber.'
p576
I11
sS'canvas'
p577
I3
sS'container'
p578
I2
sS'silhouette,'
p579
I1
sS'dead."'
p580
I1
sS'mouth,"'
p581
I1
sS'one."'
p582
I3
sS'quite'
p583
I15
sS'complicated'
p584
I1
sS'intensely'
p585
I1
sS'you?"'
p586
I18
sS'appraisingly.'
p587
I1
sS'"I"m'
p588
I1
sS'silhouetted'
p589
I1
sS'Money'
p590
I1
sS"machinegunner's"
p591
I1
sS'gaff'
p592
I4
sS'"Wouldn\'t'
p593
I1
sS"couldn't."
p594
I1
sS'soon,"'
p595
I1
sS'Lately'
p596
I1
sS'details?"'
p597
I1
sS'Behave'
p598
I2
sS'"For'
p599
I4
sS'open'
p600
I13
sS'ripping'
p601
I2
sS'Monday'
p602
I1
sS'"Poor'
p603
I1
sS'work?"'
p604
I1
sS'shiver'
p605
I3
sS'on.'
p606
I9
sS'on,'
p607
I5
sS'spoke.'
p608
I1
sS'spoke,'
p609
I1
sS'much.'
p610
I2
sS'on:'
p611
I1
sS'ridiculous'
p612
I1
sS'inventor'
p613
I1
sS'hearsay.'
p614
I1
sS'favors'
p615
I1
sS'Hm,'
p616
I1
sS'future'
p617
I2
sS'ca-ra-wong!'
p618
I1
sS'wandering'
p619
I1
sS'damned'
p620
I12
sS'"Impressive.'
p621
I1
sS'Lavigne'
p622
I2
sS'tiring.'
p623
I2
sS'turned'
p624
I30
sS'sad'
p625
I6
sS'tomorrow,"'
p626
I1
sS'tastes'
p627
I3
sS'saw'
p628
I53
sS'lines."'
p629
I1
sS'sat'
p630
I41
sS'Jewish'
p631
I1
sS'aside'
p632
I1
sS'note'
p633
I2
sS'Land"'
p634
I2
sS'take'
p635
I41
sS'Half'
p636
I2
sS'wanting'
p637
I2
sS'"Going'
p638
I2
sS'congratulations,'
p639
I1
sS'time."'
p640
I5
sS'opposite'
p641
I3
sS'barbarous,"'
p642
I1
sS'America?"'
p643
I1
sS'knew'
p644
I51
sS'taste.'
p645
I1
sS'"Just'
p646
I4
sS'afternoon,'
p647
I1
sS'printed'
p648
I1
sS'nice.'
p649
I2
sS'angles,'
p650
I1
sS'Settled'
p651
I1
sS'creditable'
p652
I1
sS'Portuguese'
p653
I2
sS'City,'
p654
I1
sS'not?'
p655
I1
sS'drive'
p656
I4
sS'cushioned'
p657
I1
sS'something.'
p658
I2
sS'something,'
p659
I2
sS'butchered'
p660
I2
sS'not.'
p661
I2
sS'salt'
p662
I1
sS'walking'
p663
I4
sS'skiff.'
p664
I1
sS'skiff,'
p665
I2
sS'bright'
p666
I1
sS'manager."'
p667
I1
sS'Raspail,'
p668
I2
sS'Raspail.'
p669
I1
sS'Wants'
p670
I1
sS'slow'
p671
I2
sS'cause."'
p672
I1
sS'going'
p673
I61
sS'four-letter'
p674
I1
sS'equipped'
p675
I1
sS'darkness.'
p676
I2
sS'dinner?"'
p677
I1
sS'assistant'
p678
I1
sS'gone,"'
p679
I1
sS'cursing'
p680
I1
sS'brandy.'
p681
I1
sS'mysticism'
p682
I1
sS'life."'
p683
I1
sS'Cohn'
p684
I29
sS'borrow'
p685
I2
sS'worried'
p686
I3
sS'liable'
p687
I1
sS'neat,'
p688
I1
sS'where'
p689
I71
sS'crazy,'
p690
I2
sS'marrying.'
p691
I1
sS'banged'
p692
I1
sS'liquorice.'
p693
I1
sS'That'
p694
I39
sS'jumped'
p695
I3
sS'man?'
p696
I1
sS'man"'
p697
I1
sS'kilometer'
p698
I1
sS'bureau'
p699
I1
sS'refreshed'
p700
I1
sS'big-bored'
p701
I1
sS'man,'
p702
I9
sS'man.'
p703
I8
sS'dive,'
p704
I1
sS'anyway.'
p705
I2
sS'anyway,'
p706
I1
sS'spare'
p707
I1
sS'beginning."'
p708
I1
sS'"He\'ll'
p709
I4
sS'"None'
p710
I1
sS'majestically'
p711
I1
sS'many'
p712
I47
sS'moon.'
p713
I2
sS'Spider'
p714
I5
sS'personal'
p715
I2
sS'Offered'
p716
I1
sS"can't"
p717
I20
sS'allowance'
p718
I1
sS'meal.'
p719
I2
sS'Mathaiga'
p720
I1
sS'ants'
p721
I1
sS'trucks;'
p722
I3
sS'want.'
p723
I1
sS'boat'
p724
I12
sS'"Jacob."'
p725
I1
sS'cramps'
p726
I1
sS'cities'
p727
I1
sS'big,'
p728
I1
sS'stretch'
p729
I5
sS'endure.'
p730
I1
sS'games,'
p731
I2
sS'wants'
p732
I2
sS'panic.'
p733
I1
sS'thousand'
p734
I5
sS'Paix'
p735
I1
sS'tightened'
p736
I1
sS'"Enormous."'
p737
I1
sS'"There\'s'
p738
I8
sS'chap'
p739
I2
sS'ready,'
p740
I1
sS'straighter'
p741
I1
sS'newspaper'
p742
I5
sS'written.'
p743
I1
sS'they?"'
p744
I3
sS'edge,'
p745
I1
sS'cars,'
p746
I2
sS'Looking'
p747
I1
sS'well,"'
p748
I2
sS'"Unless'
p749
I1
sS'ivy'
p750
I1
sS'wire.'
p751
I1
sS'train,'
p752
I2
sS'train.'
p753
I5
sS'it."'
p754
I20
sS'up-stairs'
p755
I1
sS'motioned'
p756
I2
sS'wrappers'
p757
I1
sS"peasant's"
p758
I3
sS'I'
I586
sS'motionless.'
p759
I1
sS'Jockey.'
p760
I1
sS'owner."'
p761
I1
sS'eighty-five'
p762
I1
sS'M.,'
p763
I1
sS'gorse'
p764
I1
sS'shut.'
p765
I1
sS'kill."'
p766
I1
sS'summer'
p767
I1
sS'bullfighters."'
p768
I1
sS'being'
p769
I15
sS'rest'
p770
I4
sS'slimy'
p771
I2
sS'strange!'
p772
I1
sS'strange,'
p773
I2
sS'"One,"'
p774
I1
sS'around'
p775
I30
sS'fluttering.'
p776
I1
sS'cut."'
p777
I1
sS'dark'
p778
I25
sS'traffic'
p779
I1
sS'sure."'
p780
I1
sS'world'
p781
I2
sS'boats,'
p782
I1
sS'dare'
p783
I1
sS'boats.'
p784
I2
sS'Ardennes."'
p785
I1
sS'Navacerrada'
p786
I1
sS'despair."'
p787
I1
sS'Instead,'
p788
I1
sS'pickled'
p789
I1
sS'divine'
p790
I1
sS'talking?"'
p791
I2
sS'thinks'
p792
I1
sS'traffic-signal,'
p793
I1
sS'dysentery."'
p794
I1
sS'noon'
p795
I1
sS'"Sure.'
p796
I2
sS'champagne.'
p797
I1
sS'think.'
p798
I2
sS'waited,'
p799
I1
sS'windfalls'
p800
I1
sS'fished'
p801
I3
sS'stone'
p802
I2
sS'thirsty.'
p803
I1
sS'thirsty,'
p804
I1
sS'meal'
p805
I1
sS'act'
p806
I1
sS'mean'
p807
I10
sS'gesturing'
p808
I1
sS'"Because'
p809
I1
sS'No'
p810
I8
sS'agreed.'
p811
I3
sS'forehead.'
p812
I1
sS'amusing?"'
p813
I1
sS'eighty-seven'
p814
I2
sS'bubonic'
p815
I1
sS'worried,'
p816
I1
sS'worried.'
p817
I1
sS'right,"'
p818
I5
sS'dirt,'
p819
I1
sS'her'
p820
I140
sS'"Letter'
p821
I1
sS'sloped'
p822
I2
sS'sides'
p823
I4
sS'sealed'
p824
I1
sS'back."'
p825
I4
sS'bubble'
p826
I2
sS'Khotze.'
p827
I1
sS'things."'
p828
I3
sS'complete'
p829
I2
sS'marlin.'
p830
I1
sS'another.'
p831
I5
sS'another,'
p832
I3
sS'prep-school'
p833
I1
sS'with'
p834
I294
sS'buying'
p835
I1
sS'handsome'
p836
I3
sS"they're"
p837
I1
sS'rush'
p838
I3
sS'paper,"'
p839
I1
sS'betray.'
p840
I1
sS'do."'
p841
I2
sS'dirty'
p842
I3
sS'mopping'
p843
I1
sS'he,'
p844
I2
sS'Close'
p845
I1
sS'dish.'
p846
I2
sS'gone'
p847
I18
sS'exhausted'
p848
I1
sS'certain'
p849
I10
sS'am'
p850
I27
sS'an'
p851
I78
sS'How'
p852
I9
sS'as'
p853
I215
sS'at'
p854
I257
sS'watched'
p855
I17
sS'shot,"'
p856
I1
sS'scarred,'
p857
I1
sS'tight'
p858
I3
sS'Lady'
p859
I6
sS'disgraceful'
p860
I1
sS'Ho.'
p861
I1
sS'walk.'
p862
I1
sS'slant'
p863
I2
sS'seriousness'
p864
I1
sS'accent.'
p865
I1
sS"Pablo's"
p866
I1
sS'tricks'
p867
I1
sS'mast'
p868
I6
sS'cheekbones,'
p869
I1
sS'Thyself'
p870
I1
sS'uplift,'
p871
I1
sS'showing.'
p872
I1
sS'Wednesday."'
p873
I1
sS'Hobin,'
p874
I1
sS'including'
p875
I2
sS'eighty-four'
p876
I1
sS'understand."'
p877
I4
sS'horse."'
p878
I1
sS'herring.'
p879
I1
sS'smile'
p880
I2
sS'Eat'
p881
I5
sS'although,'
p882
I1
sS'paying'
p883
I1
sS'"Nay,"'
p884
I1
sS'swallows'
p885
I1
sS'floated'
p886
I1
sS'condition'
p887
I1
sS'joined'
p888
I1
sS'reinforcements.'
p889
I1
sS'large'
p890
I2
sS'sand'
p891
I1
sS'diseases."'
p892
I1
sS'small'
p893
I19
sS'educated,'
p894
I1
sS'"We\'ve'
p895
I1
sS'nothing?"'
p896
I1
sS'past'
p897
I6
sS'manager,"'
p898
I1
sS'pass'
p899
I4
sS'many."'
p900
I1
sS'Safari'
p901
I1
sS'full'
p902
I13
sS'escaping'
p903
I1
sS'"Playing'
p904
I1
sS'leaping'
p905
I2
sS'hours'
p906
I7
sS'hast'
p907
I1
sS'yourself?'
p908
I1
sS'Lyons'
p909
I1
sS'experience'
p910
I1
sS'yourself.'
p911
I2
sS'social'
p912
I2
sS'business,"'
p913
I2
sS'benches,'
p914
I1
sS'followed'
p915
I3
sS'pulls'
p916
I1
sS'guess.'
p917
I2
sS'guess,'
p918
I1
sS'God,'
p919
I1
sS'Russian'
p920
I2
sS'Montmartre."'
p921
I1
sS'under.'
p922
I1
sS'blaze'
p923
I1
sS'pull.'
p924
I1
sS'pull,'
p925
I1
sS'spoils'
p926
I1
sS'beginning,"'
p927
I2
sS'ate'
p928
I5
sS'learn'
p929
I1
sS'knocked'
p930
I3
sS'male'
p931
I7
sS'mala'
p932
I3
sS'beautiful'
p933
I12
sS'gallop'
p934
I5
sS'lives'
p935
I2
sS'dislikes'
p936
I1
sS'broadbill'
p937
I1
sS'commanded'
p938
I1
sS'scar'
p939
I1
sS'moaning,'
p940
I1
sS'"Well,"'
p941
I7
sS'huge'
p942
I5
sS'Frances'
p943
I8
sS'waved'
p944
I3
sS'something,"'
p945
I2
sS'plans'
p946
I1
sS'away."'
p947
I2
sS'fronds.'
p948
I1
sS'ethics'
p949
I1
sS'civilization,'
p950
I1
sS'refuse'
p951
I1
sS'brown.'
p952
I1
sS'brown,'
p953
I1
sS'deafening'
p954
I1
sS'"South'
p955
I1
sS'army.'
p956
I1
sS'$1832.60.'
p957
I1
sS'radios'
p958
I1
sS'Purple'
p959
I3
sS'markets.'
p960
I1
sS'trade'
p961
I1
sS'"Forget'
p962
I2
sS'army?'
p963
I2
sS'signs'
p964
I1
sS'smiling'
p965
I2
sS'its'
p966
I18
sS'roots'
p967
I1
sS'rapidly'
p968
I3
sS'princesses."'
p969
I1
sS'gamble,"'
p970
I1
sS'course.'
p971
I1
sS'course,'
p972
I5
sS'yellow.'
p973
I1
sS'yellow,'
p974
I1
sS'travelling'
p975
I1
sS'sauce'
p976
I2
sS'colleague'
p977
I1
sS'rapier'
p978
I1
sS'it,'
p979
I25
sS'sign.'
p980
I1
sS'it?'
p981
I3
sS'iridescent'
p982
I1
sS'radio.'
p983
I1
sS'all.'
p984
I8
sS'all,'
p985
I3
sS'boxing,'
p986
I3
sS'Thanks'
p987
I1
sS'found'
p988
I8
sS'Sounds'
p989
I1
sS'men,"'
p990
I1
sS'lantern'
p991
I1
sS'rise,'
p992
I1
sS'upstairs'
p993
I1
sS'rise.'
p994
I1
sS'Rose'
p995
I1
sS'Saturday'
p996
I1
sS'operation'
p997
I1
sS'really'
p998
I25
sS'try'
p999
I12
sS'missed'
p1000
I4
sS'misses'
p1001
I1
sS'Lashes?"'
p1002
I1
sS'nervously'
p1003
I1
sS'absinthe."'
p1004
I1
sS'blue,'
p1005
I1
sS'risen'
p1006
I1
sS'drifting'
p1007
I1
sS'barges'
p1008
I1
sS'afterwards?"'
p1009
I1
sS'safari.'
p1010
I1
sS'couple,'
p1011
I1
sS'plowing'
p1012
I1
sS'bumped'
p1013
I1
sS'big-footed,'
p1014
I1
sS'"Everything,'
p1015
I1
sS'slipped'
p1016
I3
sS'yes."'
p1017
I2
sS'number'
p1018
I3
sS'this?"'
p1019
I3
sS'remember.'
p1020
I2
sS'guess'
p1021
I3
sS'heads'
p1022
I5
sS'suddenly,'
p1023
I3
sS'Catalan'
p1024
I1
sS'in!"'
p1025
I1
sS'awfully.'
p1026
I1
sS'solids?"'
p1027
I1
sS'warmly'
p1028
I1
sS'forward,'
p1029
I2
sS'forward.'
p1030
I2
sS'stairs'
p1031
I1
sS'grace'
p1032
I1
sS'fishermen."'
p1033
I1
sS'Mademoiselle'
p1034
I5
sS"hell's"
p1035
I1
sS'stallion,'
p1036
I1
sS'stallion.'
p1037
I1
sS'others."'
p1038
I1
sS'tops,'
p1039
I1
sS'swamp."'
p1040
I1
sS'marriage'
p1041
I1
sS'fishermen'
p1042
I9
sS'"Makes'
p1043
I1
sS'taxis'
p1044
I1
sS'head,'
p1045
I3
sS'remembers'
p1046
I1
sS'milky.'
p1047
I1
sS'livers'
p1048
I2
sS'defect'
p1049
I1
sS'was:'
p1050
I1
sS'blond'
p1051
I3
sS'sell'
p1052
I1
sS'Club'
p1053
I1
sS'pajamas'
p1054
I1
sS'also'
p1055
I4
sS'sometime.'
p1056
I1
sS'understand,'
p1057
I2
sS'understand.'
p1058
I1
sS'play'
p1059
I4
sS'girl,"'
p1060
I2
sS'Count'
p1061
I1
sS'blackness.'
p1062
I1
sS'amused.'
p1063
I1
sS'fight,'
p1064
I1
sS'plan'
p1065
I1
sS'fight.'
p1066
I1
sS'quality,"'
p1067
I1
sS'understands'
p1068
I1
sS'sometimes'
p1069
I7
sS'cover'
p1070
I3
sS'shot,'
p1071
I3
sS'barrel'
p1072
I2
sS'justify'
p1073
I1
sS'"except'
p1074
I1
sS'taxi'
p1075
I9
sS'"She'
p1076
I11
sS'gold'
p1077
I1
sS'"Make'
p1078
I3
sS'"Martin.'
p1079
I1
sS'Has'
p1080
I1
sS'overwhelmed'
p1081
I1
sS'occupation'
p1082
I1
sS'carbine.'
p1083
I3
sS'"Since'
p1084
I1
sS'unpleasant'
p1085
I1
sS'alive.'
p1086
I1
sS'alive,'
p1087
I1
sS'sunny'
p1088
I1
sS'preparing'
p1089
I1
sS'mountain."'
p1090
I1
sS'charmingly'
p1091
I1
sS'man-of-war'
p1092
I2
sS'enemy'
p1093
I1
sS'gas-light'
p1094
I1
sS'photostated'
p1095
I1
sS'sir?"'
p1096
I1
sS'dismounted'
p1097
I2
sS'write.'
p1098
I1
sS'river'
p1099
I4
sS'rumored'
p1100
I1
sS'delicately'
p1101
I1
sS'set'
p1102
I11
sS'For'
p1103
I6
sS'prairie-like'
p1104
I1
sS'sex'
p1105
I1
sS'slanting'
p1106
I2
sS'see'
p1107
I78
sS'sea'
p1108
I12
sS'led'
p1109
I1
sS'knees'
p1110
I4
sS'girl.'
p1111
I9
sS'Might'
p1112
I1
sS'worth-while'
p1113
I1
sS'postponed.'
p1114
I1
sS'know."'
p1115
I11
sS'softly,'
p1116
I2
sS'prepped'
p1117
I1
sS'knowing'
p1118
I1
sS'sparsely'
p1119
I1
sS'buoys'
p1120
I1
sS'earth."'
p1121
I1
sS'States."'
p1122
I1
sS'worthless.'
p1123
I1
sS'last'
p1124
I13
sS'thou'
p1125
I10
sS'elephant?"'
p1126
I1
sS'"Chance'
p1127
I1
sS"we've"
p1128
I1
sS'knee.'
p1129
I1
sS'buffalo?"'
p1130
I1
sS'drunk'
p1131
I5
sS'seems'
p1132
I1
sS'acted'
p1133
I2
sS'once?"'
p1134
I1
sS'hollow'
p1135
I3
sS'fun,'
p1136
I1
sS'belt'
p1137
I2
sS'thighs.'
p1138
I1
sS'Students'
p1139
I1
sS'either,'
p1140
I1
sS'"Will'
p1141
I6
sS'proprietor'
p1142
I3
sS'loaded,'
p1143
I1
sS'firm'
p1144
I1
sS'champion'
p1145
I1
sS'fire'
p1146
I5
sS'hind'
p1147
I2
sS"She'd"
p1148
I1
sS'eyes."'
p1149
I1
sS'awake'
p1150
I2
sS'reproach,'
p1151
I1
sS'forgotten."'
p1152
I1
sS'"Anyone'
p1153
I1
sS'Old'
p1154
I1
sS'blowing.'
p1155
I1
sS'squash?"'
p1156
I1
sS'pressed'
p1157
I2
sS'leaning'
p1158
I7
sS'"Himself.'
p1159
I1
sS'"Very'
p1160
I5
sS'unwounded'
p1161
I1
sS'best,"'
p1162
I1
sS'backing'
p1163
I2
sS'remember."'
p1164
I1
sS'clucked'
p1165
I1
sS'funny'
p1166
I5
sS'welts'
p1167
I1
sS'So,'
p1168
I1
sS'rules'
p1169
I1
sS'sadness,'
p1170
I1
sS"money's"
p1171
I1
sS'tableswere'
p1172
I1
sS'affairs'
p1173
I1
sS'pipe.'
p1174
I1
sS'leaps'
p1175
I1
sS'Dancing,'
p1176
I1
sS'tobacco'
p1177
I1
sS'climbed,'
p1178
I1
sS"Didn't"
p1179
I2
sS'yet.'
p1180
I1
sS'person'
p1181
I1
sS'stirrups,'
p1182
I1
sS'General?"'
p1183
I2
sS'beer."'
p1184
I2
sS'listening'
p1185
I1
sS'drunk,'
p1186
I1
sS'Liege."'
p1187
I1
sS'"But,'
p1188
I1
sS'graces.'
p1189
I1
sS'accepted'
p1190
I1
sS'cuffs'
p1191
I1
sS'lives."'
p1192
I1
sS'parents'
p1193
I1
sS'crying'
p1194
I1
sS'On'
p1195
I6
sS'thee,'
p1196
I1
sS'doors'
p1197
I1
sS'couple'
p1198
I1
sS'suffering'
p1199
I1
sS'away,"'
p1200
I1
sS'Or'
p1201
I4
sS'flannel'
p1202
I3
sS'done,"'
p1203
I2
sS'continue'
p1204
I1
sS'Cornigrams.'
p1205
I1
sS'canst'
p1206
I1
sS'spring'
p1207
I1
sS'oval'
p1208
I1
sS'palm'
p1209
I3
sS'sight'
p1210
I8
sS'Hell,'
p1211
I1
sS'buy.'
p1212
I1
sS'behave'
p1213
I1
sS'ornate'
p1214
I1
sS'strange,"'
p1215
I3
sS'answers.'
p1216
I1
sS'might.'
p1217
I1
sS'Look'
p1218
I1
sS'dreams.'
p1219
I1
sS'odor'
p1220
I2
sS'flares.'
p1221
I2
sS'rowed.'
p1222
I1
sS'Montrouge'
p1223
I1
sS'leg-drawn-up'
p1224
I1
sS'serious."'
p1225
I1
sS'by'
p1226
I62
sS'anything'
p1227
I17
sS'"take'
p1228
I1
sS'dynamite?"'
p1229
I1
sS'wrinkles'
p1230
I3
sS'whisky'
p1231
I1
sS'un-stepped'
p1232
I1
sS'long.'
p1233
I1
sS'naturally.'
p1234
I1
sS'into'
p1235
I78
sS'fast,'
p1236
I1
sS'tricks."'
p1237
I1
sS'"Maybe'
p1238
I2
sS'tall,'
p1239
I3
sS'tasting'
p1240
I1
sS'spat'
p1241
I1
sS'"Four'
p1242
I1
sS'Select.'
p1243
I2
sS'inches'
p1244
I1
sS'link'
p1245
I1
sS'legs.'
p1246
I2
sS'know,"'
p1247
I5
sS'line'
p1248
I46
sS'open,'
p1249
I1
sS'open.'
p1250
I1
sS'Africa'
p1251
I7
sS'up'
p1252
I124
sS'us'
p1253
I26
sS'un'
p1254
I1
sS'faded'
p1255
I2
sS'pictures?"'
p1256
I1
sS'yelled'
p1257
I1
sS'side.'
p1258
I5
sS'side,'
p1259
I3
sS'camp'
p1260
I5
sS'bodega,"'
p1261
I1
sS'Sierra'
p1262
I1
sS'graceful'
p1263
I1
sS'beginning.'
p1264
I1
sS'occasional'
p1265
I1
sS'hell!'
p1266
I1
sS'swirl'
p1267
I1
sS'sardines,"'
p1268
I1
sS'hell,'
p1269
I1
sS'lashing'
p1270
I1
sS'faintly'
p1271
I3
sS'home."'
p1272
I2
sS'Barnes?"'
p1273
I1
sS'meals'
p1274
I1
sS'ago'
p1275
I1
sS'land'
p1276
I6
sS'age'
p1277
I3
sS'holes'
p1278
I2
sS'Practical,'
p1279
I1
sS'walked'
p1280
I23
sS'Alsace.'
p1281
I1
sS'twice."'
p1282
I1
sS'"Your'
p1283
I5
sS'wildly,'
p1284
I1
sS'fresh'
p1285
I6
sS'having'
p1286
I6
sS'advisory'
p1287
I1
sS'sun-burned,'
p1288
I1
sS'enjoyable'
p1289
I1
sS'"Another'
p1290
I1
sS'gloomy,'
p1291
I1
sS'seemed'
p1292
I14
sS'pounded,'
p1293
I1
sS'young'
p1294
I20
sS'send'
p1295
I5
sS'supper."'
p1296
I1
sS'sent'
p1297
I6
sS'oakum'
p1298
I1
sS'fox."'
p1299
I1
sS'manipulated'
p1300
I1
sS'continued'
p1301
I1
sS"d'oeuvres."
p1302
I1
sS'marry'
p1303
I6
sS'anxious'
p1304
I1
sS'"Paris'
p1305
I1
sS'rare,"'
p1306
I1
sS'collapsing,'
p1307
I1
sS'restaurant."'
p1308
I1
sS'air."'
p1309
I1
sS'"Don\'t'
p1310
I27
sS'odd'
p1311
I1
sS'Sovietique.'
p1312
I1
sS'that,'
p1313
I14
sS'make.'
p1314
I1
sS'that.'
p1315
I23
sS'business'
p1316
I2
sS'expressed'
p1317
I1
sS"Robert's"
p1318
I2
sS'that?'
p1319
I3
sS'peppery-tasting'
p1320
I1
sS'flowing'
p1321
I1
sS'bird'
p1322
I14
sS'scenery'
p1323
I1
sS'down-stairs.'
p1324
I1
sS'"Please,'
p1325
I1
sS'this?'
p1326
I1
sS'gathered'
p1327
I1
sS'answered.'
p1328
I2
sS'answered,'
p1329
I1
sS'buckskin.'
p1330
I1
sS'let'
p1331
I21
sS'answered:'
p1332
I1
sS'fifteen'
p1333
I2
sS'great'
p1334
I45
sS'Stream'
p1335
I1
sS'"What\'s'
p1336
I11
sS'carrying.'
p1337
I1
sS'makes'
p1338
I8
sS'reload,'
p1339
I1
sS'whore."'
p1340
I1
sS'gun-bearer'
p1341
I5
sS'"Listen,"'
p1342
I1
sS'standing'
p1343
I13
sS'Kashkin.'
p1344
I1
sS'confidence'
p1345
I2
sS'Kashkin,'
p1346
I1
sS'next'
p1347
I9
sS'eleven'
p1348
I2
sS'Frances.'
p1349
I2
sS'animal.'
p1350
I1
sS'pencil'
p1351
I1
sS'tight,'
p1352
I1
sS'carrying'
p1353
I10
sS'sharply'
p1354
I1
sS'"Whose'
p1355
I1
sS'animals'
p1356
I1
sS'ropes.'
p1357
I1
sS'undisturbed,'
p1358
I1
sS'this'
p1359
I74
sS'thin'
p1360
I4
sS'nice."'
p1361
I2
sS'shooting?"'
p1362
I1
sS'high,'
p1363
I1
sS'slid'
p1364
I2
sS'bent'
p1365
I2
sS'fit,'
p1366
I1
sS'rode'
p1367
I1
sS'pieces'
p1368
I1
sS'high'
p1369
I14
sS'"We\'re'
p1370
I6
sS'slip'
p1371
I2
sS'Several'
p1372
I1
sS'realize,'
p1373
I1
sS'lied.'
p1374
I1
sS'building.'
p1375
I1
sS"elk's"
p1376
I1
sS'tied'
p1377
I3
sS'purpose.'
p1378
I1
sS'lines,'
p1379
I2
sS'weighed'
p1380
I3
sS'lines.'
p1381
I2
sS'"Three'
p1382
I2
sS'hawk'
p1383
I1
sS'realized'
p1384
I5
sS'noises'
p1385
I1
sS'One'
p1386
I12
sS'Catholic'
p1387
I2
sS'holds'
p1388
I1
sS'thigh'
p1389
I1
sS'sullen.'
p1390
I1
sS'move'
p1391
I8
sS'Jo."'
p1392
I1
sS"wife's"
p1393
I1
sS'perfect'
p1394
I3
sS'Paris?"'
p1395
I3
sS'anyway?"'
p1396
I1
sS'line,'
p1397
I3
sS'sandpaper'
p1398
I1
sS'realize'
p1399
I6
sS'north,"'
p1400
I1
sS'remember,"'
p1401
I1
sS'Sax'
p1402
I1
sS'hanger'
p1403
I1
sS'tortured."'
p1404
I1
sS'glasses'
p1405
I5
sS'Ashley?"'
p1406
I1
sS'doing'
p1407
I6
sS'them;'
p1408
I1
sS'beer,"'
p1409
I1
sS'produced,'
p1410
I1
sS'society'
p1411
I1
sS'us."'
p1412
I4
sS'counts."'
p1413
I1
sS'Very'
p1414
I2
sS'Hordown."'
p1415
I1
sS'Alpine'
p1416
I1
sS'shut'
p1417
I5
sS'inferiority'
p1418
I1
sS'out,"'
p1419
I2
sS'surely'
p1420
I1
sS'tent,'
p1421
I4
sS'tent.'
p1422
I2
sS'steering'
p1423
I1
sS'things.'
p1424
I5
sS'things,'
p1425
I1
sS'Napolitain."'
p1426
I1
sS'could'
p1427
I100
sS'scars'
p1428
I2
sS'Jesus'
p1429
I1
sS'length'
p1430
I2
sS'done."'
p1431
I2
sS'wide-nostrilled'
p1432
I1
sS'roaring,"'
p1433
I1
sS'speaking,'
p1434
I2
sS'tight?"'
p1435
I1
sS'scene'
p1436
I1
sS'short,'
p1437
I1
sS'elation.'
p1438
I1
sS'scent'
p1439
I1
sS'have.'
p1440
I2
sS'have,'
p1441
I2
sS'two.'
p1442
I2
sS'gay.'
p1443
I1
sS'inscription:'
p1444
I1
sS'beggar,"'
p1445
I1
sS'name?"'
p1446
I1
sS'dollars.'
p1447
I1
sS'travelled'
p1448
I1
sS'painful'
p1449
I1
sS'colleague.'
p1450
I1
sS'interests'
p1451
I2
sS'stomach'
p1452
I2
sS'stars'
p1453
I1
sS'facts."'
p1454
I1
sS'"Go'
p1455
I1
sS'crosswise'
p1456
I1
sS'"Drink'
p1457
I1
sS'later.'
p1458
I1
sS'lying'
p1459
I2
sS'extraordinarily'
p1460
I1
sS'answers."'
p1461
I1
sS'steep'
p1462
I6
sS'collecting'
p1463
I1
sS'fins,'
p1464
I1
sS'beggar'
p1465
I2
sS'gently'
p1466
I5
sS'tonight'
p1467
I1
sS'Heput'
p1468
I1
sS"can't."
p1469
I2
sS'clearly'
p1470
I4
sS'illuminated'
p1471
I1
sS'dishes'
p1472
I2
sS'been?"'
p1473
I2
sS'studying'
p1474
I1
sS'teetered'
p1475
I1
sS'Groups,'
p1476
I1
sS'stop-and-go'
p1477
I1
sS'soap'
p1478
I1
sS'poison.'
p1479
I1
sS'"Fish,"'
p1480
I2
sS'lunch.'
p1481
I1
sS'vultures'
p1482
I1
sS'priceless,"'
p1483
I1
sS'fair'
p1484
I1
sS'Spanish;'
p1485
I1
sS'stronget'
p1486
I1
sS'stairs.'
p1487
I2
sS'"Pablo'
p1488
I3
sS'face'
p1489
I23
sS'mill.'
p1490
I1
sS"you'll"
p1491
I5
sS'Spanish,'
p1492
I2
sS'furnish'
p1493
I1
sS'Spanish.'
p1494
I1
sS'wounded'
p1495
I6
sS'painting'
p1496
I1
sS'far!"'
p1497
I1
sS'fact'
p1498
I2
sS'"Can'
p1499
I3
sS'sweetly.'
p1500
I1
sS'Paris'
p1501
I4
sS'stood.'
p1502
I1
sS'bring'
p1503
I15
sS'rough'
p1504
I1
sS'realized,'
p1505
I1
sS'Brett."'
p1506
I1
sS'principal'
p1507
I1
sS'jaw'
p1508
I1
sS'should'
p1509
I36
sS'terminal'
p1510
I1
sS'sardines."'
p1511
I1
sS'"After'
p1512
I1
sS"there's"
p1513
I1
sS'riding'
p1514
I2
sS'shauri'
p1515
I1
sS'meant'
p1516
I7
sS'handle'
p1517
I1
sS'listened'
p1518
I3
sS'means'
p1519
I2
sS'lucky'
p1520
I4
sS'Keep'
p1521
I1
sS'home,"'
p1522
I1
sS'steepness'
p1523
I1
sS'Once'
p1524
I4
sS'smash'
p1525
I1
sS'Because'
p1526
I1
sS'well."'
p1527
I4
sS'seriousness.'
p1528
I1
sS'rapped'
p1529
I1
sS'buffalo?'
p1530
I1
sS'morning,"'
p1531
I3
sS'others?"'
p1532
I1
sS'slanted'
p1533
I1
sS'buffalo,'
p1534
I1
sS'buffalo.'
p1535
I1
sS'once,'
p1536
I1
sS'once.'
p1537
I1
sS'packed'
p1538
I1
sS'coils'
p1539
I8
sS'wire'
p1540
I2
sS'insulting'
p1541
I1
sS'"Salud,'
p1542
I1
sS'stream.'
p1543
I3
sS'stream,'
p1544
I2
sS'mala,"'
p1545
I1
sS'deep-creased'
p1546
I1
sS'pistol'
p1547
I1
sS'wide-topped'
p1548
I1
sS'get?"'
p1549
I1
sS'office."'
p1550
I1
sS'ends'
p1551
I1
sS'explosive'
p1552
I2
sS'head.'
p1553
I7
sS'dressing-gown'
p1554
I1
sS'occurs,'
p1555
I1
sS'staring'
p1556
I2
sS'figured'
p1557
I1
sS'drum'
p1558
I1
sS'doorway'
p1559
I1
sS'castles'
p1560
I1
sS'adjusted'
p1561
I1
sS'"Bring'
p1562
I1
sS'Her'
p1563
I8
sS'pounds."'
p1564
I1
sS'turtle-ing'
p1565
I1
sS'Get'
p1566
I3
sS'depths,'
p1567
I1
sS'depths.'
p1568
I1
sS'poured'
p1569
I2
sS'hawking'
p1570
I1
sS'Arts.'
p1571
I1
sS'belly,'
p1572
I2
sS'Bonapartist'
p1573
I1
sS'ones?"'
p1574
I1
sS'"Much'
p1575
I1
sS'He,'
p1576
I1
sS'Slightly'
p1577
I1
sS'grinning'
p1578
I1
sS'rigged'
p1579
I1
sS'outside.'
p1580
I2
sS'target."'
p1581
I1
sS'boat."'
p1582
I1
sS'sad.'
p1583
I1
sS'afterthought,'
p1584
I1
sS'Sunday."'
p1585
I1
sS'"Isn\'t'
p1586
I4
sS'romance'
p1587
I1
sS'shack.'
p1588
I1
sS'ball'
p1589
I1
sS'dusk'
p1590
I2
sS'drink'
p1591
I10
sS'dust'
p1592
I3
sS'off'
p1593
I38
sS'colour'
p1594
I2
sS'command'
p1595
I2
sS'mess?"'
p1596
I1
sS'drawing'
p1597
I2
sS'enemy.'
p1598
I1
sS'less'
p1599
I2
sS'going,'
p1600
I2
sS'going.'
p1601
I2
sS'whisper.'
p1602
I1
sS'chaps."'
p1603
I1
sS'clocks'
p1604
I1
sS'hauled'
p1605
I1
sS'Oh,'
p1606
I5
sS'early?"'
p1607
I1
sS'appeared'
p1608
I1
sS'wet'
p1609
I6
sS'doubt.'
p1610
I1
sS'increased'
p1611
I4
sS'room.'
p1612
I4
sS'room,'
p1613
I1
sS'already,"'
p1614
I1
sS'stooped'
p1615
I1
sS'clock.'
p1616
I1
sS'haul'
p1617
I1
sS'five'
p1618
I17
sS'moment.'
p1619
I1
sS'moment,'
p1620
I1
sS'badly.'
p1621
I1
sS'contempt.'
p1622
I1
sS'contempt,'
p1623
I1
sS'bulge'
p1624
I1
sS'though."'
p1625
I4
sS'whiplash.'
p1626
I1
sS'become'
p1627
I5
sS'we?'
p1628
I1
sS'trout,'
p1629
I1
sS'upswept'
p1630
I1
sS'daylight'
p1631
I6
sS"There's"
p1632
I1
sS'loaded'
p1633
I1
sS'"Nothing.'
p1634
I4
sS'hissing'
p1635
I2
sS'whistle.'
p1636
I1
sS'literally'
p1637
I1
sS'avoid'
p1638
I1
sS'shone'
p1639
I3
sS'does'
p1640
I12
sS'trigger."'
p1641
I1
sS'deciding'
p1642
I1
sS'blowing'
p1643
I3
sS'skirt,'
p1644
I1
sS'shoulders,"'
p1645
I1
sS'pressure'
p1646
I3
sS'imaginary'
p1647
I1
sS'hiding'
p1648
I1
sS'gained'
p1649
I1
sS'asks'
p1650
I1
sS'Select,"'
p1651
I1
sS'blackness'
p1652
I1
sS'swimming'
p1653
I2
sS'week,"'
p1654
I1
sS'unattractive'
p1655
I1
sS'kiosque'
p1656
I1
sS'elephants,'
p1657
I1
sS'elephants.'
p1658
I2
sS'old."'
p1659
I3
sS'wash."'
p1660
I1
sS'From'
p1661
I2
sS'more."'
p1662
I3
sS'now?'
p1663
I1
sS'pool'
p1664
I1
sS'place,'
p1665
I2
sS'place.'
p1666
I1
sS'specimens'
p1667
I1
sS"We'll"
p1668
I1
sS'road.'
p1669
I1
sS'road,'
p1670
I2
sS'out."'
p1671
I4
sS'Well'
p1672
I1
sS'Guadarrama,'
p1673
I1
sS'road;'
p1674
I1
sS'lowered'
p1675
I6
sS'long."'
p1676
I3
sS'butchered.'
p1677
I1
sS'count'
p1678
I2
sS'dancing-floor'
p1679
I1
sS'places'
p1680
I2
sS'smooth'
p1681
I2
sS'excitement'
p1682
I2
sS'problem'
p1683
I2
sS'starting."'
p1684
I1
sS'dolphin,'
p1685
I1
sS'roaring."'
p1686
I1
sS'tobacco,"'
p1687
I1
sS'arms,'
p1688
I2
sS'say?"'
p1689
I4
sS'Crillon'
p1690
I3
sS'deadly'
p1691
I1
sS'fired,'
p1692
I1
sS'lately'
p1693
I1
sS'details'
p1694
I1
sS'"I\'ve'
p1695
I16
sS'again.'
p1696
I20
sS'again,'
p1697
I11
sS'clientele,'
p1698
I1
sS'in,'
p1699
I6
sS'chance'
p1700
I5
sS'climb,"'
p1701
I1
sS'South'
p1702
I9
sS'"Salud,"'
p1703
I2
sS'door;'
p1704
I1
sS'rule'
p1705
I1
sS'forest.'
p1706
I1
sS'forest,'
p1707
I1
sS'"Listen,'
p1708
I2
sS'gardens'
p1709
I1
sS'"Listen\''
p1710
I1
sS'boulder-strewn'
p1711
I1
sS'party:'
p1712
I1
sS'all'
p1713
I149
sS'"Why?"'
p1714
I4
sS'retire."'
p1715
I1
sS'Rotten'
p1716
I1
sS'worth'
p1717
I2
sS'kissed.'
p1718
I1
sS'League'
p1719
I1
sS'amorous'
p1720
I1
sS'blanket'
p1721
I3
sS"we'll"
p1722
I11
sS'porpoises'
p1723
I1
sS'rowing.'
p1724
I1
sS'Milano,'
p1725
I1
sS"yesterday's"
p1726
I2
sS'triumph'
p1727
I1
sS'go."'
p1728
I2
sS'franc'
p1729
I1
sS'horn'
p1730
I1
sS'hors'
p1731
I4
sS'others,'
p1732
I2
sS'approached'
p1733
I1
sS'above'
p1734
I5
sS'unpinned'
p1735
I1
sS'"Twill'
p1736
I1
sS'told'
p1737
I39
sS'sixty-eight'
p1738
I1
sS'richest'
p1739
I1
sS'Marshal'
p1740
I1
sS'next?"'
p1741
I1
sS'balance'
p1742
I3
sS'daughter'
p1743
I5
sS'tomorrow?"'
p1744
I2
sS'study'
p1745
I2
sS'One,'
p1746
I1
sS'smoke'
p1747
I1
sS'listening,'
p1748
I1
sS'Jew'
p1749
I1
sS'thought,'
p1750
I14
sS'dusty,'
p1751
I1
sS'thrust'
p1752
I1
sS'thought.'
p1753
I49
sS'sorry,"'
p1754
I1
sS'Mons.'
p1755
I1
sS'started?"'
p1756
I1
sS'sweater'
p1757
I1
sS'Stay'
p1758
I1
sS'whinnied'
p1759
I1
sS'sweated'
p1760
I1
sS'handkerchief,'
p1761
I1
sS'"Anywhere'
p1762
I1
sS'it'
p1763
I376
sS'drinking.'
p1764
I2
sS'darling,'
p1765
I5
sS'lion."'
p1766
I2
sS'cruelest,'
p1767
I1
sS'exact.'
p1768
I1
sS'word'
p1769
I1
sS'wore'
p1770
I8
sS'books,'
p1771
I4
sS'would,"'
p1772
I1
sS'work'
p1773
I8
sS'worn'
p1774
I1
sS'make?"'
p1775
I1
sS'Carlo.'
p1776
I2
sS'indicated'
p1777
I1
sS'horns'
p1778
I3
sS'her?"'
p1779
I2
sS'heartless'
p1780
I1
sS'custom.'
p1781
I1
sS'watercress.'
p1782
I1
sS'\x96'
I2
sS'barbarousness'
p1783
I1
sS'verify'
p1784
I1
sS'haircut."'
p1785
I1
sS'there."'
p1786
I3
sS'boats'
p1787
I6
sS'ordinary'
p1788
I2
sS'beach'
p1789
I1
sS'after'
p1790
I30
sS'Will'
p1791
I1
sS'lay'
p1792
I10
sS'law'
p1793
I1
sS'tolerant,'
p1794
I1
sS'boat.'
p1795
I8
sS'green'
p1796
I11
sS'order'
p1797
I4
sS'office'
p1798
I2
sS'woke,'
p1799
I1
sS'approached,'
p1800
I1
sS'deducted'
p1801
I1
sS'"About'
p1802
I1
sS'V.'
p1803
I1
sS'"Nada,"'
p1804
I1
sS'somewhere'
p1805
I4
sS"What's"
p1806
I2
sS'blown'
p1807
I2
sS'rock,'
p1808
I1
sS'rock.'
p1809
I1
sS'beautiful."'
p1810
I1
sS'Leblanc,"'
p1811
I1
sS'enough."'
p1812
I2
sS'then'
p1813
I68
sS'them'
p1814
I102
sS'thee'
p1815
I2
sS'safe'
p1816
I1
sS'break'
p1817
I6
sS'band'
p1818
I1
sS'riding.'
p1819
I1
sS'better."'
p1820
I1
sS'they'
p1821
I170
sS'bank'
p1822
I10
sS'pegs'
p1823
I1
sS'bolted'
p1824
I1
sS'rocky'
p1825
I1
sS'reasonably'
p1826
I1
sS'alternately'
p1827
I1
sS'rocks'
p1828
I1
sS'cholera,"'
p1829
I1
sS'lifted'
p1830
I4
sS'logs'
p1831
I1
sS'fishing,'
p1832
I1
sS'chaps,"'
p1833
I1
sS'"All'
p1834
I11
sS'starts.'
p1835
I1
sS'hooked'
p1836
I8
sS'forty'
p1837
I4
sS'coffee?"'
p1838
I1
sS'stagger.'
p1839
I1
sS'dancing.'
p1840
I1
sS'built.'
p1841
I1
sS'already."'
p1842
I1
sS'"Across'
p1843
I1
sS'year."'
p1844
I1
sS'though,"'
p1845
I1
sS'September'
p1846
I1
sS'plummets'
p1847
I1
sS'yourself,"'
p1848
I1
sS'"Really?"'
p1849
I1
sS'intolerable;'
p1850
I1
sS'Going'
p1851
I1
sS'another'
p1852
I34
sS'thick'
p1853
I5
sS'stiffened'
p1854
I2
sS'tackle,'
p1855
I1
sS'happily'
p1856
I2
sS'upset,"'
p1857
I1
sS'Clyne'
p1858
I1
sS'hike'
p1859
I1
sS'air,'
p1860
I1
sS'seated'
p1861
I1
sS'iron'
p1862
I6
sS'Select."'
p1863
I2
sS'week."'
p1864
I1
sS'return'
p1865
I1
sS'shy,'
p1866
I2
sS'deafman.'
p1867
I1
sS'forced'
p1868
I2
sS'strength'
p1869
I2
sS'hawk-bills'
p1870
I1
sS'"Absolutely."'
p1871
I1
sS'circled'
p1872
I2
sS'proverb'
p1873
I1
sS'net?"'
p1874
I1
sS'him;'
p1875
I1
sS'bracken'
p1876
I1
sS'knows,'
p1877
I2
sS'perspiring.'
p1878
I1
sS'subject.'
p1879
I1
sS'swamp'
p1880
I2
sS'"Marvelous,"'
p1881
I1
sS'deeply'
p1882
I1
sS'knows?'
p1883
I1
sS'notion'
p1884
I1
sS'fitted'
p1885
I1
sS'reserve'
p1886
I9
sS'"Really'
p1887
I3
sS'sharks'
p1888
I1
sS'painfully'
p1889
I1
sS'gear.'
p1890
I1
sS'noise\x97but'
p1891
I1
sS'fianc\xe9e,'
p1892
I1
sS'Englishmen'
p1893
I1
sS'idiom.'
p1894
I1
sS'deepest'
p1895
I2
sS'pursuing'
p1896
I1
sS'run,'
p1897
I1
sS'do'
p1898
I114
sS'de'
p1899
I10
sS'them."'
p1900
I7
sS'nasty'
p1901
I2
sS'empty,'
p1902
I1
sS'learned'
p1903
I1
sS'covering'
p1904
I2
sS'patronne.'
p1905
I1
sS'sleep."'
p1906
I1
sS'steal'
p1907
I3
sS'shark.'
p1908
I1
sS'do?"'
p1909
I3
sS'miserably'
p1910
I1
sS'"Take'
p1911
I4
sS'checks'
p1912
I1
sS'harsh-spoken'
p1913
I1
sS'rare'
p1914
I10
sS'away'
p1915
I31
sS'receive.'
p1916
I1
sS'gentleman'
p1917
I1
sS'plummeting'
p1918
I1
sS'lighted,'
p1919
I1
sS'bracing'
p1920
I1
sS'drawn'
p1921
I2
sS'we'
p1922
I108
sS'Harvey.'
p1923
I1
sS'Harvey,'
p1924
I1
sS'sober,"'
p1925
I1
sS'"Wake'
p1926
I1
sS'Segovia'
p1927
I1
sS'received'
p1928
I1
sS'cave,'
p1929
I1
sS'cot'
p1930
I5
sS'cave.'
p1931
I3
sS'connected.'
p1932
I1
sS'go,"'
p1933
I2
sS'tough'
p1934
I1
sS'wineskin,'
p1935
I1
sS'sardines'
p1936
I5
sS'dance?"'
p1937
I1
sS'tons'
p1938
I1
sS'liqueurs,'
p1939
I1
sS'speak'
p1940
I9
sS'fool!"'
p1941
I1
sS'"Thyself.'
p1942
I1
sS'"Always'
p1943
I1
sS"I've"
p1944
I13
sS'unjust,"'
p1945
I1
sS'way."'
p1946
I3
sS'cheerily.'
p1947
I1
sS'easy'
p1948
I4
sS'pounds.'
p1949
I1
sS'ton.'
p1950
I1
sS'curves'
p1951
I1
sS'time?"'
p1952
I1
sS'sleepy."'
p1953
I2
sS'east'
p1954
I1
sS'dozen.'
p1955
I1
sS'gentle'
p1956
I2
sS'warbler'
p1957
I1
sS'air'
p1958
I8
sS'"Comrade'
p1959
I1
sS'voice'
p1960
I2
sS'belongs?"'
p1961
I1
sS'have'
p1962
I203
sS'sacks?"'
p1963
I1
sS'd\'oeuvres."'
p1964
I1
sS'"Writers'
p1965
I1
sS'times,"'
p1966
I1
sS'Biarritz."'
p1967
I1
sS'sorry."'
p1968
I2
sS'traffic,'
p1969
I1
sS'camp.'
p1970
I4
sS'"Please'
p1971
I2
sS'bright."'
p1972
I1
sS'camp"'
p1973
I1
sS'seventy-five'
p1974
I1
sS'boulder-filled'
p1975
I2
sS'current,"'
p1976
I1
sS'plates'
p1977
I1
sS'raid'
p1978
I1
sS'pavement.'
p1979
I1
sS'swell'
p1980
I2
sS'hang'
p1981
I1
sS'hand'
p1982
I25
sS"wasn't."
p1983
I1
sS'kept'
p1984
I13
sS'thy'
p1985
I8
sS'thirty-four'
p1986
I2
sS'lion,"'
p1987
I5
sS'client'
p1988
I1
sS"she'll"
p1989
I1
sS'bastard.'
p1990
I1
sS'bastard,'
p1991
I1
sS'farther'
p1992
I1
sS'clamped'
p1993
I1
sS'adding'
p1994
I1
sS'hills'
p1995
I5
sS'amusing,'
p1996
I1
sS'tired.'
p1997
I1
sS'spread'
p1998
I8
sS'openings'
p1999
I1
sS'hunted.'
p2000
I2
sS'thinking."'
p2001
I1
sS'boxed'
p2002
I1
sS'grinning,'
p2003
I1
sS'grinning.'
p2004
I1
sS'Try'
p2005
I2
sS'boxes'
p2006
I1
sS'nose."'
p2007
I1
sS'injuring'
p2008
I1
sS'washed,'
p2009
I1
sS'neither."'
p2010
I2
sS'opening,'
p2011
I1
sS'country.'
p2012
I2
sS'country,'
p2013
I1
sS'night'
p2014
I28
sS'security'
p2015
I1
sS'thole'
p2016
I1
sS'"You\'re'
p2017
I17
sS'born'
p2018
I3
sS'"\'Well,'
p2019
I1
sS'tonight,'
p2020
I1
sS'purple'
p2021
I3
sS'gimlet,"'
p2022
I1
sS'early-morning'
p2023
I1
sS'heavy-necked,'
p2024
I1
sS'hardening.'
p2025
I1
sS'asking'
p2026
I2
sS'month,'
p2027
I2
sS'month.'
p2028
I1
sS'beating'
p2029
I1
sS'corking'
p2030
I1
sS'Place'
p2031
I1
sS'post'
p2032
I1
sS'newspapers'
p2033
I1
sS'months'
p2034
I3
sS'dined'
p2035
I3
sS'horizon'
p2036
I1
sS'practical,"'
p2037
I1
sS'faint'
p2038
I2
sS'Make'
p2039
I2
sS'bound'
p2040
I1
sS'cry,'
p2041
I1
sS'"Conversation'
p2042
I1
sS'romantic."'
p2043
I1
sS"Shouldn't"
p2044
I1
sS'breakfast,"'
p2045
I1
sS'why?'
p2046
I1
sS'guardia'
p2047
I1
sS'Revue'
p2048
I1
sS'"Any'
p2049
I1
sS'fight'
p2050
I3
sS'why.'
p2051
I1
sS'"And'
p2052
I31
sS'way'
p2053
I42
sS'brave.'
p2054
I1
sS'him."'
p2055
I13
sS'was'
p2056
I597
sS'war'
p2057
I2
sS'one?"'
p2058
I1
sS'"that\'s'
p2059
I1
sS'Inside,'
p2060
I1
sS'"Hola,'
p2061
I1
sS'same.'
p2062
I1
sS'sore."'
p2063
I1
sS'astonished'
p2064
I1
sS'true'
p2065
I4
sS'Distinguished'
p2066
I1
sS'featherweights,'
p2067
I1
sS'flecks'
p2068
I1
sS"o'clock.What"
p2069
I1
sS'"Below'
p2070
I1
sS'emotional'
p2071
I1
sS'enthusiastic'
p2072
I1
sS'metal-cased'
p2073
I1
sS'Kashkin."'
p2074
I1
sS'jump,"'
p2075
I1
sS'promised'
p2076
I3
sS'yourself."'
p2077
I2
sS'knows'
p2078
I8
sS'dying'
p2079
I1
sS'bed.'
p2080
I8
sS'bed,'
p2081
I5
sS'parklike'
p2082
I2
sS'hurry.'
p2083
I1
sS'interested'
p2084
I1
sS'holding'
p2085
I8
sS'test'
p2086
I1
sS'forearms,'
p2087
I1
sS'brothers'
p2088
I1
sS'"Ahead'
p2089
I1
sS"let's"
p2090
I5
sS'mail.'
p2091
I1
sS'disgusted."'
p2092
I2
sS'consideration\x97'
p2093
I1
sS'grunted.'
p2094
I1
sS'together'
p2095
I10
sS'DiMaggio."'
p2096
I1
sS'loyal'
p2097
I1
sS'"Mr.'
p2098
I2
sS'eighty."'
p2099
I1
sS'phosphorescence'
p2100
I2
sS'impressive."'
p2101
I1
sS'dance'
p2102
I4
sS'baited'
p2103
I2
sS'grateful'
p2104
I1
sS'this,"'
p2105
I2
sS'certainly'
p2106
I4
sS'Havana.'
p2107
I2
sS'superrhino.'
p2108
I1
sS'History.'
p2109
I1
sS'turn.'
p2110
I2
sS'brown'
p2111
I11
sS'trouble'
p2112
I5
sS'Georgette'
p2113
I19
sS'Just'
p2114
I12
sS'turns'
p2115
I2
sS'gun'
p2116
I5
sS'knife."'
p2117
I1
sS'sidewalk'
p2118
I2
sS'George'
p2119
I1
sS'miserably.'
p2120
I1
sS'upper'
p2121
I4
sS'brave'
p2122
I2
sS'dead?"'
p2123
I1
sS'headache."'
p2124
I1
sS'discover'
p2125
I1
sS'prairie'
p2126
I1
sS'street."'
p2127
I1
sS'blotches'
p2128
I2
sS'uniform'
p2129
I2
sS'sleepy,'
p2130
I1
sS'During'
p2131
I5
sS'safety,'
p2132
I1
sS'safety.'
p2133
I1
sS'"At'
p2134
I3
sS'dynamiter,"'
p2135
I1
sS'"As'
p2136
I1
sS'cave,"'
p2137
I2
sS'English'
p2138
I2
sS"hadn't"
p2139
I7
sS'gorge'
p2140
I1
sS'please."'
p2141
I1
sS'roaring'
p2142
I2
sS'change'
p2143
I1
sS'Hampers.'
p2144
I1
sS'buck'
p2145
I2
sS'merriment'
p2146
I1
sS'blood-choked'
p2147
I1
sS'usually'
p2148
I2
sS'ground."'
p2149
I1
sS'marked'
p2150
I2
sS'market'
p2151
I3
sS'prove'
p2152
I3
sS'you."'
p2153
I15
sS'Lilas.'
p2154
I1
sS'live'
p2155
I10
sS'wonderfully'
p2156
I2
sS'sighted'
p2157
I1
sS'defeat.'
p2158
I1
sS'matador'
p2159
I1
sS'York'
p2160
I4
sS'entrance'
p2161
I2
sS'"Hi.'
p2162
I1
sS'club'
p2163
I1
sS'"Wait'
p2164
I2
sS'gentlemen,'
p2165
I1
sS'Frances,"'
p2166
I1
sS'angel,'
p2167
I1
sS'"Naturally.'
p2168
I1
sS'Down'
p2169
I1
sS'hardest'
p2170
I1
sS'can'
p2171
I75
sS'thirty-five'
p2172
I2
sS'cab'
p2173
I3
sS'ribs'
p2174
I1
sS'heart'
p2175
I5
sS'grassy'
p2176
I1
sS'hears'
p2177
I1
sS"didn't"
p2178
I9
sS'hungry?"'
p2179
I1
sS'heard'
p2180
I23
sS'chin'
p2181
I3
sS'baseball,'
p2182
I1
sS'flank'
p2183
I1
sS'urinated'
p2184
I2
sS'nose,'
p2185
I2
sS'way,"'
p2186
I2
sS'afternoon'
p2187
I2
sS'product'
p2188
I1
sS'Always'
p2189
I3
sS'dive'
p2190
I1
sS'disgusted'
p2191
I1
sS'grass,'
p2192
I1
sS'"Que'
p2193
I1
sS'grass.'
p2194
I2
sS'"Qua'
p2195
I1
sS'Martin'
p2196
I1
sS'lifting'
p2197
I3
sS'remember'
p2198
I13
sS'relieved.'
p2199
I1
sS'faded,'
p2200
I1
sS'memory.'
p2201
I1
sS'no,'
p2202
I1
sS'no.'
p2203
I1
sS'Che'
p2204
I1
sS'tail.'
p2205
I2
sS'colt'
p2206
I1
sS'haircut'
p2207
I2
sS'Use'
p2208
I1
sS'ended'
p2209
I1
sS'cold'
p2210
I9
sS'still'
p2211
I40
sS'riches,"'
p2212
I1
sS'birds'
p2213
I5
sS'Kirby'
p2214
I1
sS'immortality'
p2215
I1
sS'bad-looking'
p2216
I1
sS'streak.'
p2217
I1
sS'bird.'
p2218
I3
sS'nod'
p2219
I1
sS'maquina'
p2220
I1
sS'half'
p2221
I10
sS'not'
p2222
I230
sS'R.'
p2223
I1
sS'now'
p2224
I70
sS'discuss'
p2225
I1
sS'nor'
p2226
I19
sS'drop'
p2227
I4
sS'el'
p2228
I1
sS"another's"
p2229
I2
sS'Museum'
p2230
I1
sS'advantage,'
p2231
I1
sS'hurried'
p2232
I1
sS'car.'
p2233
I4
sS'thou?"'
p2234
I1
sS'car,'
p2235
I3
sS'year'
p2236
I3
sS'happen'
p2237
I1
sS'avoided'
p2238
I1
sS'shown'
p2239
I1
sS'accomplish'
p2240
I1
sS'opened'
p2241
I8
sS'increase'
p2242
I2
sS'stuff'
p2243
I2
sS'elephants,"'
p2244
I1
sS'shows'
p2245
I1
sS'interesting.'
p2246
I1
sS'Margaret.'
p2247
I1
sS'Margaret,'
p2248
I1
sS'directions,'
p2249
I1
sS'north-west.'
p2250
I2
sS'folded,'
p2251
I1
sS'thyself,"'
p2252
I1
sS'card'
p2253
I1
sS'care'
p2254
I12
sS'Macomber'
p2255
I74
sS'show.'
p2256
I1
sS'trunks.'
p2257
I1
sS'waits'
p2258
I1
sS'bargemen'
p2259
I1
sS'Montereau'
p2260
I1
sS'Montsouris,'
p2261
I1
sS'Montsouris.'
p2262
I1
sS'show?'
p2263
I1
sS'please?"'
p2264
I1
sS'cold."'
p2265
I1
sS'guards?"'
p2266
I1
sS'Even'
p2267
I1
sS'tennis'
p2268
I1
sS'achingly'
p2269
I1
sS'There'
p2270
I46
sS'mountainside'
p2271
I2
sS'yourself'
p2272
I7
sS'ended.'
p2273
I1
sS'sore,'
p2274
I1
sS'impossible'
p2275
I2
sS'ring'
p2276
I1
sS'drove'
p2277
I2
sS'size'
p2278
I2
sS'checked'
p2279
I1
sS'silent'
p2280
I1
sS'caught'
p2281
I6
sS'"Dos'
p2282
I1
sS'blood,"'
p2283
I1
sS'friend'
p2284
I4
sS"boy's"
p2285
I2
sS'yet,"'
p2286
I1
sS'mostly'
p2287
I1
sS'that'
p2288
I358
sS'sores'
p2289
I1
sS'nonsense."'
p2290
I1
sS'occupation,'
p2291
I1
sS'than'
p2292
I30
sS'turn,"'
p2293
I1
sS'him,"'
p2294
I2
sS'Ponte,'
p2295
I1
sS'Philadelphia'
p2296
I1
sS'Ponte.'
p2297
I1
sS'(any'
p2298
I1
sS'slam'
p2299
I1
sS'crawling,'
p2300
I1
sS'breakfast'
p2301
I4
sS'lip-stick,'
p2302
I1
sS'armed.'
p2303
I1
sS'grinned,'
p2304
I2
sS'grinned.'
p2305
I3
sS'shoot.'
p2306
I1
sS'equipment'
p2307
I1
sS'Mencken,'
p2308
I1
sS'begin'
p2309
I1
sS'price'
p2310
I1
sS'neatly'
p2311
I1
sS'calm.'
p2312
I1
sS'rather.'
p2313
I1
sS'"Women'
p2314
I1
sS'steady'
p2315
I2
sS'tooth'
p2316
I1
sS'professional'
p2317
I2
sS'laddybuck,"'
p2318
I1
sS'typically'
p2319
I1
sS'good-night'
p2320
I1
sS"hundred's"
p2321
I1
sS'fifty'
p2322
I3
sS'discovered'
p2323
I4
sS'pride.'
p2324
I1
sS'crashing'
p2325
I2
sS'bait.'
p2326
I2
sS'Jake,"'
p2327
I5
sS'rises.'
p2328
I1
sS'seen.'
p2329
I1
sS'cavalry."'
p2330
I1
sS'Pablo\'s?"'
p2331
I1
sS'proudly.'
p2332
I3
sS'cannon'
p2333
I1
sS'truly'
p2334
I6
sS'cannot'
p2335
I14
sS'pursed'
p2336
I1
sS'beard-stubbled'
p2337
I1
sS'darling."'
p2338
I1
sS'held'
p2339
I16
sS'leather'
p2340
I3
sS"else's"
p2341
I1
sS'friends,'
p2342
I1
sS'baits'
p2343
I7
sS'friends.'
p2344
I1
sS'musette'
p2345
I1
sS'husband'
p2346
I3
sS'burst'
p2347
I1
sS'Mencken'
p2348
I1
sS'hurt.'
p2349
I1
sS'anchored'
p2350
I1
sS'asleep'
p2351
I8
sS'this."'
p2352
I2
sS'come,'
p2353
I1
sS'come.'
p2354
I1
sS'much?"'
p2355
I1
sS'stupid,'
p2356
I1
sS'stupid.'
p2357
I3
sS'between'
p2358
I12
sS'notice'
p2359
I1
sS'sun-burned'
p2360
I1
sS'talking,"'
p2361
I1
sS'But,'
p2362
I2
sS'wheels'
p2363
I2
sS'comes'
p2364
I7
sS'street,"'
p2365
I1
sS"couldn't"
p2366
I4
sS'four.'
p2367
I1
sS'actually'
p2368
I2
sS'wrong."'
p2369
I1
sS'Knows'
p2370
I1
sS'cared'
p2371
I1
sS'editing.'
p2372
I1
sS'Wilson,"'
p2373
I2
sS'cave."'
p2374
I1
sS'"Good-night,'
p2375
I1
sS'"Of'
p2376
I10
sS'these'
p2377
I12
sS'jerk.'
p2378
I1
sS'fire?"'
p2379
I2
sS'editorial'
p2380
I1
sS'grimacing,'
p2381
I1
sS'Gobelins.'
p2382
I1
sS'care.'
p2383
I2
sS'crowded,'
p2384
I1
sS'sawdust'
p2385
I1
sS'Dick'
p2386
I1
sS'packs?"'
p2387
I1
sS'"This'
p2388
I8
sS'Somali'
p2389
I1
sS'beaver'
p2390
I1
sS'"How'
p2391
I34
sS'"Noisy'
p2392
I1
sS'worry'
p2393
I10
sS'gentlemen'
p2394
I1
sS'you,"'
p2395
I8
sS'charge.'
p2396
I1
sS'trap.'
p2397
I1
sS"They're"
p2398
I1
sS'cup-shaped'
p2399
I1
sS'finish'
p2400
I5
sS'closest'
p2401
I1
sS'passing'
p2402
I1
sS'road."'
p2403
I2
sS'traps'
p2404
I1
sS'beggars,"'
p2405
I1
sS'breeze'
p2406
I7
sS'"Good'
p2407
I8
sS"You're"
p2408
I3
sS'am,'
p2409
I1
sS'am.'
p2410
I1
sS'Barco'
p2411
I1
sS'growled'
p2412
I1
sS'greetings'
p2413
I1
sS'am?'
p2414
I1
sS'touch'
p2415
I7
sS'speed'
p2416
I2
sS'thinking'
p2417
I10
sS'Anyway,'
p2418
I1
sS'either.'
p2419
I3
sS'thighs,'
p2420
I1
sS'dancings.'
p2421
I1
sS'struck'
p2422
I3
sS'real'
p2423
I2
sS'fine,'
p2424
I1
sS'read'
p2425
I21
sS'twitchy'
p2426
I1
sS'early'
p2427
I10
sS'politely'
p2428
I1
sS'lady'
p2429
I4
sS'rear'
p2430
I1
sS'Before'
p2431
I3
sS'"American'
p2432
I1
sS'laugh'
p2433
I1
sS'guttural,'
p2434
I1
sS'alive."'
p2435
I1
sS'bull-fighters.'
p2436
I1
sS'spectacles,'
p2437
I1
sS'spectacles.'
p2438
I1
sS'feeling."'
p2439
I1
sS'unlocked'
p2440
I1
sS'twice.'
p2441
I1
sS'forks'
p2442
I1
sS'knees.'
p2443
I3
sS'knees,'
p2444
I1
sS'Wooden'
p2445
I1
sS'sixty'
p2446
I1
sS'throw'
p2447
I4
sS'pleased.'
p2448
I1
sS'cover.'
p2449
I1
sS'wolf'
p2450
I2
sS'home;'
p2451
I1
sS'Land."'
p2452
I1
sS'announce'
p2453
I1
sS'"Everybody\'s'
p2454
I1
sS'flower-women'
p2455
I1
sS'Hordan.'
p2456
I1
sS'gun-bearer,'
p2457
I2
sS'your'
p2458
I41
sS'stare'
p2459
I2
sS'"Get'
p2460
I3
sS'log'
p2461
I2
sS'Hotel'
p2462
I1
sS'like?"'
p2463
I3
sS'start'
p2464
I5
sS'cats'
p2465
I1
sS'low'
p2466
I7
sS'lot'
p2467
I5
sS'thick,'
p2468
I1
sS'delicious.'
p2469
I1
sS'you.'
p2470
I12
sS'you,'
p2471
I12
sS'gun-bearers'
p2472
I4
sS'rose-colored,'
p2473
I1
sS'delayed'
p2474
I1
sS'you?'
p2475
I5
sS'curiously'
p2476
I2
sS'bitt.'
p2477
I1
sS'pitched'
p2478
I1
sS'trying'
p2479
I4
sS'are.'
p2480
I2
sS'are,'
p2481
I2
sS'cat.'
p2482
I1
sS'sadness'
p2483
I5
sS'"Supper,"'
p2484
I1
sS'subdue'
p2485
I1
sS'describe'
p2486
I1
sS'moved'
p2487
I17
sS'"Anywhere."'
p2488
I1
sS'"You\'ve'
p2489
I5
sS'sheath'
p2490
I1
sS'head?"'
p2491
I1
sS'faculty."'
p2492
I1
sS'"Here\'s'
p2493
I3
sS'you'
p2494
I369
sS'everywhere.'
p2495
I2
sS'poor'
p2496
I5
sS'move.'
p2497
I1
sS'drift'
p2498
I1
sS'peas'
p2499
I1
sS'caf\xe9.'
p2500
I1
sS'flattened'
p2501
I2
sS'glasses.'
p2502
I3
sS'Coast.'
p2503
I1
sS'Outside'
p2504
I2
sS'building'
p2505
I2
sS'bulk'
p2506
I1
sS'Pablo'
p2507
I43
sS'from?"'
p2508
I2
sS'.30-06'
p2509
I1
sS'strings'
p2510
I2
sS'pointing'
p2511
I2
sS'month'
p2512
I2
sS'thoughtful'
p2513
I1
sS'Take'
p2514
I1
sS'war."'
p2515
I2
sS'evening?"'
p2516
I1
sS'flattening'
p2517
I1
sS'charcoal.'
p2518
I1
sS'Henry?"'
p2519
I1
sS'fish,"'
p2520
I3
sS'clubbed'
p2521
I1
sS'very'
p2522
I108
sS'coloured'
p2523
I1
sS"I'd"
p2524
I4
sS'fineness.'
p2525
I1
sS'calIed,'
p2526
I1
sS"I'm"
p2527
I30
sS'-"'
p2528
I1
sS'Canary'
p2529
I1
sS'"Wilson'
p2530
I1
sS'Pernod'
p2531
I1
sS'overmatched'
p2532
I1
sS'streets'
p2533
I2
sS'foot,"'
p2534
I1
sS'track,'
p2535
I1
sS'answer.'
p2536
I1
sS'darkness'
p2537
I3
sS'sun-bleached'
p2538
I1
sS'lurch'
p2539
I1
sS'thickness'
p2540
I3
sS'him.'
p2541
I82
sS'him,'
p2542
I22
sS'Jake."'
p2543
I3
sS'Jew,'
p2544
I1
sS'unlucky,'
p2545
I1
sS'excitement,'
p2546
I1
sS'loose'
p2547
I2
sS'tracks'
p2548
I1
sS'street,'
p2549
I2
sS'street.'
p2550
I6
sS'trunk'
p2551
I1
sS'strong'
p2552
I13
sS'"Better'
p2553
I3
sS'outside,'
p2554
I1
sS'ahead'
p2555
I11
sS'maybe,'
p2556
I1
sS'soldier'
p2557
I1
sS'amount'
p2558
I1
sS'jaw.'
p2559
I1
sS'darling,"'
p2560
I2
sS'Simba'
p2561
I1
sS'chestnut-trees'
p2562
I1
sS'ask'
p2563
I14
sS'S.'
p2564
I1
sS'game."'
p2565
I1
sS'takes'
p2566
I2
sS'answered'
p2567
I1
sS'up?"'
p2568
I1
sS'baits,'
p2569
I1
sS'breeze.'
p2570
I1
sS'taken'
p2571
I14
sS'injury'
p2572
I1
sS'squid'
p2573
I1
sS'reales."'
p2574
I1
sS'Bruges,'
p2575
I1
sS'Paris,'
p2576
I4
sS'Paris.'
p2577
I4
sS'commenced'
p2578
I2
sS'So'
p2579
I16
sS'broke'
p2580
I1
sS'hurry'
p2581
I1
sS'producing'
p2582
I1
sS'helped'
p2583
I1
sS'sweeps'
p2584
I1
sS'iron-stiff'
p2585
I1
sS'horses,'
p2586
I2
sS'thumped'
p2587
I1
sS'horses.'
p2588
I4
sS'gas,'
p2589
I1
sS'pushed'
p2590
I5
sS'phrase'
p2591
I1
sS'species'
p2592
I2
sS'bread,'
p2593
I2
sS'bread.'
p2594
I1
sS'bank,'
p2595
I1
sS'May."'
p2596
I1
sS'liaison'
p2597
I1
sS'stayed'
p2598
I6
sS'gaffed'
p2599
I1
sS'to,"'
p2600
I3
sS'"My'
p2601
I3
sS'London."'
p2602
I1
sS'tried'
p2603
I7
sS'Wilson."'
p2604
I1
sS'a'
I743
sS'ledge.'
p2605
I2
sS'"Topping,"'
p2606
I1
sS'banks'
p2607
I1
sS'dream'
p2608
I2
sS'set.'
p2609
I1
sS'help'
p2610
I15
sS'soon'
p2611
I10
sS'"Thou'
p2612
I2
sS'skinning'
p2613
I1
sS'Chaps'
p2614
I1
sS'hell'
p2615
I17
sS'guide-book'
p2616
I1
sS'fair,'
p2617
I1
sS'"Keep'
p2618
I3
sS"haven't"
p2619
I3
sS'fool'
p2620
I2
sS'evening'
p2621
I4
sS'food'
p2622
I5
sS'floating'
p2623
I2
sS"you've"
p2624
I4
sS'foot'
p2625
I6
sS'desperately'
p2626
I1
sS'fine.'
p2627
I2
sS'hillside.'
p2628
I1
sS'moves,'
p2629
I1
sS'stopped'
p2630
I15
sS'food?"'
p2631
I2
sS'Council'
p2632
I1
sS'sir,"'
p2633
I1
sS"isn't"
p2634
I12
sS'predatory'
p2635
I1
sS'heavy'
p2636
I17
sS'bullfighter.'
p2637
I1
sS'difficult."'
p2638
I2
sS'almost-touching'
p2639
I1
sS'steadily.'
p2640
I1
sS'beyond'
p2641
I7
sS'travels'
p2642
I2
sS'beggar.'
p2643
I1
sS'since'
p2644
I13
sS'pivoted'
p2645
I1
sS'ago."'
p2646
I1
sS'safety'
p2647
I3
sS'friend,"'
p2648
I2
sS'smock'
p2649
I2
sS'dirt'
p2650
I3
sS'Arevalo,"'
p2651
I1
sS'pub'
p2652
I1
sS'ends."'
p2653
I1
sS'cross,'
p2654
I1
sS'wealthy,'
p2655
I1
sS'put'
p2656
I41
sS'fortuna!'
p2657
I1
sS'"Santiago,"'
p2658
I2
sS'played.'
p2659
I1
sS'trust.'
p2660
I1
sS'Ebro'
p2661
I1
sS'blush'
p2662
I1
sS'dominate.'
p2663
I1
sS'dear.'
p2664
I1
sS'knots'
p2665
I1
sS'breeding."'
p2666
I1
sS'minutes.'
p2667
I1
sS'miss'
p2668
I1
sS'white-faced'
p2669
I1
sS'expensive.'
p2670
I1
sS'horse'
p2671
I4
sS'station'
p2672
I3
sS'hundred'
p2673
I17
sS'uplifted,'
p2674
I1
sS'rabbits,"'
p2675
I1
sS'passed'
p2676
I10
sS'"Christ'
p2677
I1
sS'stiff-necked,'
p2678
I1
sS'cartridges'
p2679
I3
sS'tunic'
p2680
I2
sS'equal."'
p2681
I1
sS'cardel'
p2682
I1
sS'hesitating'
p2683
I1
sS'toward'
p2684
I27
sS'jacket,"'
p2685
I1
sS'God'
p2686
I3
sS'alongside'
p2687
I1
sS'cooked,'
p2688
I1
sS'juice'
p2689
I1
sS'tanks,'
p2690
I1
sS'Got'
p2691
I1
sS'concentration'
p2692
I1
sS'kippers'
p2693
I1
sS"God's"
p2694
I2
sS'poules'
p2695
I1
sS'noon.'
p2696
I1
sS'harlot.'
p2697
I1
sS'cave'
p2698
I8
sS'noon?'
p2699
I1
sS'lip'
p2700
I1
sS'With'
p2701
I5
sS'poule,'
p2702
I1
sS'comrade.'
p2703
I1
sS'loggerheads,'
p2704
I1
sS'hired'
p2705
I1
sS'eaten'
p2706
I2
sS'"Anis'
p2707
I1
sS'sturdy'
p2708
I1
sS'clear'
p2709
I4
sS'calling'
p2710
I1
sS"herdsman's"
p2711
I1
sS'clean'
p2712
I7
sS'velocity'
p2713
I1
sS'miserable,"'
p2714
I1
sS'stalked'
p2715
I1
sS'"When'
p2716
I4
sS'feel.'
p2717
I1
sS'tree,'
p2718
I2
sS'Ashley."'
p2719
I2
sS'Brett,"'
p2720
I2
sS'with,'
p2721
I2
sS'hope'
p2722
I5
sS'French'
p2723
I6
sS'pretty'
p2724
I8
sS'hardened'
p2725
I1
sS'circle'
p2726
I2
sS'along."'
p2727
I1
sS'sun-proofed'
p2728
I1
sS'trees'
p2729
I13
sS'Zonda.'
p2730
I2
sS'While'
p2731
I2
sS'pretending'
p2732
I1
sS'hit?"'
p2733
I1
sS'Margot'
p2734
I8
sS'catches'
p2735
I3
sS"morning's"
p2736
I1
sS'red."'
p2737
I1
sS'drink."'
p2738
I8
sS'throwing'
p2739
I2
sS'Gibbs'
p2740
I1
sS'close'
p2741
I14
sS'Neither'
p2742
I1
sS'Parc'
p2743
I2
sS'something?"'
p2744
I2
sS'won'
p2745
I2
sS'years,'
p2746
I4
sS'Sorbonne.'
p2747
I1
sS'years.'
p2748
I3
sS'probably'
p2749
I6
sS'natural."'
p2750
I1
sS'heaviness."'
p2751
I1
sS'spray'
p2752
I1
sS'Lett.'
p2753
I2
sS'Lett,'
p2754
I1
sS'hoisted'
p2755
I2
sS'war,"'
p2756
I1
sS"wouldn't"
p2757
I13
sS'Hard'
p2758
I1
sS'gaunt'
p2759
I1
sS'above.'
p2760
I1
sS'forgotten'
p2761
I1
sS'Ebro.'
p2762
I1
sS'Certainly'
p2763
I3
sS'headed'
p2764
I2
sS'live.'
p2765
I1
sS'whatever'
p2766
I2
sS'likes'
p2767
I3
sS'finding,'
p2768
I1
sS'pack,'
p2769
I1
sS'pack.'
p2770
I4
sS'Was'
p2771
I1
sS'serious?"'
p2772
I1
sS'letters.'
p2773
I2
sS'damp'
p2774
I2
sS'Most'
p2775
I2
sS'California'
p2776
I1
sS'empty'
p2777
I3
sS'Women'
p2778
I1
sS'lived'
p2779
I3
sS'Especially'
p2780
I1
sS'packs'
p2781
I7
sS'like.'
p2782
I1
sS'like,'
p2783
I1
sS'chair,'
p2784
I1
sS'else'
p2785
I5
sS'bight'
p2786
I1
sS'flaccid.'
p2787
I1
sS'liver'
p2788
I1
sS'Pick'
p2789
I1
sS'Braddocks,'
p2790
I2
sS'Braddocks.'
p2791
I3
sS'utmost'
p2792
I1
sS'look'
p2793
I27
sS'about,"'
p2794
I1
sS'rope'
p2795
I7
sS'pace'
p2796
I1
sS'while'
p2797
I26
sS'chic,'
p2798
I1
sS'dam,'
p2799
I1
sS'guide'
p2800
I1
sS'loop'
p2801
I2
sS'pack'
p2802
I8
sS'grinned'
p2803
I2
sS'reads'
p2804
I2
sS'in."'
p2805
I1
sS'loosened'
p2806
I1
sS'ready'
p2807
I5
sS'clear,'
p2808
I1
sS'said.'
p2809
I311
sS'grand'
p2810
I1
sS'used'
p2811
I7
sS'racket,"'
p2812
I1
sS'friends'
p2813
I1
sS'read,'
p2814
I1
sS'read.'
p2815
I1
sS'"Been'
p2816
I1
sS'Georgette.'
p2817
I3
sS'changed.'
p2818
I1
sS'older'
p2819
I3
sS'leaves.'
p2820
I1
sS'changed?'
p2821
I1
sS'"Lucky'
p2822
I1
sS'to."'
p2823
I3
sS'shivering'
p2824
I4
sS'desk'
p2825
I1
sS'quarters'
p2826
I1
sS'"I\'ll'
p2827
I19
sS'lit'
p2828
I1
sS'chosen.'
p2829
I1
sS'throaty'
p2830
I1
sS'fiancee'
p2831
I1
sS'Woolsey'
p2832
I4
sS'"Tomorrow'
p2833
I1
sS'"Roberto.'
p2834
I2
sS'remaining'
p2835
I2
sS'"Too'
p2836
I2
sS'lose."'
p2837
I1
sS'mujer'
p2838
I5
sS'probability.'
p2839
I1
sS'showing'
p2840
I1
sS'game'
p2841
I1
sS'judgment,'
p2842
I1
sS'judgment.'
p2843
I2
sS'wings'
p2844
I4
sS'wolf."'
p2845
I2
sS'Cincinnati'
p2846
I1
sS'asphalt,'
p2847
I1
sS'be."'
p2848
I2
sS'together."'
p2849
I1
sS'"Francis,'
p2850
I1
sS'brakes'
p2851
I1
sS'some'
p2852
I38
sS'scared,'
p2853
I1
sS'lips'
p2854
I5
sS'saddles'
p2855
I2
sS'Look,'
p2856
I1
sS'everybody'
p2857
I1
sS'run'
p2858
I5
sS'saddle,'
p2859
I1
sS"They've"
p2860
I1
sS'stem'
p2861
I1
sS'step'
p2862
I2
sS'entendu,'
p2863
I1
sS'stew'
p2864
I1
sS'father.'
p2865
I1
sS'forget.'
p2866
I1
sS'faith'
p2867
I1
sS'Lion'
p2868
I2
sS'Up-stairs'
p2869
I1
sS'"How\'s'
p2870
I1
sS'shiny'
p2871
I4
sS'block'
p2872
I1
sS'seeing'
p2873
I4
sS'difficult,"'
p2874
I1
sS'within'
p2875
I2
sS'govern,'
p2876
I1
sS'rolls'
p2877
I1
sS'trusting.'
p2878
I1
sS'Wilson.'
p2879
I14
sS'Wilson,'
p2880
I7
sS'Wilson?'
p2881
I1
sS'fox-hole'
p2882
I1
sS'"C\'est'
p2883
I1
sS'himself'
p2884
I27
sS'healthful'
p2885
I1
sS'properly'
p2886
I1
sS'alive'
p2887
I1
sS'miracle.'
p2888
I1
sS'stumbling'
p2889
I1
sS'simpering'
p2890
I1
sS"Anselmo's"
p2891
I1
sS'sifting'
p2892
I1
sS'cautiously'
p2893
I1
sS'Those'
p2894
I1
sS'lovely,"'
p2895
I1
sS'ordered'
p2896
I3
sS"d'ceuvres."
p2897
I1
sS'weeks."'
p2898
I1
sS'smile,'
p2899
I1
sS'A.'
p2900
I1
sS'smiling,'
p2901
I2
sS'themselves.'
p2902
I1
sS'eager,'
p2903
I1
sS'excellent,'
p2904
I1
sS'wished'
p2905
I3
sS'motorcycles\x97that'
p2906
I1
sS'does,'
p2907
I1
sS'Mike'
p2908
I3
sS'does.'
p2909
I2
sS'drag'
p2910
I1
sS'rested'
p2911
I7
sS'count?"'
p2912
I2
sS'smiled'
p2913
I18
sS'formal'
p2914
I1
sS'fear.'
p2915
I1
sS'As'
p2916
I12
sS'fear,'
p2917
I1
sS'"Hey,"'
p2918
I1
sS'At'
p2919
I9
sS'easier."'
p2920
I1
sS"she's"
p2921
I2
sS'True,'
p2922
I1
sS'"Damned'
p2923
I1
sS'anyway."'
p2924
I4
sS'cheerful'
p2925
I2
sS'go'
p2926
I83
sS'"Besides,'
p2927
I1
sS'muzzle,'
p2928
I2
sS'compact'
p2929
I1
sS'cozily'
p2930
I1
sS'shack'
p2931
I6
sS'Not'
p2932
I8
sS'Now'
p2933
I21
sS'friendly'
p2934
I3
sS'Nor'
p2935
I1
sS'wash?'
p2936
I1
sS'Canadian'
p2937
I1
sS'Mrs.'
p2938
I19
sS'wavy'
p2939
I3
sS'"are'
p2940
I1
sS'telling'
p2941
I1
sS'more.'
p2942
I4
sS'Pulled'
p2943
I1
sS'nausea'
p2944
I1
sS'No,'
p2945
I4
sS'No.'
p2946
I1
sS'exits'
p2947
I1
sS'stiff'
p2948
I3
sS'teeth,'
p2949
I1
sS"'The"
p2950
I1
sS'cables,"'
p2951
I1
sS'"Did'
p2952
I6
sS'darling.'
p2953
I3
sS'waking'
p2954
I1
sS'jump'
p2955
I2
sS'picked'
p2956
I9
sS'pleasantly.'
p2957
I1
sS'Ah!'
p2958
I1
sS"concierge's"
p2959
I1
sS'whunk'
p2960
I2
sS'colonel'
p2961
I1
sS'Boys'
p2962
I1
sS'rotten'
p2963
I3
sS'fishermen,'
p2964
I2
sS'fishermen.'
p2965
I1
sS'can\'t."'
p2966
I2
sS'America'
p2967
I4
sS'party?"'
p2968
I1
sS'some?"'
p2969
I1
sS'row."'
p2970
I2
sS'following'
p2971
I1
sS'scythe'
p2972
I1
sS'three,"'
p2973
I1
sS'remembered,'
p2974
I1
sS'precision.'
p2975
I1
sS'pole.'
p2976
I1
sS'Dozen'
p2977
I1
sS"weren't"
p2978
I1
sS'name."'
p2979
I3
sS'worry."'
p2980
I1
sS'for?"'
p2981
I2
sS'we?"'
p2982
I2
sS'cloud'
p2983
I4
sS'drop,'
p2984
I1
sS'Escorial,"'
p2985
I2
sS'love."'
p2986
I2
sS'"Blow'
p2987
I1
sS'grudgingly.'
p2988
I1
sS'handful,'
p2989
I1
sS'compatriot'
p2990
I1
sS'biblical'
p2991
I1
sS'started'
p2992
I25
sS'two-decker'
p2993
I1
sS'mouthpieces.'
p2994
I1
sS'"to'
p2995
I1
sS'Buitrago'
p2996
I2
sS'crosses'
p2997
I1
sS'ride'
p2998
I2
sS"snapper.'"
p2999
I1
sS'crossed'
p3000
I5
sS'Escorial'
p3001
I1
sS'meet'
p3002
I2
sS'drops'
p3003
I2
sS'heard,'
p3004
I1
sS'far,'
p3005
I1
sS'far.'
p3006
I2
sS'Mr.'
p3007
I8
sS'pulling'
p3008
I5
sS'wonderful'
p3009
I5
sS'far?'
p3010
I1
sS'carawonging'
p3011
I1
sS'happened?"'
p3012
I1
sS'over."'
p3013
I1
sS'speech:'
p3014
I1
sS'liquorice,"'
p3015
I1
sS'speech!'
p3016
I1
sS'shifted.'
p3017
I1
sS'noteangry.'
p3018
I1
sS'angrily.'
p3019
I1
sS'speech,'
p3020
I1
sS'circular'
p3021
I1
sS'furiously'
p3022
I1
sS'broadside,'
p3023
I1
sS'British'
p3024
I1
sS'corral,'
p3025
I3
sS'"Several,"'
p3026
I1
sS'corral'
p3027
I3
sS'"Surely.'
p3028
I1
sS'Wilson'
p3029
I89
sS'hand,'
p3030
I2
sS'hand.'
p3031
I6
sS"won't"
p3032
I6
sS'during'
p3033
I2
sS'letters'
p3034
I3
sS'in,"'
p3035
I2
sS'gun?"'
p3036
I1
sS'hills.'
p3037
I3
sS'birds,'
p3038
I1
sS'pins'
p3039
I1
sS'hands'
p3040
I14
sS'front'
p3041
I12
sS'boots'
p3042
I2
sS'well?"'
p3043
I2
sS'slide'
p3044
I1
sS'more,"'
p3045
I4
sS'crossing'
p3046
I2
sS'shaking'
p3047
I3
sS'ankles'
p3048
I1
sS'hunting,'
p3049
I1
sS'trash.'
p3050
I1
sS'wine.'
p3051
I4
sS'sandy'
p3052
I1
sS'"In'
p3053
I11
sS'tracking.'
p3054
I1
sS'"If'
p3055
I14
sS'J.'
p3056
I2
sS'time,'
p3057
I3
sS'strokes'
p3058
I1
sS'time.'
p3059
I7
sS'"It'
p3060
I33
sS'"Is'
p3061
I11
sS"one's"
p3062
I1
sS'Tuileries.'
p3063
I1
sS'fly,'
p3064
I1
sS'younger.'
p3065
I1
sS"Golz's"
p3066
I2
sS'completely'
p3067
I2
sS'.,"'
p3068
I1
sS'tennis,'
p3069
I1
sS'times'
p3070
I12
sS'faces,'
p3071
I1
sS'possessing'
p3072
I1
sS'powerful'
p3073
I1
sS'mirror,'
p3074
I1
sS'quality'
p3075
I1
sS"you're"
p3076
I9
sS'splendid,'
p3077
I1
sS'be.'
p3078
I2
sS'be,'
p3079
I1
sS'"Come'
p3080
I13
sS'filthy'
p3081
I1
sS'bet."'
p3082
I1
sS'don\'t."'
p3083
I1
sS'attack'
p3084
I11
sS'wrapped'
p3085
I3
sS'perfectly'
p3086
I8
sS'tourists'
p3087
I2
sS'beard'
p3088
I1
sS'hitting,'
p3089
I1
sS'pointed,'
p3090
I1
sS'exactly'
p3091
I5
sS'lists'
p3092
I1
sS'smiled.'
p3093
I6
sS'herself'
p3094
I2
sS'speaks."'
p3095
I1
sS'photograph'
p3096
I1
sS'bed'
p3097
I10
sS'spurt'
p3098
I1
sS'distinguished'
p3099
I1
sS'Africa,'
p3100
I1
sS'seventy-five.'
p3101
I1
sS'Roberto,'
p3102
I1
sS'lightly'
p3103
I2
sS'buy'
p3104
I3
sS'big-game'
p3105
I1
sS'need'
p3106
I5
sS'emptying'
p3107
I1
sS'ones."'
p3108
I2
sS'"Like'
p3109
I1
sS'able'
p3110
I5
sS'truck'
p3111
I2
sS'blades'
p3112
I1
sS'scalds'
p3113
I1
sS'"Sounds'
p3114
I1
sS'hugeness'
p3115
I1
sS'overlapping'
p3116
I1
sS'nuisance'
p3117
I1
sS'shyness'
p3118
I1
sS'wish,"'
p3119
I1
sS'chu-chu-chu-chu-chu-chu'
p3120
I1
sS'upset'
p3121
I2
sS'"Has'
p3122
I1
sS'Grand'
p3123
I1
sS'based'
p3124
I1
sS'pouches'
p3125
I1
sS'gelatinous'
p3126
I1
sS'brighter'
p3127
I1
sS'attained'
p3128
I2
sS'tunas,'
p3129
I1
sS'pass.'
p3130
I3
sS'Italian'
p3131
I1
sS'gray'
p3132
I7
sS'talking.'
p3133
I1
sS'had,'
p3134
I3
sS'trucks'
p3135
I1
sS'course'
p3136
I5
sS'"Rotten.'
p3137
I1
sS'shy'
p3138
I1
sS'base.'
p3139
I1
sS'she'
p3140
I152
sS'pads.'
p3141
I2
sS'spotted'
p3142
I1
sS'"God'
p3143
I2
sS'treacheries.'
p3144
I1
sS'shake'
p3145
I1
sS'brave."'
p3146
I2
sS'reinforcements'
p3147
I1
sS'desperate'
p3148
I1
sS'cat."'
p3149
I1
sS'"May'
p3150
I2
sS'Good'
p3151
I1
sS'strips.'
p3152
I1
sS'"Hotze,"'
p3153
I2
sS'approvingly.'
p3154
I1
sS'mind,'
p3155
I1
sS'state'
p3156
I1
sS'mind.'
p3157
I1
sS'correctly'
p3158
I1
sS'neither'
p3159
I2
sS'hit,'
p3160
I1
sS'tent'
p3161
I8
sS'asked.'
p3162
I45
sS'asked,'
p3163
I6
sS'speeding-by'
p3164
I1
sS'"Nope.'
p3165
I1
sS'importance'
p3166
I4
sS'killer,"'
p3167
I1
sS'merry'
p3168
I1
sS'Bending'
p3169
I1
sS'hits'
p3170
I1
sS'"Really?'
p3171
I1
sS'matter?"'
p3172
I5
sS'see."'
p3173
I4
sS'unbuckled'
p3174
I1
sS'plankton'
p3175
I3
sS'jersey'
p3176
I1
sS'Zizi'
p3177
I3
sS'torn'
p3178
I1
sS'forty-fathom'
p3179
I3
sS'together.'
p3180
I3
sS'together,'
p3181
I3
sS'civil,"'
p3182
I1
sS'hour?"'
p3183
I1
sS'shoulder,'
p3184
I1
sS'shoulder.'
p3185
I5
sS'quit'
p3186
I1
sS'baseball."'
p3187
I3
sS'addition'
p3188
I1
sS'on,"'
p3189
I4
sS'thanked'
p3190
I1
sS'quid'
p3191
I1
sS'slowly'
p3192
I9
sS'Cohn?"'
p3193
I1
sS'day."'
p3194
I3
sS'shoulders'
p3195
I10
sS'"with'
p3196
I1
sS'both'
p3197
I14
sS'harpoon,'
p3198
I1
sS'diplomat,'
p3199
I1
sS"That's"
p3200
I13
sS'And'
p3201
I26
sS'novel'
p3202
I2
sS'harder'
p3203
I2
sS'coward.'
p3204
I1
sS'coward,'
p3205
I1
sS'will,'
p3206
I1
sS'will.'
p3207
I2
sS'coward?'
p3208
I1
sS'Any'
p3209
I3
sS'else?"'
p3210
I1
sS'steal,'
p3211
I1
sS'name,"'
p3212
I2
sS'surface'
p3213
I6
sS'heather.'
p3214
I1
sS'examined'
p3215
I1
sS'Pretty'
p3216
I1
sS'You'
p3217
I57
sS'union.'
p3218
I1
sS'big-hippily,'
p3219
I1
sS'three."'
p3220
I1
sS'began'
p3221
I5
sS'wicked'
p3222
I1
sS'parts'
p3223
I1
sS'tennis?"'
p3224
I1
sS'tapped'
p3225
I2
sS'hesaid.'
p3226
I1
sS'flesh'
p3227
I2
sS'effect'
p3228
I1
sS'toys.'
p3229
I1
sS'colouring'
p3230
I1
sS'frequently'
p3231
I1
sS'keep'
p3232
I14
sS'reflection'
p3233
I1
sS'guarded.'
p3234
I1
sS'well'
p3235
I25
sS'Have'
p3236
I6
sS'foxes,"'
p3237
I1
sS'scientific.'
p3238
I1
sS'do,"'
p3239
I6
sS'liked'
p3240
I10
sS'dose'
p3241
I1
sS'barbarousness."'
p3242
I1
sS'over,"'
p3243
I1
sS'rot.'
p3244
I1
sS'doorway.'
p3245
I1
sS'By'
p3246
I3
sS'wore.'
p3247
I1
sS'crushed'
p3248
I2
sS'mistake.'
p3249
I1
sS'harbour'
p3250
I3
sS'loss'
p3251
I1
sS'necessary'
p3252
I2
sS'lost'
p3253
I6
sS'sizes'
p3254
I1
sS'Merely'
p3255
I1
sS'lose'
p3256
I3
sS'page'
p3257
I1
sS'shed'
p3258
I1
sS'glare'
p3259
I2
sS'home'
p3260
I4
sS'before,'
p3261
I3
sS'before.'
p3262
I6
sS'Monsieur'
p3263
I1
sS'broad'
p3264
I1
sS'grinding'
p3265
I1
sS'English."'
p3266
I2
sS'clean,'
p3267
I1
sS'before;'
p3268
I2
sS'careless'
p3269
I1
sS'soda."'
p3270
I1
sS'she,'
p3271
I1
sS'she?'
p3272
I1
sS'fresh.'
p3273
I1
sS'fresh,'
p3274
I1
sS'sinister'
p3275
I1
sS'in.'
p3276
I6
sS'recognized'
p3277
I1
sS'oarsman,'
p3278
I1
sS'tongue'
p3279
I2
sS'Ladyship'
p3280
I1
sS'stakes'
p3281
I1
sS'Pyramides,'
p3282
I1
sS'much."'
p3283
I1
sS'leather,'
p3284
I1
sS'leather.'
p3285
I1
sS'noticed'
p3286
I4
sS'inner'
p3287
I2
sS'cups.'
p3288
I1
sS'damn'
p3289
I7
sS'north'
p3290
I1
sS'Flamand?"'
p3291
I1
sS'blind."'
p3292
I1
sS'Club?"'
p3293
I1
sS'courts'
p3294
I1
sS'"I\'m'
p3295
I22
sS'Soufflot'
p3296
I1
sS'eat'
p3297
I19
sS'"I\'d'
p3298
I6
sS'he'
p3299
I665
sS'started."'
p3300
I1
sS'signed'
p3301
I1
sS'budshields'
p3302
I1
sS'cruel'
p3303
I4
sS'projecting'
p3304
I3
sS'stories'
p3305
I1
sS'eyes.'
p3306
I4
sS'piece'
p3307
I2
sS'urging'
p3308
I1
sS'friend.'
p3309
I2
sS'bottles,'
p3310
I1
sS'black-tufted'
p3311
I1
sS'kissed'
p3312
I2
sS'cavalry'
p3313
I1
sS'"Between'
p3314
I1
sS'steel.'
p3315
I1
sS'jamming'
p3316
I1
sS'error,"'
p3317
I1
sS'star'
p3318
I1
sS'Like'
p3319
I3
sS'living'
p3320
I6
sS'stay'
p3321
I15
sS'girls."'
p3322
I2
sS'pictures."'
p3323
I1
sS'rope-soled'
p3324
I3
sS'"Nothing'
p3325
I2
sS'news.'
p3326
I1
sS'Heneral'
p3327
I2
sS'Well,'
p3328
I6
sS'Spanish'
p3329
I5
sS'determination'
p3330
I1
sS'down-stairs'
p3331
I3
sS'behind?"'
p3332
I1
sS'pardon'
p3333
I1
sS'pasteboard'
p3334
I1
sS'better,'
p3335
I1
sS'better.'
p3336
I7
sS'knelt'
p3337
I1
sS'Brett.'
p3338
I9
sS'was,"'
p3339
I1
sS'now?"'
p3340
I3
sS'up.'
p3341
I18
sS'whose'
p3342
I4
sS'up,'
p3343
I4
sS'swam'
p3344
I2
sS'Ingles.'
p3345
I1
sS'trousers'
p3346
I9
sS'sorry'
p3347
I6
sS'hadst'
p3348
I1
sS'govern'
p3349
I1
sS'today.'
p3350
I4
sS'today,'
p3351
I2
sS'"That'
p3352
I23
sS'duke.'
p3353
I1
sS'no."'
p3354
I1
sS'duke,'
p3355
I2
sS'painter.'
p3356
I1
sS'greenish'
p3357
I1
sS'front,'
p3358
I2
sS'clothes'
p3359
I2
sS'force'
p3360
I1
sS'Strasbourg'
p3361
I4
sS'me,'
p3362
I12
sS'me.'
p3363
I17
sS'lavender'
p3364
I2
sS'"Nonsense.'
p3365
I1
sS'shoveled'
p3366
I1
sS'even'
p3367
I14
sS'half."'
p3368
I1
sS'nodded.'
p3369
I1
sS'snares'
p3370
I1
sS'hands,"'
p3371
I1
sS'lights'
p3372
I2
sS'jam,'
p3373
I2
sS'albacore'
p3374
I2
sS'net'
p3375
I3
sS'ever'
p3376
I23
sS'Anselmo'
p3377
I40
sS'timid."'
p3378
I1
sS'men'
p3379
I29
sS'drew'
p3380
I3
sS'met'
p3381
I1
sS"aren't"
p3382
I4
sS'dry'
p3383
I1
sS'Leagues'
p3384
I1
sS'light.'
p3385
I4
sS'light,'
p3386
I2
sS'credit'
p3387
I1
sS'Afraid'
p3388
I1
sS'St.'
p3389
I3
sS'war.'
p3390
I2
sS'Also'
p3391
I4
sS'mountainside.'
p3392
I1
sS'army'
p3393
I2
sS'arms'
p3394
I7
sS'call'
p3395
I3
sS'calm'
p3396
I1
sS'trot,'
p3397
I1
sS'right.'
p3398
I12
sS'tell'
p3399
I25
sS'Sorting'
p3400
I1
sS'lungs'
p3401
I1
sS'count.'
p3402
I4
sS'DiMaggio'
p3403
I2
sS'expose'
p3404
I1
sS'telephone."'
p3405
I1
sS'warn'
p3406
I1
sS'disruption'
p3407
I1
sS'warm'
p3408
I6
sS'September."'
p3409
I1
sS'count?'
p3410
I1
sS'square,'
p3411
I1
sS'"Now?"'
p3412
I1
sS'room'
p3413
I6
sS'arm.'
p3414
I2
sS'five."'
p3415
I1
sS'shade,"'
p3416
I2
sS'day,"'
p3417
I1
sS'fresher'
p3418
I1
sS'give'
p3419
I12
sS'association'
p3420
I1
sS'blank.'
p3421
I1
sS'loathe'
p3422
I1
sS'colds'
p3423
I1
sS'skidded,'
p3424
I1
sS'camp?"'
p3425
I2
sS'on."'
p3426
I2
sS'Jack'
p3427
I1
sS'answer'
p3428
I1
sS'"we\'re'
p3429
I1
sS'better?"'
p3430
I1
sS'rise'
p3431
I4
sS'loyalty'
p3432
I1
sS'food.'
p3433
I2
sS'All'
p3434
I8
sS'guerilla'
p3435
I3
sS'third'
p3436
I2
sS'grant'
p3437
I1
sS'fault.'
p3438
I4
sS'sliced'
p3439
I1
sS'still,'
p3440
I1
sS'cold.'
p3441
I4
sS'cold,'
p3442
I1
sS'either,"'
p3443
I1
sS'capitalist'
p3444
I1
sS'operate'
p3445
I2
sS'sat,'
p3446
I1
sS'Toro.'
p3447
I1
sS'down;'
p3448
I1
sS'softened'
p3449
I1
sS'down?'
p3450
I3
sS'deck'
p3451
I1
sS'Massachusetts.'
p3452
I1
sS'"Why'
p3453
I19
sS"fish's"
p3454
I1
sS'down,'
p3455
I9
sS'down.'
p3456
I13
sS'"Who'
p3457
I5
sS'thee?"'
p3458
I4
sS'before'
p3459
I43
sS'shooting!"'
p3460
I1
sS'then.'
p3461
I4
sS'then,'
p3462
I13
sS'net."'
p3463
I1
sS'better'
p3464
I19
sS'Anselmo,'
p3465
I2
sS'Anselmo.'
p3466
I2
sS'tanned,'
p3467
I1
sS'asleep."'
p3468
I2
sS'one'
p3469
I123
sS'operation,'
p3470
I1
sS'meat'
p3471
I4
sS'week.'
p3472
I1
sS'mistrust'
p3473
I1
sS'Terrace.'
p3474
I2
sS'cool,"'
p3475
I1
sS'leaned'
p3476
I15
sS'Caf\xe9'
p3477
I3
sS'went'
p3478
I82
sS'higher'
p3479
I3
sS'side'
p3480
I23
sS'bone'
p3481
I1
sS'luck'
p3482
I5
sS'foxes."'
p3483
I1
sS'number,"'
p3484
I1
sS'"Oh,'
p3485
I35
sS'mistaken,"'
p3486
I1
sS'taught'
p3487
I2
sS'forgot'
p3488
I1
sS'enclosure'
p3489
I1
sS'them?"'
p3490
I5
sS'start?'
p3491
I1
sS'smoked,'
p3492
I1
sS'is.'
p3493
I1
sS'is,'
p3494
I2
sS'surprise'
p3495
I1
sS'available,'
p3496
I1
sS'turning'
p3497
I4
sS'thee,"'
p3498
I1
sS'aid,'
p3499
I1
sS'ascending'
p3500
I1
sS'skin.'
p3501
I2
sS'storms,'
p3502
I1
sS"bear's"
p3503
I1
sS'starts'
p3504
I3
sS'arrived'
p3505
I1
sS'York,'
p3506
I2
sS'loud'
p3507
I1
sS'Swahili'
p3508
I3
sS'hook'
p3509
I11
sS'hoof'
p3510
I2
sS'Etienne'
p3511
I1
sS'hell!"'
p3512
I1
sS'help,"'
p3513
I1
sS'bonito'
p3514
I1
sS'girls'
p3515
I1
sS'Cerf'
p3516
I1
sS'floor.'
p3517
I1
sS'silly."'
p3518
I2
sS'somewhat'
p3519
I1
sS'distance'
p3520
I1
sS'body.'
p3521
I1
sS'Hotze.'
p3522
I2
sS'preparation'
p3523
I1
sS'matter'
p3524
I9
sS'girl,'
p3525
I3
sS'silly'
p3526
I2
sS'deserving'
p3527
I1
sS'spoiled'
p3528
I1
sS'sees'
p3529
I1
sS'resinous'
p3530
I1
sS'mind'
p3531
I10
sS'mine'
p3532
I5
sS'scabby'
p3533
I1
sS'car."'
p3534
I1
sS'seen'
p3535
I21
sS'seem'
p3536
I3
sS'do.'
p3537
I4
sS'do,'
p3538
I3
sS'point,'
p3539
I1
sS'gently.'
p3540
I2
sS'do?'
p3541
I1
sS'watchchain.'
p3542
I1
sS'tell.'
p3543
I1
sS'"Amounts'
p3544
I1
sS'yacht,'
p3545
I1
sS'see.'
p3546
I3
sS'see,'
p3547
I3
sS'did,"'
p3548
I1
sS'alarm'
p3549
I2
sS'definitely'
p3550
I1
sS'principle'
p3551
I2
sS'green-sapped'
p3552
I1
sS'strong,'
p3553
I1
sS'strong.'
p3554
I2
sS'hunger'
p3555
I1
sS'retire'
p3556
I1
sS'man,"'
p3557
I5
sS'treachery,'
p3558
I1
sS'pernod'
p3559
I2
sS'backs."'
p3560
I1
sS'folded'
p3561
I4
sS'unleashed'
p3562
I1
sS'"Put'
p3563
I1
sS'Others'
p3564
I1
sS'wearing'
p3565
I2
sS'praised'
p3566
I1
sS'Havana'
p3567
I2
sS'Clyne,'
p3568
I1
sS'stop'
p3569
I9
sS'coast'
p3570
I2
sS'Senlis."'
p3571
I1
sS'bar'
p3572
I11
sS'fields'
p3573
I1
sS'bay'
p3574
I3
sS'bad'
p3575
I16
sS'softly'
p3576
I1
sS'bal'
p3577
I1
sS'ears'
p3578
I2
sS'other."'
p3579
I2
sS'decides'
p3580
I1
sS'laughing.'
p3581
I2
sS'decided'
p3582
I2
sS'"Happy,'
p3583
I1
sS'subject'
p3584
I1
sS'girls,"'
p3585
I1
sS'said'
p3586
I159
sS'Somebody'
p3587
I2
sS'simple."'
p3588
I4
sS'shaven'
p3589
I1
sS'sail'
p3590
I8
sS'shaved'
p3591
I3
sS'Rue'
p3592
I6
sS'smacks'
p3593
I1
sS'Granja'
p3594
I1
sS'pebbled'
p3595
I1
sS'sorts'
p3596
I1
sS'sweet."'
p3597
I1
sS'tolerance'
p3598
I1
sS'courts,"'
p3599
I1
sS'lazy'
p3600
I1
sS'seen."'
p3601
I1
sS'Barnes."'
p3602
I1
sS'picking'
p3603
I1
sS'suggested'
p3604
I1
sS'fiacre'
p3605
I1
sS'sort,'
p3606
I1
sS'shave.'
p3607
I1
sS'"Right."'
p3608
I1
sS'against'
p3609
I38
sS'no,"'
p3610
I1
sS'"Her'
p3611
I1
sS'him?"'
p3612
I8
sS'inferior."'
p3613
I1
sS'height'
p3614
I1
sS'dropped.'
p3615
I1
sS'boys,'
p3616
I1
sS'springs'
p3617
I1
sS'now,'
p3618
I13
sS'now.'
p3619
I17
sS'murder,'
p3620
I1
sS'puts'
p3621
I1
sS'basis'
p3622
I1
sS'Hoffenheimer.'
p3623
I1
sS'three'
p3624
I31
sS'tiny'
p3625
I1
sS'removed,'
p3626
I1
sS'tuna.'
p3627
I2
sS'tuna,'
p3628
I1
sS'interest'
p3629
I1
sS'basin'
p3630
I2
sS'lovely'
p3631
I3
sS'sheet.'
p3632
I1
sS'Tuileries'
p3633
I1
sS"Wetzel's?"
p3634
I1
sS'harshness'
p3635
I1
sS'tank'
p3636
I3
sS'funny,"'
p3637
I2
sS'say'
p3638
I22
sS'ugly'
p3639
I5
sS'near'
p3640
I5
sS'suppose'
p3641
I8
sS'papers,'
p3642
I2
sS'papers.'
p3643
I1
sS'ask.'
p3644
I1
sS'over.'
p3645
I4
sS'seven'
p3646
I2
sS'over,'
p3647
I3
sS'is'
p3648
I240
sS'"Perico'
p3649
I1
sS'shame'
p3650
I2
sS'cans'
p3651
I3
sS'in'
p3652
I512
sS'if'
p3653
I71
sS'grown'
p3654
I1
sS'bottles'
p3655
I3
sS'make'
p3656
I51
sS'material.'
p3657
I1
sS'big-sea,'
p3658
I1
sS'belly'
p3659
I2
sS'President'
p3660
I1
sS'bells'
p3661
I1
sS'shade."'
p3662
I1
sS'can,'
p3663
I1
sS'Usually'
p3664
I1
sS'opportunity'
p3665
I1
sS"he'll"
p3666
I3
sS'thoughts'
p3667
I1
sS'kid'
p3668
I2
sS"Macomber's"
p3669
I4
sS'smoked'
p3670
I2
sS'yours'
p3671
I2
sS'left'
p3672
I24
sS'just'
p3673
I52
sS'sporting'
p3674
I1
sS'Robert,'
p3675
I1
sS'feet,'
p3676
I1
sS'feet.'
p3677
I3
sS'yet'
p3678
I2
sS'leaders.'
p3679
I1
sS'Michel.'
p3680
I1
sS'Michel,'
p3681
I1
sS'regarded'
p3682
I1
sS'royal'
p3683
I1
sS'soda.'
p3684
I2
sS'contestant'
p3685
I1
sS"beer's"
p3686
I1
sS'save'
p3687
I1
sS'much,"'
p3688
I3
sS'ago.'
p3689
I2
sS'fact,'
p3690
I1
sS'"Thyself'
p3691
I1
sS'either."'
p3692
I2
sS'whichever'
p3693
I1
sS'bad.'
p3694
I2
sS'highly'
p3695
I1
sS'dreams'
p3696
I1
sS'shoulder'
p3697
I3
sS'Art'
p3698
I1
sS'clippety-clopping'
p3699
I1
sS'lines?"'
p3700
I1
sS'normal."'
p3701
I1
sS'Are'
p3702
I3
sS'deal'
p3703
I2
sS'deaf'
p3704
I1
sS'dead'
p3705
I4
sS'banjo.'
p3706
I1
sS'prairie.'
p3707
I1
sS'daytime'
p3708
I1
sS'Quite'
p3709
I1
sS'throat.'
p3710
I1
sS'coils.'
p3711
I3
sS'ready."'
p3712
I1
sS'platter,'
p3713
I1
sS'"Try'
p3714
I1
sS'bolt'
p3715
I3
sS"thing'n"
p3716
I1
sS'Harvey?"'
p3717
I2
sS"Ney's"
p3718
I1
sS'whittling.'
p3719
I1
sS'abut'
p3720
I3
sS'Hearing'
p3721
I1
sS'magazine'
p3722
I3
sS'cart.'
p3723
I1
sS'commit'
p3724
I1
sS'skinner'
p3725
I1
sS'for.'
p3726
I2
sS'for,'
p3727
I4
sS'down'
p3728
I85
sS'for?'
p3729
I1
sS'.505'
p3730
I2
sS'insult'
p3731
I3
sS'frightened'
p3732
I3
sS'Closerie'
p3733
I1
sS'flying'
p3734
I12
sS'job."'
p3735
I1
sS'fork'
p3736
I1
sS'form'
p3737
I3
sS'ford'
p3738
I1
sS'feminine'
p3739
I1
sS'manager,'
p3740
I1
sS'"One'
p3741
I4
sS'beating,"'
p3742
I1
sS'dead-fall.'
p3743
I1
sS'have."'
p3744
I2
sS'whiskey'
p3745
I1
sS'motorboats,'
p3746
I1
sS'have,"'
p3747
I2
sS'napkin'
p3748
I1
sS'fool,"'
p3749
I3
sS'sticks'
p3750
I2
sS'jump.'
p3751
I2
sS'die.'
p3752
I2
sS'ship'
p3753
I1
sS'explained,'
p3754
I1
sS'Chicago."'
p3755
I1
sS'explained.'
p3756
I3
sS'close?"'
p3757
I1
sS'Zizi,'
p3758
I2
sS'skirted'
p3759
I1
sS'handed'
p3760
I10
sS'straight."'
p3761
I1
sS'lull-bellied,'
p3762
I1
sS'dies'
p3763
I1
sS'felt'
p3764
I42
sS'cover,'
p3765
I1
sS'fell'
p3766
I2
sS'blown?"'
p3767
I1
sS'stick.'
p3768
I1
sS'aware'
p3769
I1
sS'weekend'
p3770
I1
sS'Staff."'
p3771
I2
sS'hungry."'
p3772
I1
sS'blushing'
p3773
I1
sS'daily'
p3774
I1
sS'jacket'
p3775
I1
sS'"Georgette.'
p3776
I1
sS'teeth'
p3777
I3
sS'mountains.'
p3778
I8
sS'years?"'
p3779
I1
sS'car,"'
p3780
I2
sS'mile'
p3781
I2
sS'skin'
p3782
I5
sS'mill'
p3783
I4
sS'milk'
p3784
I1
sS'show'
p3785
I9
sS'father'
p3786
I5
sS'travel,'
p3787
I1
sS'baits.'
p3788
I1
sS'finally'
p3789
I5
sS'"So'
p3790
I4
sS'off.'
p3791
I5
sS'shoot'
p3792
I6
sS'string'
p3793
I2
sS'strangers.'
p3794
I1
sS'society.'
p3795
I1
sS'Where'
p3796
I5
sS'stiffen'
p3797
I1
sS'did'
p3798
I63
sS'did."'
p3799
I1
sS'sardines?'
p3800
I1
sS'editor.'
p3801
I1
sS'sardines.'
p3802
I4
sS'dip'
p3803
I5
sS'round'
p3804
I3
sS'talked'
p3805
I7
sS'else,'
p3806
I1
sS'man."'
p3807
I6
sS'else.'
p3808
I1
sS'running;'
p3809
I1
sS'"Connais'
p3810
I1
sS'loud.'
p3811
I1
sS'eating'
p3812
I7
sS'planks,'
p3813
I1
sS'growl.'
p3814
I1
sS'mouthpiece,'
p3815
I1
sS'coming,"'
p3816
I3
sS'silly,'
p3817
I1
sS'resolution."'
p3818
I1
sS'filled'
p3819
I1
sS'promised."'
p3820
I1
sS'check-book'
p3821
I1
sS'stallion'
p3822
I1
sS'detest'
p3823
I1
sS'fines'
p3824
I1
sS'wait'
p3825
I2
sS'box'
p3826
I6
sS'boy'
p3827
I67
sS'here?'
p3828
I1
sS'at."'
p3829
I1
sS'odour'
p3830
I1
sS'bow'
p3831
I6
sS'exploitation'
p3832
I1
sS'here.'
p3833
I5
sS'here,'
p3834
I4
sS'father,'
p3835
I2
sS'"Nobody'
p3836
I2
sS'insolent'
p3837
I1
sS'"Where'
p3838
I10
sS'merely'
p3839
I1
sS'When'
p3840
I21
sS'other,"'
p3841
I1
sS'verge'
p3842
I1
sS'is."'
p3843
I1
sS'patient."'
p3844
I1
sS'hotels'
p3845
I1
sS'sweating'
p3846
I2
sS'estate'
p3847
I1
sS'Brett?"'
p3848
I1
sS'visit'
p3849
I1
sS'simple,"'
p3850
I1
sS'francs'
p3851
I1
sS'remembering,'
p3852
I1
sS'fast-moving'
p3853
I1
sS'clocks.'
p3854
I1
sS'drunk,"'
p3855
I2
sS'effort'
p3856
I1
sS'quickly.'
p3857
I2
sS'fly'
p3858
I2
sS'"They'
p3859
I18
sS'silliness,'
p3860
I1
sS'avoiding'
p3861
I1
sS'pelt.'
p3862
I1
sS'"Then'
p3863
I7
sS'Senlis'
p3864
I1
sS'making'
p3865
I6
sS'bites'
p3866
I1
sS'frightful'
p3867
I1
sS'Alger'
p3868
I1
sS'pine'
p3869
I3
sS'hand-holds'
p3870
I1
sS'till'
p3871
I1
sS'"Two?"'
p3872
I1
sS'sword'
p3873
I1
sS'tile'
p3874
I1
sS"Won't"
p3875
I1
sS'map'
p3876
I4
sS'cups?"'
p3877
I1
sS'mar'
p3878
I2
sS'smooth-looking'
p3879
I1
sS'may'
p3880
I4
sS'night."'
p3881
I3
sS'hand-tooled'
p3882
I1
sS'Mosquito'
p3883
I1
sS'true."'
p3884
I1
sS'gun-bearers.'
p3885
I1
sS'grow'
p3886
I2
sS'man'
p3887
I194
sS'scrambling'
p3888
I1
sS'neck'
p3889
I6
sS'maybe'
p3890
I7
sS'"Kashkin,"'
p3891
I2
sS'basket'
p3892
I1
sS'tall'
p3893
I11
sS'talk'
p3894
I21
sS'shoes'
p3895
I2
sS'fish.'
p3896
I10
sS'pointed'
p3897
I6
sS'cruel.'
p3898
I1
sS'fish,'
p3899
I4
sS'terrace'
p3900
I2
sS'cuts'
p3901
I1
sS'cruel?'
p3902
I1
sS'thank'
p3903
I5
sS'failure."'
p3904
I1
sS"l'Op\xe9ra,"
p3905
I1
sS'ours'
p3906
I1
sS'Jake?"'
p3907
I5
sS'eat."'
p3908
I5
sS'shatter'
p3909
I1
sS'lunch'
p3910
I3
sS'She'
p3911
I67
sS'safari'
p3912
I4
sS'gate'
p3913
I1
sS'business."'
p3914
I2
sS'dancing-floor.'
p3915
I2
sS'killed'
p3916
I12
sS'Rotonde'
p3917
I1
sS'Leblanc.'
p3918
I1
sS'Katherine--I'
p3919
I1
sS'jokes.'
p3920
I1
sS'rock'
p3921
I1
sS'up,"'
p3922
I5
sS'dialect'
p3923
I1
sS'abnormal'
p3924
I1
sS'poker'
p3925
I1
sS'Shorter'
p3926
I1
sS'or,'
p3927
I1
sS'girl'
p3928
I43
sS'yes.'
p3929
I5
sS'yes,'
p3930
I1
sS'stupid'
p3931
I1
sS'thin,'
p3932
I1
sS'CINZANO'
p3933
I1
sS'Comrade'
p3934
I5
sS'earlier'
p3935
I1
sS'sideways'
p3936
I2
sS'Sometimes'
p3937
I2
sS'"More.'
p3938
I1
sS'sunlight.'
p3939
I1
sS'"Dolphin,"'
p3940
I1
sS'language'
p3941
I1
sS'waiter'
p3942
I12
sS'thing'
p3943
I27
sS'hardened.'
p3944
I1
sS'unslung'
p3945
I1
sS'think'
p3946
I49
sS'waited'
p3947
I5
sS'first'
p3948
I29
sS'dwelling'
p3949
I1
sS"How's"
p3950
I1
sS'fast'
p3951
I8
sS'"Sure,"'
p3952
I2
sS'carry'
p3953
I11
sS'Probably'
p3954
I1
sS'sounds'
p3955
I5
sS'eye,'
p3956
I1
sS'eye.'
p3957
I2
sS'little'
p3958
I39
sS'limited'
p3959
I1
sS'day-light,'
p3960
I1
sS'edges.'
p3961
I1
sS'slept'
p3962
I4
sS'anyone'
p3963
I3
sS'Every'
p3964
I4
sS'speaking'
p3965
I3
sS'formalized,'
p3966
I1
sS'sound.'
p3967
I1
sS'dear."'
p3968
I1
sS"lion\x97he'll"
p3969
I1
sS'ready,"'
p3970
I2
sS'easier.'
p3971
I2
sS"here's"
p3972
I1
sS'wert'
p3973
I1
sS'sections'
p3974
I1
sS'white-muscled,'
p3975
I1
sS'Raspail'
p3976
I1
sS'knives'
p3977
I1
sS'were'
p3978
I175
sS'gathering'
p3979
I1
sS'Jockey'
p3980
I1
sS'stubby'
p3981
I1
sS"He's"
p3982
I10
sS'post?"'
p3983
I1
sS'voices'
p3984
I2
sS"He'd"
p3985
I3
sS'winding'
p3986
I1
sS'furious.'
p3987
I1
sS'Do'
p3988
I10
sS'"Hundred\'s'
p3989
I1
sS'hooded'
p3990
I1
sS'up-tilted'
p3991
I1
sS'foreigner'
p3992
I4
sS'registered'
p3993
I1
sS'skinned'
p3994
I1
sS'pain'
p3995
I1
sS'women."'
p3996
I1
sS'paid'
p3997
I1
sS'voice,'
p3998
I1
sS'voice.'
p3999
I3
sS'topic,'
p4000
I1
sS'pair'
p4001
I4
sS'D.'
p4002
I1
sS'"With'
p4003
I3
sS'especially'
p4004
I2
sS'alone;'
p4005
I1
sS'suicide,"'
p4006
I1
sS'porters.'
p4007
I1
sS'alone,'
p4008
I3
sS'alone.'
p4009
I1
sS'fool."'
p4010
I2
sS'shot'
p4011
I11
sS'bitter.'
p4012
I1
sS'"He\'s'
p4013
I14
sS'evening."'
p4014
I1
sS'shod'
p4015
I1
sS'corner'
p4016
I4
sS'We'
p4017
I43
sS'dice'
p4018
I1
sS'Va,"'
p4019
I2
sS'behind'
p4020
I21
sS'dull'
p4021
I3
sS'black'
p4022
I14
sS'Quai'
p4023
I2
sS'Frances?"'
p4024
I2
sS'"She\'s'
p4025
I8
sS'get'
p4026
I75
sS'straggler'
p4027
I1
sS'bad."'
p4028
I2
sS'Turn'
p4029
I1
sS'hailed'
p4030
I1
sS'nearly'
p4031
I4
sS'W.'
p4032
I1
sS'morning'
p4033
I15
sS'miles'
p4034
I1
sS'Campbell,'
p4035
I1
sS'Campbell.'
p4036
I1
sS'"Stick'
p4037
I1
sS'pebbly'
p4038
I1
sS'feeling?"'
p4039
I1
sS'Gredos'
p4040
I1
sS'seat'
p4041
I4
sS'doings'
p4042
I1
sS'seal'
p4043
I3
sS'hand-forged'
p4044
I1
sS'wonder'
p4045
I9
sS'date;'
p4046
I1
sS'Jig.'
p4047
I1
sS'doing?"'
p4048
I1
sS"father's"
p4049
I1
sS'enough'
p4050
I15
sS'trade.'
p4051
I2
sS'"Well,'
p4052
I16
sS'reading'
p4053
I2
sS'across'
p4054
I29
sS'declare.'
p4055
I1
sS'doing.'
p4056
I1
sS'sea.'
p4057
I1
sS'Each'
p4058
I4
sS'killing'
p4059
I4
sS'"Here'
p4060
I2
sS'according'
p4061
I1
sS'"Che'
p4062
I1
sS'among'
p4063
I4
sS'like."'
p4064
I1
sS'cancer'
p4065
I1
sS'sea,'
p4066
I1
sS'sick."'
p4067
I2
sS'Sure'
p4068
I1
sS'sacks.'
p4069
I1
sS'plenty,"'
p4070
I1
sS'tasting.'
p4071
I1
sS'grippes'
p4072
I1
sS'waster."'
p4073
I1
sS'offered'
p4074
I1
sS'"Does'
p4075
I3
sS'gripped'
p4076
I1
sS'wake'
p4077
I6
sS'those'
p4078
I15
sS'sound'
p4079
I6
sS'turtles'
p4080
I6
sS'Somehow'
p4081
I1
sS'forefinger'
p4082
I1
sS'slapping'
p4083
I1
sS'Avenue'
p4084
I4
sS'coffee'
p4085
I8
sS'down?"'
p4086
I1
sS'strain'
p4087
I3
sS'sudden'
p4088
I4
sS'"Move'
p4089
I1
sS'movements'
p4090
I1
sS'bags'
p4091
I4
sS'different'
p4092
I6
sS'new."'
p4093
I1
sS'"Frances."'
p4094
I1
sS'smile.'
p4095
I1
sS'same'
p4096
I13
sS'stepped'
p4097
I5
sS'pan'
p4098
I1
sS'movement,'
p4099
I2
sS'oil'
p4100
I2
sS'Barcelona'
p4101
I1
sS'annulled'
p4102
I1
sS'running'
p4103
I4
sS'been.'
p4104
I2
sS'been,'
p4105
I1
sS'climbing'
p4106
I4
sS'flexed'
p4107
I1
sS'waves.'
p4108
I1
sS'middleweight'
p4109
I3
sS'tree."'
p4110
I1
sS'sullenly,'
p4111
I1
sS'bottle'
p4112
I5
sS'sullenly.'
p4113
I3
sS'bumping'
p4114
I1
sS'bag,'
p4115
I1
sS'blanket.'
p4116
I2
sS'nights,'
p4117
I1
sS'nights.'
p4118
I1
sS'money'
p4119
I3
sS'asleep,'
p4120
I2
sS'asleep.'
p4121
I2
sS'dipped'
p4122
I9
sS"'he's"
p4123
I1
sS'Margaret'
p4124
I1
sS'Sordo,'
p4125
I1
sS'Memsahib,"'
p4126
I1
sS'wife,'
p4127
I3
sS'wife.'
p4128
I9
sS'night,"'
p4129
I1
sS'sight,'
p4130
I1
sS'English.'
p4131
I2
sS'wife;'
p4132
I2
sS'aiming'
p4133
I1
sS'grim'
p4134
I1
sS'"Kashkin."'
p4135
I1
sS'war?"'
p4136
I1
sS'won\'t."'
p4137
I2
sS'nose'
p4138
I3
sS'served'
p4139
I1
sS'Ney'
p4140
I1
sS'New'
p4141
I6
sS'theirs.'
p4142
I1
sS'pocket,'
p4143
I1
sS'pocket.'
p4144
I1
sS'"That\'s'
p4145
I13
sS'station.'
p4146
I2
sS'knife'
p4147
I2
sS'caring'
p4148
I1
sS'racial,"'
p4149
I1
sS'broken'
p4150
I3
sS'bareheaded.'
p4151
I1
sS'lamplight'
p4152
I1
sS'two-franc'
p4153
I1
sS'conducting'
p4154
I1
sS'enameled'
p4155
I1
sS'staff,'
p4156
I1
sS'tease'
p4157
I1
sS'roar'
p4158
I7
sS'out;'
p4159
I1
sS'infinity,"'
p4160
I1
sS'partizan'
p4161
I1
sS'out,'
p4162
I4
sS'road'
p4163
I11
sS'quietly'
p4164
I1
sS'hear?"'
p4165
I1
sS'up."'
p4166
I2
sS'attack?"'
p4167
I1
sS'dreaming'
p4168
I1
sS'morning,'
p4169
I1
sS'morning.'
p4170
I7
sS'breath'
p4171
I1
sS'street-car'
p4172
I1
sS'shells'
p4173
I2
sS'Toro."'
p4174
I1
sS'excited."'
p4175
I1
sS'lions'
p4176
I2
sS'Plenty'
p4177
I1
sS'sorrel'
p4178
I1
sS'annoy.'
p4179
I1
sS'explosion,"'
p4180
I1
sS'white.'
p4181
I1
sS'white,'
p4182
I1
sS'wounded.'
p4183
I2
sS'wild,'
p4184
I1
sS'land.'
p4185
I2
sS'spice'
p4186
I1
sS'arranged'
p4187
I1
sS'romantic'
p4188
I1
sS"wasn't"
p4189
I4
sS'lion.'
p4190
I4
sS'Nouvelle'
p4191
I1
sS'lion,'
p4192
I4
sS"brother's"
p4193
I1
sS'ones,'
p4194
I1
sS'dubbing'
p4195
I1
sS'lion;'
p4196
I1
sS'Blow'
p4197
I1
sS'mind."'
p4198
I1
sS'deep'
p4199
I9
sS'examine'
p4200
I1
sS'taunted.'
p4201
I1
sS'to?"'
p4202
I4
sS'file'
p4203
I1
sS'Springfield'
p4204
I1
sS'fill'
p4205
I1
sS'again'
p4206
I22
sS'"Big'
p4207
I2
sS'carapaced'
p4208
I1
sS'field'
p4209
I4
sS'wet,'
p4210
I1
sS'sick.'
p4211
I3
sS'sick,'
p4212
I1
sS'shelter'
p4213
I1
sS'brandy'
p4214
I6
sS'important'
p4215
I3
sS'itself.'
p4216
I1
sS'awkwardly'
p4217
I1
sS'sardine'
p4218
I1
sS'sewed'
p4219
I1
sS'sentries.'
p4220
I1
sS'driver,'
p4221
I1
sS'looked?"'
p4222
I1
sS'sullenness'
p4223
I1
sS'starting'
p4224
I2
sS'working?"'
p4225
I1
sS'looped'
p4226
I1
sS'forget'
p4227
I2
sS'sighing'
p4228
I1
sS'Biarritz'
p4229
I1
sS'slung'
p4230
I2
sS'zinc'
p4231
I2
sS'talks'
p4232
I1
sS'seal,"'
p4233
I1
sS'sung'
p4234
I2
sS'really,'
p4235
I1
sS'fathoms.'
p4236
I2
sS'really.'
p4237
I1
sS'north.'
p4238
I1
sS'outfit.'
p4239
I1
sS'territory,'
p4240
I1
sS'"Sit'
p4241
I2
sS'hooks'
p4242
I1
sS'mother,'
p4243
I1
sS'team."'
p4244
I1
sS'talk.'
p4245
I4
sS'righted'
p4246
I1
sS'talk,'
p4247
I1
sS'sun.'
p4248
I2
sS'sun,'
p4249
I1
sS'difference'
p4250
I4
sS'college,'
p4251
I1
sS'"Thank'
p4252
I4
sS'motor'
p4253
I7
sS"Don't"
p4254
I9
sS'benevolent'
p4255
I1
sS'paper,'
p4256
I1
sS'along,'
p4257
I2
sS'Luque'
p4258
I1
sS'far?"'
p4259
I1
sS'called?"'
p4260
I4
sS'withheld'
p4261
I1
sS'then."'
p4262
I3
sS'range.'
p4263
I1
sS'strung'
p4264
I1
sS'Only'
p4265
I2
sS'further'
p4266
I2
sS"Kelly's"
p4267
I1
sS'gymnasium.'
p4268
I1
sS'stool'
p4269
I1
sS'movement'
p4270
I1
sS'"Sleep'
p4271
I2
sS'Ahead'
p4272
I1
sS'title,'
p4273
I2
sS'cylindrical'
p4274
I1
sS'bad,"'
p4275
I1
sS'table'
p4276
I18
sS'explosions,"'
p4277
I1
sS'narrow'
p4278
I1
sS'skids'
p4279
I1
sS'barbarous.'
p4280
I1
sS'"let\'s'
p4281
I1
sS'America,'
p4282
I2
sS'America.'
p4283
I1
sS"lion's"
p4284
I3
sS'light."'
p4285
I1
sS'lady,'
p4286
I1
sS'eye'
p4287
I1
sS'"have'
p4288
I3
sS'wiped'
p4289
I5
sS'two'
p4290
I72
sS'wine,"'
p4291
I1
sS'middle-aged,'
p4292
I1
sS'Coming'
p4293
I2
sS'ahead.'
p4294
I1
sS'ahead,'
p4295
I1
sS'staggering'
p4296
I1
sS'American'
p4297
I7
sS'eaten,"'
p4298
I1
sS'town'
p4299
I5
sS'none'
p4300
I3
sS'hour'
p4301
I8
sS'middle'
p4302
I1
sS'des'
p4303
I5
sS'dew'
p4304
I3
sS'guards'
p4305
I1
sS'del'
p4306
I3
sS'Paris."'
p4307
I1
sS'taut'
p4308
I3
sS'nothing,'
p4309
I1
sS'nothing.'
p4310
I6
sS'stubborn'
p4311
I1
sS'shark'
p4312
I4
sS'success,"'
p4313
I1
sS'stacking'
p4314
I1
sS'like,"'
p4315
I1
sS'spoor,'
p4316
I1
sS'share'
p4317
I1
sS'hours.'
p4318
I2
sS'July."'
p4319
I1
sS'sharp'
p4320
I1
sS'strangely.'
p4321
I1
sS'needs'
p4322
I1
sS'albacores,'
p4323
I1
sS'comfort'
p4324
I1
sS'plenty."'
p4325
I1
sS'eat,'
p4326
I1
sS"mustn't."
p4327
I1
sS'painful.'
p4328
I1
sS'blood'
p4329
I4
sS'coming'
p4330
I17
sS'Kelly'
p4331
I2
sS'bloating'
p4332
I1
sS'crowded'
p4333
I1
sS'coat'
p4334
I2
sS'map.'
p4335
I1
sS'eats'
p4336
I1
sS'pay'
p4337
I1
sS'pleasure'
p4338
I1
sS'gesturing,'
p4339
I1
sS'playing'
p4340
I3
sS'need.'
p4341
I1
sS'Cohn,"'
p4342
I1
sS'What'
p4343
I17
sS'rounded'
p4344
I3
sS'straight-moving'
p4345
I1
sS'wall.'
p4346
I1
sS'barefooted.'
p4347
I1
sS'more,'
p4348
I2
sS'through'
p4349
I67
sS'steady,'
p4350
I1
sS'lashings'
p4351
I1
sS'slopped'
p4352
I1
sS'noticing,'
p4353
I1
sS'late'
p4354
I6
sS'good'
p4355
I65
sS'thinking,'
p4356
I1
sS'unrolled'
p4357
I1
sS'trees."'
p4358
I1
sS'noticing'
p4359
I1
sS'walls'
p4360
I2
sS'detach'
p4361
I1
sS'rifle,'
p4362
I7
sS'rifle.'
p4363
I1
sS'easily'
p4364
I1
sS'today,"'
p4365
I2
sS'roadsteads'
p4366
I1
sS'watched,'
p4367
I2
sS'shauri.'
p4368
I1
sS'harm'
p4369
I2
sS'everyone'
p4370
I1
sS'difficult,'
p4371
I1
sS'difficult.'
p4372
I1
sS'house'
p4373
I6
sS'Memsahib."'
p4374
I1
sS'hard'
p4375
I8
sS'idea'
p4376
I5
sS'bull,'
p4377
I1
sS'course,"'
p4378
I1
sS'bull.'
p4379
I2
sS'extended'
p4380
I1
sS'"Age'
p4381
I1
sS'late,'
p4382
I1
sS"vaquero's"
p4383
I2
sS'projected'
p4384
I1
sS"they'll"
p4385
I1
sS'benefit.'
p4386
I1
sS'pleasant'
p4387
I8
sS'water."'
p4388
I1
sS'backed'
p4389
I2
sS'"Hadn\'t'
p4390
I1
sS'El'
p4391
I1
sS'swine,"'
p4392
I1
sS'"You\'d'
p4393
I1
sS'trickle'
p4394
I1
sS'tank,"'
p4395
I3
sS'done'
p4396
I7
sS'trembling.'
p4397
I1
sS'cups'
p4398
I1
sS'divorce'
p4399
I3
sS'least'
p4400
I3
sS'foreign-office'
p4401
I1
sS'happened,"'
p4402
I1
sS'eastward.'
p4403
I1
sS'suppose,'
p4404
I1
sS'eastward,'
p4405
I2
sS'suppose.'
p4406
I1
sS'muscles'
p4407
I3
sS'cup.'
p4408
I1
sS'part'
p4409
I10
sS'favorable'
p4410
I1
sS'believe'
p4411
I6
sS'fold'
p4412
I1
sS'horizons'
p4413
I1
sS'gotten'
p4414
I3
sS'supposed'
p4415
I5
sS'about?"'
p4416
I3
sS'treated'
p4417
I1
sS'service.'
p4418
I1
sS'service,'
p4419
I1
sS'stomach?"'
p4420
I1
sS'gun."'
p4421
I2
sS'depth.'
p4422
I1
sS'creases'
p4423
I1
sS'hot."'
p4424
I1
sS'rush.'
p4425
I2
sS'rush,'
p4426
I1
sS'orders'
p4427
I3
sS'back-swept'
p4428
I1
sS'mountain'
p4429
I1
sS'built'
p4430
I3
sS'dancing'
p4431
I4
sS'"No,'
p4432
I18
sS'"No.'
p4433
I13
sS'drift,'
p4434
I1
sS'rowed'
p4435
I6
sS'"No;'
p4436
I2
sS'murderous.'
p4437
I1
sS'Margot,"'
p4438
I1
sS'eggs'
p4439
I1
sS'salmon'
p4440
I1
sS'medium-sized'
p4441
I1
sS'depths'
p4442
I1
sS'most'
p4443
I11
sS'age,'
p4444
I2
sS'doubted."'
p4445
I1
sS'Hobin."'
p4446
I2
sS'again."'
p4447
I2
sS'croaked.'
p4448
I1
sS'"Nor'
p4449
I3
sS'"Not'
p4450
I12
sS'"Now'
p4451
I3
sS'weigh'
p4452
I1
sS'country."'
p4453
I1
sS'obligations'
p4454
I1
sS'swelling'
p4455
I1
sS'fins'
p4456
I1
sS'carefully'
p4457
I6
sS"man's"
p4458
I13
sS'fine'
p4459
I17
sS'find'
p4460
I13
sS'Poor'
p4461
I4
sS'giant'
p4462
I1
sS'nervous'
p4463
I1
sS'ruin'
p4464
I1
sS'P.L.M.'
p4465
I1
sS'headman'
p4466
I1
sS'dog.'
p4467
I1
sS'express'
p4468
I1
sS'courage'
p4469
I1
sS'breast'
p4470
I3
sS'fish?"'
p4471
I1
sS'forty-five'
p4472
I1
sS'Prentiss.'
p4473
I1
sS'Anyway'
p4474
I1
sS'worrying."'
p4475
I1
sS'That,'
p4476
I1
sS'possible."'
p4477
I1
sS'lion'
p4478
I23
sS'air.'
p4479
I1
sS'snow-capped'
p4480
I1
sS'flattery.'
p4481
I1
sS'hungry.'
p4482
I1
sS'hungry,'
p4483
I1
sS'please'
p4484
I11
sS'myriad'
p4485
I1
sS'burned'
p4486
I1
sS'undefeated.'
p4487
I1
sS'"Nice'
p4488
I1
sS'beads.'
p4489
I1
sS'floats'
p4490
I1
sS'folding'
p4491
I1
sS'lightly.'
p4492
I1
sS'restaurant'
p4493
I2
sS'envelope,'
p4494
I1
sS'envelope.'
p4495
I1
sS"Zelli's."
p4496
I1
sS'occurrences,'
p4497
I1
sS'Yet'
p4498
I2
sS'hard-braided'
p4499
I1
sS'"Well'
p4500
I1
sS'danced'
p4501
I2
sS'supply'
p4502
I1
sS'simple'
p4503
I5
sS'then,"'
p4504
I2
sS'bed?"'
p4505
I1
sS'gypsy'
p4506
I36
sS'acetylene'
p4507
I1
sS'simply'
p4508
I5
sS'expensive'
p4509
I2
sS'faith."'
p4510
I1
sS'raise'
p4511
I2
sS'dropping'
p4512
I2
sS'dolphin."'
p4513
I2
sS'peppers'
p4514
I1
sS'pile'
p4515
I2
sS'Terrace."'
p4516
I1
sS'gay'
p4517
I4
sS'Princeton'
p4518
I2
sS'dance,'
p4519
I2
sS'dance.'
p4520
I2
sS'understand'
p4521
I3
sS'cords.'
p4522
I1
sS'unnecessarily'
p4523
I1
sS'Golz.'
p4524
I2
sS'goats.'
p4525
I1
sS'replaces'
p4526
I1
sS'fur'
p4527
I1
sS'"Good,'
p4528
I2
sS'"Good.'
p4529
I5
sS'solid'
p4530
I6
sS'bill'
p4531
I1
sS'"Roberto,"'
p4532
I1
sS'skiff'
p4533
I13
sS'fun'
p4534
I4
sS'coiled,'
p4535
I1
sS'further,'
p4536
I3
sS'shoddy'
p4537
I1
sS'"He'
p4538
I37
sS'husband.'
p4539
I1
sS'swishing'
p4540
I1
sS'itself'
p4541
I1
sS'rocks,'
p4542
I1
sS'"Barnes,"'
p4543
I1
sS'"Count'
p4544
I1
sS'sun-streaked'
p4545
I1
sS'grunt,'
p4546
I1
sS'grunt.'
p4547
I1
sS'luck,"'
p4548
I1
sS'wine."'
p4549
I2
sS'how.'
p4550
I1
sS'strips'
p4551
I1
sS'green."'
p4552
I1
sS'nerves."'
p4553
I1
sS'Thirty-five'
p4554
I1
sS'on?"'
p4555
I1
sS'timid'
p4556
I1
sS'smoked.'
p4557
I1
sS'spent'
p4558
I2
sS'grunts'
p4559
I1
sS'shootable'
p4560
I1
sS'None.'
p4561
I1
sS'sorry.'
p4562
I1
sS'attacks,"'
p4563
I1
sS'foreigner,'
p4564
I2
sS'guano'
p4565
I2
sS'matter,'
p4566
I1
sS'shape'
p4567
I2
sS'circling'
p4568
I5
sS'irritable'
p4569
I1
sS'matter?'
p4570
I1
sS'timber'
p4571
I2
sS'letting'
p4572
I1
sS'taxi-driver'
p4573
I1
sS'cut'
p4574
I18
sS'count."'
p4575
I1
sS'cup'
p4576
I12
sS'borrow.'
p4577
I2
sS'hated'
p4578
I2
sS'vague'
p4579
I1
sS'follow.'
p4580
I1
sS'hates'
p4581
I1
sS'see?"'
p4582
I2
sS'big'
p4583
I43
sS'trotted,'
p4584
I1
sS'saluted'
p4585
I1
sS'masculine.'
p4586
I1
sS'bit'
p4587
I3
sS'salutes'
p4588
I1
sS'knock'
p4589
I1
sS'rides'
p4590
I1
sS'"There'
p4591
I21
sS'indication'
p4592
I1
sS'jolted'
p4593
I1
sS'bamboo'
p4594
I1
sS'"Albacore,"'
p4595
I1
sS'paused.'
p4596
I1
sS'often'
p4597
I3
sS'Gulf'
p4598
I3
sS'absolutely'
p4599
I3
sS'back'
p4600
I74
sS'mirror'
p4601
I1
sS'ourselves'
p4602
I1
sS'pronounced'
p4603
I1
sS'"None,"'
p4604
I1
sS'affects'
p4605
I1
sS'Brett'
p4606
I34
sS'galloped'
p4607
I3
sS'Nothing'
p4608
I5
sS'pile.'
p4609
I1
sS'good,'
p4610
I3
sS'good.'
p4611
I3
sS'either'
p4612
I2
sS'remembered'
p4613
I6
sS'"Here,"'
p4614
I1
sS'mill?"'
p4615
I1
sS'fed'
p4616
I2
sS'brain?'
p4617
I1
sS'Madeleine,'
p4618
I1
sS'flanks'
p4619
I1
sS'from'
p4620
I126
sS'piled'
p4621
I2
sS'beans'
p4622
I1
sS'Mouffetard.'
p4623
I1
sS'today."'
p4624
I1
sS'there?"'
p4625
I1
sS'boy"'
p4626
I1
sS'top-boots,'
p4627
I1
sS'boy.'
p4628
I6
sS'these?"'
p4629
I1
sS'boy,'
p4630
I5
sS'caf\xe9'
p4631
I3
sS'downhill'
p4632
I1
sS'manque'
p4633
I1
sS'forward'
p4634
I13
sS'bored'
p4635
I3
sS'Come'
p4636
I2
sS'boy."'
p4637
I1
sS'"Who\'s'
p4638
I1
sS'hoped'
p4639
I5
sS'boys'
p4640
I5
sS'replaced.'
p4641
I1
sS"I'll"
p4642
I17
sS'visible.'
p4643
I1
sS'course."'
p4644
I1
sS'darkness;'
p4645
I1
sS'Lewis'
p4646
I1
sS'possession'
p4647
I1
sS'Perhaps'
p4648
I6
sS'Sargasso'
p4649
I1
sS'singly'
p4650
I1
sS'deprive'
p4651
I1
sS'single'
p4652
I1
sS'cure'
p4653
I1
sS'curl'
p4654
I1
sS'cafe'
p4655
I4
sS'Versailles'
p4656
I1
sS'Valladolid.'
p4657
I2
sS'May'
p4658
I1
sS'beers."'
p4659
I1
sS'ugly.'
p4660
I1
sS'ugly,'
p4661
I1
sS'Montparnasse'
p4662
I3
sS'explaining'
p4663
I1
sS'accidental'
p4664
I1
sS'neck.'
p4665
I1
sS'neck,'
p4666
I2
sS'papa'
p4667
I1
sS'bag."'
p4668
I1
sS'Jota'
p4669
I1
sS'Undressing,'
p4670
I1
sS'tossing,'
p4671
I1
sS'strolled'
p4672
I1
sS'cooked'
p4673
I1
sS'roping'
p4674
I1
sS'evenly.'
p4675
I1
sS'happy,'
p4676
I2
sS'happy.'
p4677
I3
sS'gun,"'
p4678
I1
sS'Saint'
p4679
I1
sS'hot,"'
p4680
I1
sS'soul."'
p4681
I1
sS'Gonzalez?"'
p4682
I1
sS'he?"'
p4683
I2
sS'Means'
p4684
I1
sS'sunrise.'
p4685
I1
sS'literary'
p4686
I2
sS'"Why,'
p4687
I2
sS'chaps'
p4688
I1
sS'helps'
p4689
I1
sS'"Look'
p4690
I2
sS"Aren't"
p4691
I3
sS'sad-looking,'
p4692
I1
sS'with?"'
p4693
I1
sS'gray,'
p4694
I1
sS'sensibly!"'
p4695
I1
sS'Francis,"'
p4696
I1
sS'putting'
p4697
I7
sS'coagulated'
p4698
I1
sS'skinful,'
p4699
I1
sS'skinful.'
p4700
I1
sS'entire'
p4701
I1
sS'chap.'
p4702
I1
sS'chap,'
p4703
I1
sS'rabbit,"'
p4704
I1
sS'crew-cropped'
p4705
I1
sS'humility.'
p4706
I1
sS"tuna's"
p4707
I1
sS'safe,'
p4708
I1
sS'beast?'
p4709
I1
sS'other,'
p4710
I1
sS'other.'
p4711
I3
sS'object,'
p4712
I2
sS'grooved'
p4713
I1
sS'Montparnasse."'
p4714
I1
sS'giving'
p4715
I2
sS'comes."'
p4716
I1
sS'body'
p4717
I2
sS'lovely?'
p4718
I2
sS'river,'
p4719
I2
sS'river.'
p4720
I1
sS'demonstration.'
p4721
I1
sS'unhappy."'
p4722
I1
sS'others'
p4723
I4
sS'brandy,"'
p4724
I1
sS'imperfections'
p4725
I1
sS'lovely.'
p4726
I2
sS'record?"'
p4727
I1
sS'stayed.'
p4728
I1
sS'drank'
p4729
I12
sS'below?"'
p4730
I1
sS'eating.'
p4731
I1
sS'Swahili.'
p4732
I1
sS'Big'
p4733
I1
sS'added,'
p4734
I1
sS'climb'
p4735
I4
sS'"Boulevard'
p4736
I1
sS'armour-plating,'
p4737
I1
sS'sentry."'
p4738
I2
sS'names'
p4739
I2
sS'Answer'
p4740
I1
sS'Belfort'
p4741
I1
sS'"Maria.'
p4742
I1
sS'lime'
p4743
I2
sS'flies.'
p4744
I1
sS'tar'
p4745
I1
sS'Robert,"'
p4746
I3
sS'Statue'
p4747
I1
sS'themselves'
p4748
I2
sS'ordering,'
p4749
I1
sS'"Drink,"'
p4750
I1
sS'name.'
p4751
I4
sS'name,'
p4752
I2
sS'trail'
p4753
I2
sS'train'
p4754
I9
sS'ashamed'
p4755
I1
sS'carries.'
p4756
I1
sS'arranging'
p4757
I1
sS'half.'
p4758
I1
sS'infantry'
p4759
I1
sS'"Were'
p4760
I1
sS'water,'
p4761
I4
sS'water.'
p4762
I10
sS'bones'
p4763
I2
sS'drink?"'
p4764
I3
sS'"Remember'
p4765
I1
sS'contempt'
p4766
I1
sS'native'
p4767
I3
sS'practical'
p4768
I1
sS'line;'
p4769
I1
sS'lame'
p4770
I1
sS'boxing'
p4771
I4
sS'line.'
p4772
I4
sS'lamp'
p4773
I1
sS'race-conscious.'
p4774
I1
sS'forest'
p4775
I4
sS'stock'
p4776
I1
sS'hills,"'
p4777
I1
sS'Durocher'
p4778
I1
sS'bone.'
p4779
I1
sS'bone,'
p4780
I1
sS'England.'
p4781
I2
sS'good,"'
p4782
I2
sS'gone.'
p4783
I5
sS'gone,'
p4784
I2
sS'lines'
p4785
I18
sS'trembling'
p4786
I2
sS'out.'
p4787
I10
sS'furious'
p4788
I1
sS'bins'
p4789
I1
sS'Brooklyn.'
p4790
I1
sS'$2432.60.'
p4791
I1
sS'frying'
p4792
I1
sS'thyself'
p4793
I1
sS'horny'
p4794
I1
sS'bridges'
p4795
I3
sS'revived'
p4796
I1
sS'du'
p4797
I1
sS'la'
p4798
I4
sS'me?"'
p4799
I9
sS'willing'
p4800
I3
sS'mean."'
p4801
I1
sS'"Could'
p4802
I2
sS'using.'
p4803
I1
sS'stopped,'
p4804
I1
sS'stopped.'
p4805
I2
sS'junction'
p4806
I2
sS'greater'
p4807
I1
sS'dam'
p4808
I1
sS'worry,"'
p4809
I1
sS'cutting'
p4810
I2
sS'rice,'
p4811
I1
sS'kindness'
p4812
I1
sS'day'
p4813
I17
sS'forgotten.'
p4814
I1
sS'sky.'
p4815
I1
sS'slipping'
p4816
I1
sS'speech.'
p4817
I1
sS'bridge.'
p4818
I6
sS'bridge,'
p4819
I3
sS'thwart'
p4820
I2
sS'some."'
p4821
I1
sS'winked'
p4822
I2
sS'most.'
p4823
I1
sS'die."'
p4824
I1
sS'age."'
p4825
I1
sS'Americans."'
p4826
I1
sS'"Every'
p4827
I2
sS"don't."
p4828
I1
sS'minutes,"'
p4829
I1
sS'red'
p4830
I11
sS'trip.'
p4831
I1
sS'"Sixty-eight'
p4832
I1
sS'frank'
p4833
I1
sS'afterward'
p4834
I1
sS'dirty."'
p4835
I2
sS'"Stop,"'
p4836
I1
sS'yard'
p4837
I2
sS'steam'
p4838
I1
sS'Pantheon'
p4839
I2
sS'unrolling'
p4840
I1
sS'baseball,"'
p4841
I1
sS'scalding'
p4842
I1
sS'eighty-five?"'
p4843
I1
sS'day?"'
p4844
I1
sS'braced'
p4845
I1
sS'fleshed'
p4846
I1
sS'sack'
p4847
I3
sS'embarrassed'
p4848
I1
sS'reached'
p4849
I9
sS'reliable'
p4850
I1
sS'reread'
p4851
I1
sS'sadly'
p4852
I1
sS'Coast'
p4853
I1
sS'rippled'
p4854
I1
sS'flume'
p4855
I1
sS'gear'
p4856
I4
sS'else."'
p4857
I2
sS'nobody'
p4858
I1
sS'"See'
p4859
I3
sS'foamy'
p4860
I1
sS'Cannes'
p4861
I1
sS'Reds'
p4862
I1
sS'loved'
p4863
I8
sS'counteract'
p4864
I1
sS'pot.'
p4865
I1
sS'calamity'
p4866
I1
sS'town.'
p4867
I3
sS'Avila.'
p4868
I1
sS'erosions'
p4869
I1
sS'mast.'
p4870
I1
sS'comfortable'
p4871
I2
sS'waked'
p4872
I1
sS'"It\'s'
p4873
I29
sS'"Francis'
p4874
I1
sS'throat'
p4875
I4
sS'curved'
p4876
I2
sS'waken'
p4877
I2
sS'apparently'
p4878
I1
sS'plank,'
p4879
I1
sS'corporal."'
p4880
I1
sS'Pushing'
p4881
I1
sS'pectoral'
p4882
I1
sS'going?"'
p4883
I4
sS'Santa'
p4884
I1
sS'looking,'
p4885
I1
sS'unavoidable.'
p4886
I1
sS'looking.'
p4887
I1
sS'unless'
p4888
I2
sS"patronne's"
p4889
I2
sS'Francis?"'
p4890
I2
sS'business.'
p4891
I5
sS'business,'
p4892
I1
sS'masts'
p4893
I1
sS'hare.'
p4894
I1
sS'lions?'
p4895
I1
sS'Some'
p4896
I6
sS'birching'
p4897
I1
sS'try,"'
p4898
I1
sS'saying.'
p4899
I1
sS'planks'
p4900
I1
sS'saying,'
p4901
I1
sS'look."'
p4902
I1
sS'looking."'
p4903
I1
sS'waiting?"'
p4904
I1
sS'sell-out.'
p4905
I1
sS'staff'
p4906
I1
sS'grabbed'
p4907
I1
sS'knowledge'
p4908
I1
sS'land,'
p4909
I1
sS'pass."'
p4910
I2
sS'belt?"'
p4911
I1
sS'windy,'
p4912
I1
sS'team,'
p4913
I1
sS'unable'
p4914
I1
sS'prejudice'
p4915
I1
sS'Jacob'
p4916
I1
sS'fumbled'
p4917
I1
sS'discovers'
p4918
I1
sS'regularly'
p4919
I1
sS'pull'
p4920
I9
sS'beat'
p4921
I3
sS'Napolitain'
p4922
I1
sS'stripes'
p4923
I1
sS'Deserves'
p4924
I1
sS'bead'
p4925
I4
sS'anything.'
p4926
I5
sS'anything,'
p4927
I2
sS'tightening'
p4928
I1
sS'months?"'
p4929
I1
sS'fibered'
p4930
I1
sS'"Chances'
p4931
I1
sS'clearing'
p4932
I4
sS'progress'
p4933
I1
sS'Manolin,"'
p4934
I1
sS'thumbnail'
p4935
I1
sS'while."'
p4936
I1
sS'girl."'
p4937
I1
sS'S'
I1
sS'Islands'
p4938
I1
sS'gimlet'
p4939
I1
sS'"Think'
p4940
I1
sS'joke'
p4941
I3
sS'taking'
p4942
I7
sS'boulders'
p4943
I2
sS'"Would'
p4944
I6
sS'Yes,"'
p4945
I1
sS'swallow'
p4946
I2
sS'gypsies."'
p4947
I2
sS'"Do'
p4948
I24
sS'Odile,'
p4949
I1
sS'teasing'
p4950
I1
sS'Luxembourg'
p4951
I1
sS'harpoon'
p4952
I5
sS'done.'
p4953
I3
sS'mauled."'
p4954
I1
sS"it's"
p4955
I18
sS'muddy'
p4956
I1
sS'Brooklyn'
p4957
I1
sS'permanent'
p4958
I1
sS"lady's"
p4959
I1
sS'curtain'
p4960
I1
sS'is,"'
p4961
I3
sS'home.'
p4962
I4
sS'phosphorescent'
p4963
I1
sS"is,'"
p4964
I1
sS'cop'
p4965
I1
sS'gorge-"'
p4966
I1
sS'ridden'
p4967
I1
sS'finished'
p4968
I3
sS'bull'
p4969
I8
sS'half-mocking'
p4970
I1
sS'rash.".'
p4971
I1
sS'composure.'
p4972
I1
sS'"Might'
p4973
I1
sS'value'
p4974
I1
sS'General'
p4975
I3
sS'bulls,"'
p4976
I1
sS'almost'
p4977
I23
sS'"No?"'
p4978
I1
sS'started.'
p4979
I3
sS'happened.'
p4980
I3
sS'respected'
p4981
I2
sS'novel,'
p4982
I2
sS'novel.'
p4983
I1
sS'"Probably.'
p4984
I1
sS'stream."'
p4985
I1
sS'strength."'
p4986
I1
sS'though,'
p4987
I4
sS'though.'
p4988
I4
sS'slammed'
p4989
I1
sS'behaving?"'
p4990
I1
sS'bands.'
p4991
I1
sS'breech'
p4992
I1
sS'judgment'
p4993
I1
sS'bloom.'
p4994
I1
sS'bull-fight'
p4995
I1
sS'flojo,"'
p4996
I1
sS'thought'
p4997
I20
sS'sets'
p4998
I2
sS'position'
p4999
I2
sS'domestic'
p5000
I1
sS'stored'
p5001
I1
sS'tone'
p5002
I1
sS'fishing,"'
p5003
I1
sS'raised.'
p5004
I1
sS'work.'
p5005
I6
sS'shoes.'
p5006
I1
sS'shoes,'
p5007
I1
sS'bridge-blower'
p5008
I1
sS'"Agua'
p5009
I1
sS'bench'
p5010
I1
sS'add'
p5011
I2
sS'ought'
p5012
I4
sS'Castilian'
p5013
I1
sS'seat,'
p5014
I2
sS'seat.'
p5015
I2
sS'hills."'
p5016
I1
sS'like'
p5017
I111
sS'crawled'
p5018
I1
sS'expensive."'
p5019
I1
sS'chick'
p5020
I1
sS'soft'
p5021
I1
sS'simple,'
p5022
I1
sS'eighty-five?'
p5023
I1
sS'authority'
p5024
I1
sS'hair'
p5025
I8
sS'proper'
p5026
I2
sS'happens'
p5027
I5
sS'bananas,'
p5028
I1
sS"turtle's"
p5029
I1
sS'screwed'
p5030
I1
sS'board,'
p5031
I2
sS'"Two,"'
p5032
I2
sS'politely.'
p5033
I1
sS'thinly'
p5034
I1
sS'noise'
p5035
I5
sS'slight'
p5036
I3
sS'stuff.'
p5037
I1
sS'"Good,"'
p5038
I4
sS'oiled'
p5039
I1
sS'although'
p5040
I6
sS'snapped'
p5041
I1
sS'noisy'
p5042
I1
sS'chain.'
p5043
I1
sS'about'
p5044
I114
sS'actual'
p5045
I1
sS'boards'
p5046
I1
sS'morning."'
p5047
I2
sS'hot'
p5048
I14
sS'avoided.'
p5049
I1
sS'"Yes,"'
p5050
I18
sS'beaters?"'
p5051
I1
sS'introduced'
p5052
I3
sS'happen.'
p5053
I1
sS'Two'
p5054
I2
sS'thousand."'
p5055
I1
sS'die,"'
p5056
I1
sS'guard'
p5057
I4
sS'manner,"'
p5058
I1
sS'female'
p5059
I3
sS'aloud,'
p5060
I3
sS'aloud.'
p5061
I8
sS'adolescent'
p5062
I1
sS'vegetables'
p5063
I1
sS'"Cheer'
p5064
I1
sS'mist,'
p5065
I1
sS'minutes."'
p5066
I1
sS'biggest'
p5067
I1
sS'love-making,'
p5068
I1
sS'"We\'ll'
p5069
I7
sS'bus'
p5070
I2
sS'Pablo."'
p5071
I3
sS'but'
p5072
I74
sS'children,'
p5073
I1
sS'mountains?"'
p5074
I1
sS'wise'
p5075
I1
sS'Wall'
p5076
I1
sS'dangerous'
p5077
I1
sS'minutes'
p5078
I3
sS'trying.'
p5079
I1
sS'rabbits'
p5080
I1
sS'pin'
p5081
I1
sS'garter'
p5082
I1
sS'recounts'
p5083
I1
sS'camp."'
p5084
I1
sS'families'
p5085
I1
sS'shooting'
p5086
I1
sS'redder'
p5087
I1
sS'dressed'
p5088
I4
sS'oak'
p5089
I1
sS'wondered.'
p5090
I1
sS"d'Orsay"
p5091
I2
sS'Street'
p5092
I2
sS'ledge'
p5093
I2
sS'Tempt'
p5094
I1
sS'granite'
p5095
I2
sS'anyhow.'
p5096
I1
sS'suffering.'
p5097
I1
sS'tarpaulin.'
p5098
I1
sS'"Have'
p5099
I7
sS'Real.'
p5100
I1
sS'driver.'
p5101
I1
sS"d'oeuvres"
p5102
I1
sS'fever."'
p5103
I1
sS'galloping'
p5104
I1
sS"Lavigne's"
p5105
I1
sS'death.'
p5106
I1
sS'understand!"'
p5107
I1
sS'ours."'
p5108
I1
sS'"Thanks'
p5109
I1
sS'Darkest'
p5110
I1
sS'baked'
p5111
I3
sS'news,'
p5112
I1
sS'ever,'
p5113
I2
sS'Lead'
p5114
I1
sS'comparatively'
p5115
I1
sS"daughter's"
p5116
I1
sS'bowl,"'
p5117
I1
sS'sleep'
p5118
I3
sS"Braddocks's"
p5119
I1
sS'bored."'
p5120
I1
sS'hate'
p5121
I2
sS'admiration.'
p5122
I1
sS'inch.'
p5123
I1
sS'muzzle'
p5124
I1
sS'patches'
p5125
I2
sS'patched'
p5126
I2
sS'under'
p5127
I28
sS'stationery'
p5128
I1
sS'G.'
p5129
I1
sS'tweed'
p5130
I1
sS'Stone.'
p5131
I1
sS'Shoot'
p5132
I1
sS'"Shut'
p5133
I2
sS'now,"'
p5134
I7
sS'every'
p5135
I10
sS'jack'
p5136
I1
sS'east.'
p5137
I1
sS'hat.'
p5138
I2
sS"Everything's"
p5139
I1
sS'summertime."'
p5140
I1
sS'school'
p5141
I4
sS'dancingclub.'
p5142
I1
sS'problems.'
p5143
I1
sS'expenses,'
p5144
I1
sS'relics'
p5145
I1
sS'Go'
p5146
I3
sS'"don\'t'
p5147
I1
sS'enjoy'
p5148
I2
sS'bicycle'
p5149
I1
sS'shoulders.'
p5150
I4
sS'shoulders,'
p5151
I2
sS'direct'
p5152
I1
sS'hundred.'
p5153
I2
sS'street'
p5154
I11
sS'emptiness'
p5155
I1
sS'flat-topped'
p5156
I1
sS'blue'
p5157
I9
sS'change.'
p5158
I1
sS'hide'
p5159
I4
sS'records,'
p5160
I1
sS'solemn'
p5161
I1
sS'absinthe.'
p5162
I1
sS'poison'
p5163
I2
sS'favours,'
p5164
I1
sS'pack,"'
p5165
I2
sS'leave.'
p5166
I1
sS'kicked'
p5167
I5
sS'half-past'
p5168
I1
sS'can,"'
p5169
I1
sS'leader,'
p5170
I1
sS'through,'
p5171
I2
sS'through.'
p5172
I1
sS'thin-lipped,'
p5173
I1
sS'worse.'
p5174
I1
sS'leaves'
p5175
I5
sS'changed'
p5176
I3
sS'settled'
p5177
I4
sS'"Now!"'
p5178
I1
sS'Mike?"'
p5179
I1
sS'weigh?"'
p5180
I1
sS'stray'
p5181
I1
sS'straw'
p5182
I1
sS'"During'
p5183
I1
sS'strap'
p5184
I1
sS'would'
p5185
I109
sS'"Eat'
p5186
I2
sS'hospital'
p5187
I2
sS'tail'
p5188
I3
sS'arc-light.'
p5189
I1
sS'Across,'
p5190
I1
sS'used.'
p5191
I1
sS'cars,"'
p5192
I1
sS'off?'
p5193
I1
sS'feeling,'
p5194
I1
sS'excellent'
p5195
I2
sS'off,'
p5196
I2
sS'must'
p5197
I54
sS'me'
p5198
I84
sS'join'
p5199
I2
sS'raid.'
p5200
I1
sS'girls.'
p5201
I1
sS'car-tracks'
p5202
I1
sS'my'
p5203
I68
sS'shook'
p5204
I8
sS'loosen'
p5205
I1
sS'Maria,'
p5206
I1
sS'Maria.'
p5207
I1
sS'"Bad'
p5208
I1
sS'"Be'
p5209
I1
sS'dolphin'
p5210
I2
sS'"By'
p5211
I1
sS'mouth,'
p5212
I2
sS'not."'
p5213
I2
sS'mouth.'
p5214
I4
sS'guarantee'
p5215
I4
sS'end'
p5216
I12
sS'sitting'
p5217
I17
sS'Jordan'
p5218
I80
sS'basis\x97what'
p5219
I1
sS'widespread'
p5220
I1
sS'oldest.'
p5221
I1
sS'badly'
p5222
I2
sS'it!"'
p5223
I1
sS'description'
p5224
I1
sS'heaviness,'
p5225
I1
sS'mess'
p5226
I1
sS'Others,'
p5227
I1
sS'jumping'
p5228
I6
sS'Owns'
p5229
I1
sS'"Nothing."'
p5230
I2
sS'splendid'
p5231
I1
sS'spout'
p5232
I2
sS'enter'
p5233
I1
sS'aloud'
p5234
I4
sS'Beyond'
p5235
I1
sS'Englishman)'
p5236
I1
sS'over'
p5237
I80
sS'Englishman"'
p5238
I1
sS'terns'
p5239
I1
sS'forehead'
p5240
I2
sS'Il'
p5241
I1
sS'Here'
p5242
I5
sS'writing'
p5243
I1
sS'destroyed'
p5244
I1
sS'trams'
p5245
I2
sS'glanced'
p5246
I1
sS'line."'
p5247
I1
sS'Segovia.'
p5248
I1
sS'Spain'
p5249
I2
sS"roadmender's"
p5250
I1
sS'plaster'
p5251
I1
sS'trams.'
p5252
I1
sS'woman."'
p5253
I2
sS'carefully,'
p5254
I1
sS'carefully.'
p5255
I1
sS'several'
p5256
I6
sS'whip.'
p5257
I1
sS'swaying'
p5258
I1
sS'chuck'
p5259
I1
sS'expectation.'
p5260
I1
sS'filling'
p5261
I2
sS'"Tell'
p5262
I5
sS'each'
p5263
I22
sS'entrance.'
p5264
I1
sS'steep.'
p5265
I1
sS'day?'
p5266
I1
sS'driving'
p5267
I4
sS'haired'
p5268
I1
sS'constructions.'
p5269
I1
sS'washed'
p5270
I1
sS'day.'
p5271
I4
sS'connections,'
p5272
I1
sS'laid'
p5273
I1
sS'trip?"'
p5274
I1
sS'got'
p5275
I46
sS'newly'
p5276
I1
sS'twenty-five'
p5277
I1
sS'plunging,'
p5278
I1
sS'free'
p5279
I1
sS'formation'
p5280
I1
sS'wanted'
p5281
I17
sS'go,'
p5282
I1
sS'go.'
p5283
I6
sS'of."'
p5284
I1
sS'days'
p5285
I8
sS'go?'
p5286
I1
sS'soda'
p5287
I2
sS'onto'
p5288
I12
sS'already'
p5289
I3
sS'too.'
p5290
I12
sS'too,'
p5291
I6
sS'hearing'
p5292
I2
sS'huh?"'
p5293
I1
sS'friends."'
p5294
I1
sS'bandaged'
p5295
I1
sS'curtain.'
p5296
I4
sS'curtain,'
p5297
I2
sS'portable'
p5298
I1
sS'top'
p5299
I5
sS'licorice'
p5300
I1
sS'gimlets."'
p5301
I1
sS'fiction'
p5302
I2
sS'too'
p5303
I54
sS'wildly'
p5304
I2
sS'scream,"'
p5305
I1
sS'toe'
p5306
I1
sS'curtains'
p5307
I1
sS'salting.'
p5308
I1
sS'States.'
p5309
I1
sS'serve'
p5310
I1
sS'took'
p5311
I35
sS'hour.'
p5312
I2
sS'Could'
p5313
I1
sS'brushed'
p5314
I1
sS'to?'
p5315
I1
sS'to.'
p5316
I6
sS'to,'
p5317
I1
sS'"Yes."'
p5318
I9
sS'bridge'
p5319
I15
sS'toros.'
p5320
I1
sS'that?"'
p5321
I2
sS'ran'
p5322
I10
sS'ram'
p5323
I1
sS'talking'
p5324
I15
sS'car'
p5325
I25
sS'thoroughly'
p5326
I2
sS'snow'
p5327
I1
sS'elegance'
p5328
I1
sS"Let's"
p5329
I3
sS'laughed'
p5330
I2
sS'hour."'
p5331
I1
sS'though'
p5332
I22
sS'American."'
p5333
I1
sS'Pablo,"'
p5334
I2
sS'deserted.'
p5335
I2
sS'sinister.'
p5336
I1
sS'plenty'
p5337
I5
sS'coil'
p5338
I1
sS'"Around'
p5339
I1
sS'glow'
p5340
I2
sS'ride,'
p5341
I1
sS'her."'
p5342
I6
sS'treats'
p5343
I1
sS'metal'
p5344
I1
sS'manner."'
p5345
I1
sS'Want'
p5346
I1
sS'Rafael.'
p5347
I1
sS'bait'
p5348
I14
sS'labels'
p5349
I1
sS'novelist.'
p5350
I1
sS'Sacred'
p5351
I1
sS'earth'
p5352
I2
sS'bridge."'
p5353
I4
sS'"Hell,"'
p5354
I1
sS'carbine'
p5355
I6
sS'bitter."'
p5356
I1
sS'nervous.'
p5357
I1
sS'"Love'
p5358
I1
sS'God,"'
p5359
I3
sS'everywhere."'
p5360
I1
sS'Bad'
p5361
I1
sS'tropic'
p5362
I1
sS'Rivoli,'
p5363
I1
sS'"You'
p5364
I66
sS'watch'
p5365
I3
sS'blinking'
p5366
I1
sS'color.'
p5367
I1
sS'"Doesn\'t'
p5368
I1
sS'wedding'
p5369
I1
sS'Jig,"'
p5370
I1
sS'undressed'
p5371
I1
sS'about.'
p5372
I1
sS'about,'
p5373
I1
sS'beads'
p5374
I1
sS'countries'
p5375
I1
sS'rowing'
p5376
I2
sS'twice'
p5377
I2
sS'Moors'
p5378
I1
sS'shots'
p5379
I1
sS'automatic'
p5380
I2
sS'new,'
p5381
I2
sS'shops,'
p5382
I2
sS'disturbing'
p5383
I1
sS'Quevedo.'
p5384
I1
sS'jerseys'
p5385
I1
sS'face,'
p5386
I6
sS'face.'
p5387
I5
sS'game,'
p5388
I1
sS'muy'
p5389
I1
sS'mud'
p5390
I1
sS'finger'
p5391
I3
sS"name's"
p5392
I1
sS'now.I'
p5393
I1
sS'discovery'
p5394
I1
sS'jersey.'
p5395
I1
sS'I,"'
p5396
I3
sS'impala,'
p5397
I1
sS'shifts.'
p5398
I1
sS'boss'
p5399
I2
sS'now."'
p5400
I9
sS'news'
p5401
I1
sS'sipped'
p5402
I2
sS'bar-room,'
p5403
I1
sS'Herald'
p5404
I1
sS'generals."'
p5405
I1
sS'irregular'
p5406
I3
sS'Chances'
p5407
I1
sS'jelly'
p5408
I1
sS'games'
p5409
I1
sS'want?"'
p5410
I1
sS'lenses'
p5411
I1
sS'"any'
p5412
I1
sS'"and'
p5413
I1
sS'"Wine?'
p5414
I1
sS'trust'
p5415
I2
sS'Hatuey'
p5416
I1
sS'ropes'
p5417
I1
sS'been'
p5418
I76
sS'quickly'
p5419
I3
sS'confident'
p5420
I2
sS'beer'
p5421
I7
sS'cognac'
p5422
I1
sS'deep.'
p5423
I1
sS'deep,'
p5424
I1
sS'expected'
p5425
I2
sS'pack."'
p5426
I1
sS"Wasn't"
p5427
I1
sS'towel.'
p5428
I1
sS'bladder'
p5429
I1
sS'catch'
p5430
I4
sS'sweetshops'
p5431
I1
sS'joke,"'
p5432
I1
sS'think,"'
p5433
I2
sS'lesser'
p5434
I1
sS'carawong!'
p5435
I2
sS'working.'
p5436
I1
sS'working,'
p5437
I1
sS'planking'
p5438
I1
sS'"A'
p5439
I8
sS'swale'
p5440
I1
sS'furled'
p5441
I2
sS'wound'
p5442
I3
sS'"I'
p5443
I197
sS'hated,'
p5444
I1
sS'beside'
p5445
I14
sS'thecounter'
p5446
I1
sS'embarrassment,'
p5447
I1
sS'"Hot,'
p5448
I1
sS'worry.'
p5449
I1
sS'money."'
p5450
I3
sS'peaks'
p5451
I1
sS'pick'
p5452
I9
sS'purple.'
p5453
I1
sS'got?"'
p5454
I2
sS'insisted'
p5455
I2
sS"mother's"
p5456
I1
sS'possessed'
p5457
I1
sS'ocean'
p5458
I4
sS'boxer'
p5459
I1
sS'greatest'
p5460
I2
sS'mother'
p5461
I3
sS'"Fear'
p5462
I1
sS'leagues'
p5463
I1
sS'afraid,'
p5464
I3
sS'afraid.'
p5465
I3
sS'break.'
p5466
I2
sS'best."'
p5467
I2
sS'scattering'
p5468
I1
sS'bad?"'
p5469
I1
sS'vibration'
p5470
I1
sS'office.'
p5471
I5
sS'office,'
p5472
I1
sS'pitiful'
p5473
I1
sS'foot,'
p5474
I2
sS'gave'
p5475
I10
sS'bands'
p5476
I1
sS'breaks'
p5477
I1
sS'Krum'
p5478
I2
sS'"Nothing,"'
p5479
I5
sS'hooked.'
p5480
I1
sS'burns'
p5481
I1
sS'league,'
p5482
I1
sS'apart'
p5483
I3
sS'Heart'
p5484
I1
sS'hunt'
p5485
I6
sS'any,'
p5486
I1
sS'mosquito'
p5487
I2
sS'hung'
p5488
I6
sS'missed,'
p5489
I1
sS'lamp.'
p5490
I1
sS'watching.'
p5491
I1
sS'Dome.'
p5492
I1
sS'"Leave'
p5493
I4
sS'Dome,'
p5494
I1
sS'contests'
p5495
I1
sS'rapidity'
p5496
I1
sS'gait;'
p5497
I1
sS'Sisler'
p5498
I1
sS'ice'
p5499
I3
sS'rhino'
p5500
I1
sS'everything'
p5501
I12
sS'attack.'
p5502
I1
sS'self-consciousness'
p5503
I1
sS'niece."'
p5504
I1
sS'He'
p5505
I246
sS'cord'
p5506
I1
sS'Braddock'
p5507
I1
sS'khaki'
p5508
I1
sS'cruelty.'
p5509
I1
sS'place."'
p5510
I1
sS'two,"'
p5511
I1
sS'box-bodied'
p5512
I1
sS'engaged'
p5513
I1
sS'hill,'
p5514
I1
sS'Nay.'
p5515
I1
sS'man?"'
p5516
I1
sS'attacks'
p5517
I1
sS'little,"'
p5518
I3
sS'plunging'
p5519
I2
sS'artists."'
p5520
I1
sS'dinner'
p5521
I3
sS'coiled'
p5522
I3
sS'quite.'
p5523
I1
sS'steadily'
p5524
I12
sS'twitch'
p5525
I1
sS'Kelly.'
p5526
I1
sS'dirt?"'
p5527
I1
sS'civil'
p5528
I1
sS'accommodate'
p5529
I1
sS'difference,'
p5530
I1
sS'difference.'
p5531
I4
sS'rounds'
p5532
I1
sS"Haven't"
p5533
I1
sS'sunlight'
p5534
I3
sS'why'
p5535
I8
sS'Break'
p5536
I1
sS'striding'
p5537
I1
sS'stew."'
p5538
I1
sS'towing'
p5539
I2
sS'round.'
p5540
I1
sS'stuff."'
p5541
I2
sS'head'
p5542
I38
sS'"Had'
p5543
I1
sS'Sundays'
p5544
I1
sS'hell."'
p5545
I4
sS'hear'
p5546
I13
sS'river."'
p5547
I1
sS'removed'
p5548
I1
sS'nodded'
p5549
I2
sS'hands.'
p5550
I3
sS'cylinders'
p5551
I1
sS"o'clock."
p5552
I1
sS'impossible."'
p5553
I1
sS'so?"'
p5554
I2
sS'more'
p5555
I48
sS'brightly'
p5556
I1
sS'clubbing.'
p5557
I1
sS'"Simply'
p5558
I1
sS'saddles,'
p5559
I2
sS'cobbles'
p5560
I1
sS'saddles.'
p5561
I2
sS'door'
p5562
I10
sS'trip'
p5563
I4
sS'looked'
p5564
I104
sS'outstretched'
p5565
I1
sS'no'
p5566
I76
sS'minute."'
p5567
I1
sS'"Carries'
p5568
I1
sS'when'
p5569
I104
sS'men-of-war'
p5570
I1
sS'papers'
p5571
I3
sS'belongs.'
p5572
I1
sS'picture'
p5573
I2
sS'football'
p5574
I1
sS'dark,'
p5575
I6
sS'dark.'
p5576
I3
sS'night?"'
p5577
I2
sS'duck-shooting,'
p5578
I1
sS'younger'
p5579
I3
sS'apologizing'
p5580
I1
sS'longer'
p5581
I4
sS'bullet'
p5582
I5
sS'sacks'
p5583
I4
sS'paper.'
p5584
I1
sS'fines."'
p5585
I1
sS'serious'
p5586
I6
sS'eat?"'
p5587
I5
sS'tank.'
p5588
I1
sS'gypsy,"'
p5589
I1
sS'remarkably'
p5590
I1
sS'rot'
p5591
I1
sS'Today'
p5592
I2
sS'row'
p5593
I5
sS'charge'
p5594
I1
sS'weakening'
p5595
I1
sS'Let'
p5596
I5
sS'slowly,'
p5597
I1
sS'slowly.'
p5598
I1
sS'advantage'
p5599
I1
sS'exalted'
p5600
I1
sS'Anything.'
p5601
I1
sS'responsibility.'
p5602
I1
sS'tanks'
p5603
I1
sS'cook'
p5604
I2
sS'emphasized'
p5605
I1
sS'cool'
p5606
I3
sS'scars.'
p5607
I1
sS'clouds'
p5608
I4
sS'impressive'
p5609
I1
sS'level'
p5610
I1
sS'cordially.'
p5611
I1
sS'her,"'
p5612
I3
sS'standards'
p5613
I4
sS'guide."'
p5614
I1
sS'quick'
p5615
I2
sS'red-faced'
p5616
I4
sS'says'
p5617
I4
sS'pearl?"'
p5618
I1
sS'swayingly'
p5619
I1
sS'dried'
p5620
I2
sS'hair.'
p5621
I1
sS'drinks'
p5622
I3
sS'distaste'
p5623
I1
sS'slow,'
p5624
I1
sS'"Let\'s'
p5625
I7
sS'stomach.'
p5626
I1
sS'goes'
p5627
I3
sS'bearers'
p5628
I1
sS'valuable."'
p5629
I1
sS'hairy'
p5630
I1
sS'drink.'
p5631
I8
sS'afterwards.'
p5632
I1
sS'water'
p5633
I35
sS'baseball'
p5634
I1
sS'good."'
p5635
I2
sS'say.'
p5636
I1
sS'say,'
p5637
I7
sS'intelligence.'
p5638
I1
sS'"Aren\'t'
p5639
I2
sS'shove'
p5640
I2
sS'healthy'
p5641
I1
sS'"Little'
p5642
I1
sS'Seen'
p5643
I1
sS'drifted.'
p5644
I1
sS'beautiful,'
p5645
I1
sS'beautiful.'
p5646
I3
sS'shaft.'
p5647
I1
sS'myself.'
p5648
I2
sS'myself,'
p5649
I1
sS"It's"
p5650
I14
sS'Velasquez.'
p5651
I1
sS'beer,'
p5652
I3
sS'damnedest'
p5653
I1
sS'myself?'
p5654
I1
sS'"Anyway'
p5655
I1
sS'artillery,'
p5656
I1
sS'wings,'
p5657
I2
sS'handled'
p5658
I1
sS'stated'
p5659
I1
sS'said,"'
p5660
I2
sS'handles'
p5661
I1
sS'frothy'
p5662
I1
sS'today'
p5663
I5
sS'roared'
p5664
I3
sS'October'
p5665
I1
sS'These'
p5666
I1
sS'dining-room.'
p5667
I1
sS'1933,'
p5668
I1
sS'shooting.'
p5669
I1
sS'and,'
p5670
I21
sS'wrong.'
p5671
I1
sS'coral'
p5672
I1
sS'handle?'
p5673
I1
sS'streak'
p5674
I1
sS'figure'
p5675
I2
sS'sense'
p5676
I1
sS'concierge'
p5677
I2
sS'tinted'
p5678
I1
sS'dropped'
p5679
I6
sS'Rafael."'
p5680
I1
sS'papers."'
p5681
I1
sS'lovingly,'
p5682
I1
sS'disliked'
p5683
I1
sS'gunwale.'
p5684
I1
sS'fourth'
p5685
I1
sS'H.'
p5686
I1
sS'dogs,'
p5687
I1
sS'eighty'
p5688
I1
sS'crashed'
p5689
I1
sS'unbelievably'
p5690
I1
sS'speak.'
p5691
I1
sS'reservations,'
p5692
I1
sS'Ospedale'
p5693
I1
sS'ones'
p5694
I3
sS'paid.'
p5695
I1
sS'humanity.'
p5696
I1
sS'down,"'
p5697
I3
sS'weather.'
p5698
I1
sS'dreading'
p5699
I1
sS'eat.'
p5700
I2
sS'Rogelio'
p5701
I1
sS"he's"
p5702
I8
sS"he'd"
p5703
I2
sS'breathed.'
p5704
I1
sS'breathed,'
p5705
I1
sS'tiredness.'
p5706
I1
sS'prisoners'
p5707
I1
sS'happened'
p5708
I6
sS'Cobre.'
p5709
I1
sS'lonely'
p5710
I1
sS'angry,"'
p5711
I1
sS'term'
p5712
I1
sS'falsest'
p5713
I1
sS'name'
p5714
I15
sS'corners'
p5715
I1
sS'wart-hog'
p5716
I1
sS'cry.'
p5717
I2
sS'nodding'
p5718
I1
sS"Foyot's."
p5719
I1
sS'Watched'
p5720
I1
sS"mustn't"
p5721
I1
sS'trunks'
p5722
I2
sS'unprintable,'
p5723
I1
sS'"No'
p5724
I4
sS'Jewish,'
p5725
I1
sS'Madrid.'
p5726
I1
sS'factory'
p5727
I1
sS'too?"'
p5728
I3
sS"shouldn't"
p5729
I2
sS'woolly.'
p5730
I1
sS'whispered,'
p5731
I1
sS'whispered.'
p5732
I1
sS'hull'
p5733
I1
sS'Maria?"'
p5734
I1
sS'skillfully'
p5735
I1
sS'buckskin'
p5736
I1
sS'trunk.'
p5737
I1
sS'importance.'
p5738
I1
sS'motion'
p5739
I1
sS'turn'
p5740
I5
sS'tension.'
p5741
I1
sS'tension,'
p5742
I1
sS'envied'
p5743
I1
sS'be?"'
p5744
I3
sS'awfully'
p5745
I8
sS'merrily'
p5746
I1
sS'California,'
p5747
I1
sS'cheerfully'
p5748
I1
sS'given'
p5749
I5
sS'necessarily'
p5750
I1
sS'cooling'
p5751
I1
sS'fought'
p5752
I1
sS'white'
p5753
I29
sS'hut'
p5754
I2
sS'place,"'
p5755
I1
sS'grunt'
p5756
I1
sS'horses."'
p5757
I4
sS'"Eighty-five'
p5758
I1
sS'give.'
p5759
I2
sS'orchard'
p5760
I2
sS'cards'
p5761
I1
sS'"Got'
p5762
I2
sS'earth.'
p5763
I1
sS'earth,'
p5764
I1
sS'and'
p5765
I1349
sS'convent,'
p5766
I1
sS'Flamands."'
p5767
I1
sS'bulking'
p5768
I2
sS'open."'
p5769
I1
sS'any'
p5770
I54
sS'stern.'
p5771
I2
sS'silhouette'
p5772
I2
sS'ideas'
p5773
I1
sS'dining'
p5774
I4
sS'box."'
p5775
I1
sS'"Far'
p5776
I1
sS'drinks?"'
p5777
I1
sS'pencil.'
p5778
I3
sS'pencil,'
p5779
I2
sS'surf'
p5780
I1
sS'sure'
p5781
I8
sS'lunch."'
p5782
I1
sS'indelibly'
p5783
I1
sS'cleared'
p5784
I1
sS'strength,'
p5785
I2
sS'strength.'
p5786
I1
sS'considered'
p5787
I4
sS'later'
p5788
I4
sS'hungry'
p5789
I2
sS'blushing,"'
p5790
I1
sS'say."'
p5791
I1
sS'beaded'
p5792
I1
sS'dynamite.'
p5793
I1
sS'kids."'
p5794
I1
sS'killed.'
p5795
I1
sS"that's"
p5796
I5
sS'cuddled'
p5797
I1
sS'terrorism.'
p5798
I1
sS'quantity'
p5799
I1
sS'same,'
p5800
I1
sS'gypsy.'
p5801
I6
sS'hack'
p5802
I1
sS"isn't."
p5803
I1
sS'"Sometimes."'
p5804
I1
sS'train."'
p5805
I1
sS'shortly,"'
p5806
I1
sS'hands,'
p5807
I5
sS'joke.'
p5808
I4
sS'written'
p5809
I1
sS'joke,'
p5810
I1
sS'wood'
p5811
I2
sS'panic-stricken,'
p5812
I1
sS'wool'
p5813
I1
sS'dreaded'
p5814
I1
sS'lighted'
p5815
I3
sS'old-timer,"'
p5816
I1
sS"oughtn't"
p5817
I1
sS'pile."Thank'
p5818
I1
sS'braver'
p5819
I1
sS'off,"'
p5820
I2
sS'attitude'
p5821
I2
sS'naked'
p5822
I2
sS'jokes'
p5823
I2
sS'paper'
p5824
I7
sS'dew,'
p5825
I1
sS'connections'
p5826
I1
sS'marvelously,"'
p5827
I1
sS'pernod."'
p5828
I1
sS'all."'
p5829
I5
sS'water?"'
p5830
I5
sS'ways'
p5831
I1
sS'review'
p5832
I2
sS'Mont,'
p5833
I1
sS'spoons'
p5834
I1
sS'outside'
p5835
I9
sS'cafe.'
p5836
I1
sS'yards?"'
p5837
I1
sS'properly,"'
p5838
I1
sS'Natural'
p5839
I1
sS'are!"'
p5840
I1
sS'good-looking'
p5841
I2
sS'comb'
p5842
I1
sS'come'
p5843
I43
sS'Monte'
p5844
I2
sS'his.'
p5845
I1
sS'Kongoni,'
p5846
I1
sS'quiet'
p5847
I1
sS'lazily.'
p5848
I1
sS'columnist'
p5849
I2
sS'way.'
p5850
I4
sS'surface.'
p5851
I2
sS'duty'
p5852
I1
sS"Krum's"
p5853
I1
sS'champion,'
p5854
I1
sS'afterwards'
p5855
I1
sS'color'
p5856
I3
sS"We've"
p5857
I3
sS'pot'
p5858
I2
sS'pop'
p5859
I1
sS'satisfaction'
p5860
I1
sS'"There.'
p5861
I1
sS'Aloysius.'
p5862
I1
sS'swum'
p5863
I1
sS'But'
p5864
I95
sS'engine'
p5865
I2
sS'direction'
p5866
I1
sS'slipover'
p5867
I1
sS'siad.'
p5868
I1
sS'Madame'
p5869
I1
sS'April."'
p5870
I1
sS'careful'
p5871
I4
sS'robber'
p5872
I1
sS'case'
p5873
I2
sS'injustice,"'
p5874
I1
sS'myself'
p5875
I1
sS'clearly.'
p5876
I1
sS'Stetson'
p5877
I1
sS'cast'
p5878
I4
sS'Correspondance'
p5879
I1
sS'life.'
p5880
I6
sS'shops'
p5881
I1
sS'it.'
p5882
I67
sS'someone'
p5883
I1
sS'paying,'
p5884
I1
sS'meals.'
p5885
I1
sS'Division'
p5886
I1
sS'I?'
p5887
I3
sS'type,"'
p5888
I1
sS'happen?"'
p5889
I1
sS'bowl'
p5890
I3
sS'I,'
p5891
I1
sS'I.'
p5892
I1
sS'"Thought'
p5893
I1
sS'week'
p5894
I4
sS'barefoot'
p5895
I1
sS'driver'
p5896
I9
sS'drives'
p5897
I1
sS'horse-chestnut'
p5898
I2
sS'weed'
p5899
I4
sS'delicate'
p5900
I5
sS'statue'
p5901
I2
sS'overwhelmed.'
p5902
I1
sS'o\'clock."'
p5903
I1
sS'overwhelmed,'
p5904
I1
sS'flaked'
p5905
I1
sS'America."'
p5906
I4
sS'bodied'
p5907
I1
sS'Is'
p5908
I2
sS'Toril'
p5909
I1
sS'It'
p5910
I97
sS'bow.'
p5911
I3
sS'she?"'
p5912
I4
sS'without'
p5913
I19
sS'thing,"'
p5914
I2
sS'In'
p5915
I15
sS'If'
p5916
I22
sS'"Never."'
p5917
I1
sS'forceful,'
p5918
I1
sS'kill'
p5919
I9
sS'reality'
p5920
I1
sS'Man,'
p5921
I2
sS'captured'
p5922
I1
sS'blow'
p5923
I14
sS'fish."'
p5924
I1
sS'rose'
p5925
I15
sS'possible,'
p5926
I1
sS'end,"'
p5927
I1
sS'except'
p5928
I16
sS'gym.'
p5929
I1
sS'to-day."'
p5930
I1
sS'rosy'
p5931
I1
sS'haunch.'
p5932
I1
sS'shoving'
p5933
I1
sS'poised'
p5934
I1
sS'bones,'
p5935
I1
sS'sack.'
p5936
I1
sS'guide.'
p5937
I1
sS'that,"'
p5938
I6
sS'kills'
p5939
I2
sS'Many'
p5940
I1
sS'races?"'
p5941
I1
sS'address.'
p5942
I1
sS'walk'
p5943
I9
sS'towed'
p5944
I2
sS'Something'
p5945
I2
sS'always'
p5946
I28
sS'woman,'
p5947
I2
sS'woman.'
p5948
I7
sS'bottles."'
p5949
I1
sS'Memsahib'
p5950
I4
sS'down."'
p5951
I2
sS'respect'
p5952
I1
sS'canteen'
p5953
I1
sS"o'clock"
p5954
I3
sS'moon'
p5955
I3
sS'severed'
p5956
I1
sS'illegal,"'
p5957
I1
sS'Frances,'
p5958
I3
sS'beaches'
p5959
I3
sS'on'
p5960
I251
sS'discussed'
p5961
I1
sS'shrimp'
p5962
I1
sS'livery.'
p5963
I1
sS'stop.'
p5964
I1
sS'stand'
p5965
I5
sS'concentrations'
p5966
I1
sS'or'
p5967
I55
sS'Yes.'
p5968
I1
sS'Yes,'
p5969
I2
sS'before."'
p5970
I1
sS'wine?"'
p5971
I1
sS'cursed'
p5972
I1
sS'rising'
p5973
I2
sS'determine'
p5974
I1
sS'begged'
p5975
I1
sS'flat.'
p5976
I1
sS'flat,'
p5977
I2
sS"Jordan's"
p5978
I1
sS'satisfied,'
p5979
I1
sS'there'
p5980
I75
sS'member,'
p5981
I1
sS'valley'
p5982
I3
sS'fish'
p5983
I66
sS'international,'
p5984
I1
sS'Remember'
p5985
I1
sS'Princeton,'
p5986
I1
sS'Princeton.'
p5987
I3
sS'it?"'
p5988
I15
sS'tracks.'
p5989
I1
sS'tracks,'
p5990
I1
sS'faster'
p5991
I1
sS'wealthier,'
p5992
I1
sS'difficult;'
p5993
I1
sS'ineffectually'
p5994
I1
sS'grass'
p5995
I13
sS'trouble."'
p5996
I1
sS'stock.'
p5997
I1
sS'taste'
p5998
I1
sS'"Baseball'
p5999
I1
sS'pillow,'
p6000
I1
sS'publicly,'
p6001
I1
sS'shaped,'
p6002
I1
sS'Anis'
p6003
I2
sS'delicately,'
p6004
I1
sS'"Caf\xe9'
p6005
I1
sS'millhouse,"'
p6006
I1
sS'cove'
p6007
I1
sS'bullets'
p6008
I2
sS'whipped?"'
p6009
I1
sS'brass'
p6010
I1
sS'"Kiss'
p6011
I1
sS'announcement.'
p6012
I2
sS'wife'
p6013
I26
sS'gunwale'
p6014
I1
sS'curve'
p6015
I1
sS'sword,'
p6016
I1
sS'platter'
p6017
I2
sS'storm-bound'
p6018
I1
sS'swirls'
p6019
I1
sS'wreath'
p6020
I1
sS'son.'
p6021
I1
sS'dish'
p6022
I1
sS'decisions'
p6023
I1
sS'wakened'
p6024
I2
sS'huge,'
p6025
I4
sS'Madeleine'
p6026
I1
sS'"Anselmo,"'
p6027
I1
sS'"We\'d'
p6028
I1
sS'promptly.'
p6029
I1
sS'present'
p6030
I1
sS'crest'
p6031
I1
sS'decision.'
p6032
I2
sS'woman'
p6033
I18
sS'worse'
p6034
I3
sS'far'
p6035
I24
sS'foxes.'
p6036
I1
sS'verbena'
p6037
I1
sS'fat'
p6038
I1
sS'Still,'
p6039
I2
sS'singer?"'
p6040
I1
sS'worst'
p6041
I1
sS'awful'
p6042
I2
sS'bubbles'
p6043
I1
sS'soles'
p6044
I1
sS'sentimental'
p6045
I1
sS'bolts.'
p6046
I1
sS'Institute."'
p6047
I1
sS'Pablo?'
p6048
I1
sS'say,"'
p6049
I1
sS'Pablo,'
p6050
I3
sS'Mumms.'
p6051
I1
sS'Pablo.'
p6052
I13
sS'cervezas,"'
p6053
I1
sS'hunted,"'
p6054
I1
sS'ten'
p6055
I3
sS'somewhere.'
p6056
I1
sS'rate'
p6057
I1
sS'McGraw."'
p6058
I1
sS'East'
p6059
I1
sS'necessary,'
p6060
I1
sS'what'
p6061
I61
sS'necessary.'
p6062
I1
sS'lasted.'
p6063
I1
sS'sun'
p6064
I24
sS'doorless,'
p6065
I1
sS'train,"'
p6066
I1
sS'fathoms'
p6067
I5
sS'racing'
p6068
I1
sS'guns'
p6069
I1
sS'condensed'
p6070
I1
sS'outstretched,'
p6071
I1
sS'skidded'
p6072
I1
sS'gun.'
p6073
I3
sS'gun,'
p6074
I1
sS'gun-'
p6075
I1
sS'Absolutely'
p6076
I1
sS'presented,'
p6077
I1
sS'cucumbers'
p6078
I1
sS'rope."'
p6079
I1
sS'"Behave'
p6080
I1
sS'Yon'
p6081
I1
sS'suddenly'
p6082
I11
sS'know?'
p6083
I1
sS'world."'
p6084
I1
sS'screens'
p6085
I1
sS'dancing-club'
p6086
I1
sS'armoire'
p6087
I1
sS'Too'
p6088
I1
sS'know.'
p6089
I19
sS'know,'
p6090
I3
sS'always.'
p6091
I1
sS'tarpaulin'
p6092
I1
sS'widens'
p6093
I1
sS'permanently'
p6094
I1
sS'Yankees'
p6095
I3
sS'horses'
p6096
I16
sS'flat'
p6097
I8
sS'flap'
p6098
I1
sS'feeding.'
p6099
I1
sS"Mayn't"
p6100
I1
sS'flag'
p6101
I1
sS'stick'
p6102
I3
sS'known'
p6103
I9
sS'"Rafael.'
p6104
I1
sS'glad'
p6105
I1
sS'"Gypsies'
p6106
I1
sS'champion.'
p6107
I1
sS'ineffectual'
p6108
I1
sS'Tomorrow'
p6109
I2
sS'swinging'
p6110
I3
sS'division'
p6111
I1
sS'imitation'
p6112
I1
sS'swung'
p6113
I5
sS'court'
p6114
I2
sS'rather'
p6115
I19
sS'breaking'
p6116
I2
sS'cough."'
p6117
I1
sS'"Last'
p6118
I2
sS'mould'
p6119
I1
sS'funny.'
p6120
I5
sS'rained,'
p6121
I1
sS'adventure'
p6122
I1
sS'with."'
p6123
I1
sS'handsome.'
p6124
I1
sS'short'
p6125
I6
sS'departure'
p6126
I1
sS'shore'
p6127
I1
sS'shade'
p6128
I5
sS'khaki,'
p6129
I1
sS'hand?"'
p6130
I1
sS"don't"
p6131
I76
sS'"if'
p6132
I1
sS'mission'
p6133
I1
sS'comes?"'
p6134
I1
sS'francs,"'
p6135
I1
sS'avenue'
p6136
I1
sS'"is'
p6137
I1
sS'already,'
p6138
I1
sS'strange'
p6139
I12
sS'Hast'
p6140
I1
sS'rounds,'
p6141
I1
sS'might'
p6142
I16
sS'somebody'
p6143
I2
sS'little.'
p6144
I5
sS'hunter'
p6145
I3
sS'framework'
p6146
I1
sS'Also,'
p6147
I1
sS'hunted'
p6148
I4
sS'shifty,'
p6149
I1
sS'Rafael'
p6150
I4
sS'bigger'
p6151
I2
sS'policeman'
p6152
I2
sS'weighs'
p6153
I2
sS'weight'
p6154
I10
sS'needless'
p6155
I1
sS'many?"'
p6156
I1
sS'half-garland'
p6157
I1
sS'loops'
p6158
I2
sS'plates,"'
p6159
I1
sS'Sainte'
p6160
I1
sS'wondered'
p6161
I2
sS'Capucines'
p6162
I1
sS'Tigers'
p6163
I1
sS'hill'
p6164
I2
sS'end."'
p6165
I1
sS'nothing,"'
p6166
I2
sS'"Also,'
p6167
I1
sS'"Hola,"'
p6168
I1
sS'teach'
p6169
I1
sS'taxis."'
p6170
I1
sS'bushes'
p6171
I1
sS'thread'
p6172
I2
sS'Flemish'
p6173
I1
sS'taxi.'
p6174
I2
sS'earlier,"'
p6175
I1
sS'properly,'
p6176
I1
sS'twenty'
p6177
I1
sS'fallen'
p6178
I1
sS'solidly'
p6179
I1
sS'feed'
p6180
I3
sS'"Lot'
p6181
I1
sS'seeming'
p6182
I3
sS'feel'
p6183
I26
sS'churning'
p6184
I1
sS'feet'
p6185
I6
sS'sun-faded'
p6186
I1
sS'revolution'
p6187
I1
sS'different,"'
p6188
I1
sS'soapy'
p6189
I1
sS'"Stay'
p6190
I2
sS'harbours'
p6191
I1
sS'passes'
p6192
I1
sS'story'
p6193
I2
sS'"'
I2
sS'leading'
p6194
I1
sS'rails'
p6195
I1
sS'aim,'
p6196
I1
sS'storm'
p6197
I1
sS'temptations'
p6198
I1
sS'hotel'
p6199
I1
sS'portrait-painter,'
p6200
I1
sS'choice,"'
p6201
I1
sS'Terrace?"'
p6202
I1
sS'rifle'
p6203
I7
sS'kind'
p6204
I5
sS'face,"'
p6205
I1
sS'"Should'
p6206
I3
sS'double'
p6207
I5
sS'insulted'
p6208
I1
sS'baseball?"'
p6209
I1
sS'hair,'
p6210
I5
sS'exert'
p6211
I1
sS'mean?"'
p6212
I2
sS'nights'
p6213
I2
sS"l'Avenue's"
p6214
I1
sS'Seine'
p6215
I2
sS'cropped'
p6216
I2
sS'damnedest.'
p6217
I1
sS'puffing'
p6218
I1
sS'me."'
p6219
I15
sS'buff'
p6220
I4
sS'added'
p6221
I2
sS'critics'
p6222
I1
sS'electric'
p6223
I2
sS'correspondents,'
p6224
I1
sS'reach'
p6225
I1
sS'Hudson.'
p6226
I1
sS'cigarette'
p6227
I1
sS'enduring'
p6228
I1
sS'nothing'
p6229
I17
sS'strange!"'
p6230
I1
sS'tongue.'
p6231
I4
sS'soared'
p6232
I1
sS'windows'
p6233
I2
sS'night!'
p6234
I1
sS'interfere.'
p6235
I1
sS'day,'
p6236
I1
sS'Street."'
p6237
I1
sS'night,'
p6238
I3
sS'night.'
p6239
I5
sS'fond'
p6240
I1
sS're-defined'
p6241
I1
sS'miniature-painter.'
p6242
I1
sS'Then,'
p6243
I3
sS'tents.'
p6244
I1
sS'grievance.'
p6245
I1
sS'his'
p6246
I395
sS'hit'
p6247
I7
sS"Sisler's"
p6248
I1
sS'longest'
p6249
I1
sS'shared'
p6250
I2
sS'journey.'
p6251
I1
sS'him'
p6252
I184
sS'whisky.'
p6253
I1
sS'packs,'
p6254
I1
sS'"Dynamite,"'
p6255
I1
sS'pain,'
p6256
I1
sS'desert.'
p6257
I1
sS'wrote'
p6258
I3
sS'bars'
p6259
I1
sS'art'
p6260
I5
sS'cocher'
p6261
I1
sS'himself,"'
p6262
I1
sS'bare'
p6263
I1
sS'are'
p6264
I111
sS'explosion'
p6265
I1
sS'arm'
p6266
I8
sS'leaving.'
p6267
I1
sS'slapped'
p6268
I2
sS'various'
p6269
I1
sS'"yes.'
p6270
I1
sS'sold'
p6271
I1
sS'sole'
p6272
I1
sS'wonder.'
p6273
I1
sS'days.'
p6274
I1
sS'rapid'
p6275
I1
sS'there,"'
p6276
I4
sS'bar,'
p6277
I4
sS'bar.'
p6278
I8
sS'patronne'
p6279
I2
sS'beaches,'
p6280
I1
sS'became'
p6281
I6
sS'philosophically.'
p6282
I1
sS'going."'
p6283
I1
sS'flies'
p6284
I1
sS'knew,'
p6285
I1
sS'knew.'
p6286
I1
sS'sweet'
p6287
I2
sS'pine-needled'
p6288
I1
sS'"An'
p6289
I1
sS'village'
p6290
I1
sS'these."'
p6291
I2
sS'there,'
p6292
I3
sS'there.'
p6293
I8
sS'dug'
p6294
I1
sS'whom'
p6295
I3
sS'them,"'
p6296
I1
sS'woke'
p6297
I6
sS'flight'
p6298
I1
sS'crisp,'
p6299
I1
sS'"Thanks,'
p6300
I3
sS'fortuna!"'
p6301
I1
sS'cross,"'
p6302
I1
sS'"Finish'
p6303
I1
sS'sweating,'
p6304
I1
sS'new-leaved'
p6305
I1
sS'frozen'
p6306
I1
sS'lips.'
p6307
I1
sS'crazy,"'
p6308
I2
sS'rid'
p6309
I2
sS'chauffeur'
p6310
I2
sS'away.'
p6311
I8
sS'away,'
p6312
I7
sS'shirt'
p6313
I5
sS'windows,'
p6314
I1
sS'windows.'
p6315
I1
sS'Jordan,'
p6316
I5
sS'Jordan.'
p6317
I12
sS'current,'
p6318
I1
sS'About'
p6319
I1
sS'current.'
p6320
I4
sS'restraint'
p6321
I1
sS'flows'
p6322
I1
sS'factory;'
p6323
I1
sS'moving'
p6324
I14
sS'everybody."'
p6325
I1
sS'Crossing'
p6326
I1
sS'sake,"'
p6327
I2
sS'lower'
p6328
I3
sS'congregated'
p6329
I1
sS'220-grain'
p6330
I1
sS'people,'
p6331
I1
sS'people.'
p6332
I6
sS'cheek'
p6333
I1
sS'anybody'
p6334
I5
sS'cheer'
p6335
I1
sS'edge'
p6336
I16
sS'Terrace'
p6337
I3
sS'riffle'
p6338
I1
sS'alpargatas,'
p6339
I1
sS'"Perhaps,"'
p6340
I1
sS'anything."'
p6341
I5
sS'Wonderful'
p6342
I1
sS"We're"
p6343
I2
sS'questions'
p6344
I4
sS'complain.'
p6345
I1
sS'tables'
p6346
I5
sS'loading'
p6347
I2
sS'Francaise'
p6348
I1
sS'shape.'
p6349
I1
sS'beer.'
p6350
I2
sS'Last'
p6351
I1
sS'French.'
p6352
I1
sS'careless.'
p6353
I1
sS'table?'
p6354
I1
sS'marlin'
p6355
I3
sS'table.'
p6356
I12
sS'table,'
p6357
I3
sS'start?"'
p6358
I1
sS'jump,'
p6359
I1
sS'gloomily.'
p6360
I2
sS'saucer'
p6361
I5
sS'women,'
p6362
I2
sS'women.'
p6363
I1
sS'trade,"'
p6364
I1
sS'"His'
p6365
I1
sS'eland,"'
p6366
I1
sS'jumpy'
p6367
I2
sS'sauce,'
p6368
I1
sS'sauce.'
p6369
I1
sS'come,"'
p6370
I2
sS'jumps'
p6371
I1
sS'shuddering,'
p6372
I1
sS'Maggiore'
p6373
I1
sS'Damned'
p6374
I3
sS'hairless,'
p6375
I1
sS'cheered'
p6376
I1
sS'lucky.'
p6377
I1
sS'range'
p6378
I1
sS'here."'
p6379
I7
sS'hatred'
p6380
I3
sS'Quarter."'
p6381
I2
sS'Everything'
p6382
I2
sS'Leblanc,'
p6383
I2
sS'drifted'
p6384
I1
sS'"No,"'
p6385
I20
sS'impressed'
p6386
I1
sS'extremely'
p6387
I3
sS'long'
p6388
I37
sS'nothing."'
p6389
I2
sS'laughed,'
p6390
I2
sS"we're"
p6391
I1
sS'laughed.'
p6392
I5
sS'buffalo,"'
p6393
I1
sS'noted.'
p6394
I1
sS'mountains'
p6395
I6
sS'mustache,'
p6396
I1
sS'raising'
p6397
I2
sS"hasn't"
p6398
I3
sS'ands'
p6399
I2
sS'Cruise'
p6400
I1
sS'fried'
p6401
I1
sS'called'
p6402
I16
sS'row.'
p6403
I2
sS'remember?"'
p6404
I1
sS'steeper'
p6405
I1
sS'lemon'
p6406
I1
sS'tentative'
p6407
I1
sS'weight,'
p6408
I1
sS'backs'
p6409
I3
sS'nice'
p6410
I14
sS'Showed'
p6411
I1
sS'eighty-fifth'
p6412
I1
sS'backbone'
p6413
I1
sS'fights,'
p6414
I1
sS'breasts'
p6415
I1
sS'charged.'
p6416
I1
sS'Alexander'
p6417
I1
sS'General."'
p6418
I1
sS'back.'
p6419
I8
sS'back,'
p6420
I3
sS'buffalo'
p6421
I4
sS'once'
p6422
I10
sS'sometimes.'
p6423
I1
sS'fine,"'
p6424
I1
sS'finish."'
p6425
I1
sS'long-bodied'
p6426
I1
sS'crashing,'
p6427
I1
sS'clean.'
p6428
I1
sS'deal,'
p6429
I1
sS'"Can\'t'
p6430
I5
sS'me,"'
p6431
I9
sS'station,"'
p6432
I1
sS'waiters'
p6433
I1
sS'breathing'
p6434
I2
sS'duty,"'
p6435
I1
sS'wind.'
p6436
I3
sS'wind-'
p6437
I1
sS'unscrewed'
p6438
I1
sS'agua'
p6439
I1
sS'hook.'
p6440
I1
sS'hook,'
p6441
I1
sS'bounding'
p6442
I1
sS'drinking'
p6443
I2
sS'aid."'
p6444
I1
sS'quietly.'
p6445
I3
sS'quietly,'
p6446
I1
sS'agency.'
p6447
I1
sS'shameful.'
p6448
I1
sS"week's"
p6449
I1
sS'dealt'
p6450
I1
sS'noted'
p6451
I1
sS'minutes?"'
p6452
I1
sS"you'd"
p6453
I2
sS'rim-rock'
p6454
I2
sS'fisherman,'
p6455
I1
sS'fisherman.'
p6456
I1
sS'furled,'
p6457
I1
sS'set,'
p6458
I1
sS'worry?"'
p6459
I1
sS'shade.'
p6460
I1
sS'waiting'
p6461
I7
sS'shade,'
p6462
I1
sS'large.'
p6463
I1
sS'ammunition'
p6464
I1
sS'restaurant,'
p6465
I1
sS'chose'
p6466
I1
sS'pushing'
p6467
I3
sS'restaurant.'
p6468
I1
sS'freshening'
p6469
I1
sS'fold.'
p6470
I1
sS'oars'
p6471
I6
sS'die?"'
p6472
I1
sS'larger'
p6473
I2
sS'shades'
p6474
I1
sS'ones.'
p6475
I4
sS'leaving'
p6476
I3
sS'"Hardly."'
p6477
I1
sS'Johnsons'
p6478
I1
sS'shaded'
p6479
I1
sS'horse-cabs'
p6480
I1
sS'Robert'
p6481
I124
sS'shoved'
p6482
I1
sS'himself."'
p6483
I1
sS'"They\'re'
p6484
I4
sS'"Look,"'
p6485
I1
sS'duck'
p6486
I1
sS'doubtfully'
p6487
I1
sS"She's"
p6488
I4
sS'use'
p6489
I5
sS'lottery'
p6490
I1
sS'stream'
p6491
I16
sS'few'
p6492
I6
sS'sort'
p6493
I13
sS'hard,'
p6494
I1
sS'Rotonde.'
p6495
I2
sS'hard.'
p6496
I1
sS'Rotonde,'
p6497
I1
sS'up-stairs.'
p6498
I1
sS'realize,"'
p6499
I2
sS'sore'
p6500
I1
sS'rabbit'
p6501
I3
sS'am?"'
p6502
I1
sS'bitterly.'
p6503
I1
sS'red.'
p6504
I1
sS'women'
p6505
I6
sS'happily."'
p6506
I1
sS'us.'
p6507
I7
sS'us,'
p6508
I3
sS'bare-footed'
p6509
I1
sS'anywhere'
p6510
I1
sS'"Must'
p6511
I2
sS'imperceptible.'
p6512
I1
sS'thirsty'
p6513
I1
sS'going,"'
p6514
I2
sS'slacks,'
p6515
I1
sS'something'
p6516
I28
sS'surge'
p6517
I1
sS'onions'
p6518
I2
sS'greatest."'
p6519
I1
sS'sit'
p6520
I7
sS'six'
p6521
I5
sS'panic'
p6522
I2
sS'typewriter'
p6523
I1
sS'tension'
p6524
I1
sS'fianc\xe9e'
p6525
I1
sS'I?"'
p6526
I2
sS'forks.'
p6527
I1
sS'forks,'
p6528
I1
sS'"Yes,'
p6529
I10
sS'"Yes.'
p6530
I13
sS'moving,'
p6531
I1
sS'moving.'
p6532
I1
sS'bright?"'
p6533
I1
sS'"Avila.'
p6534
I1
sS'light'
p6535
I21
sS'straps'
p6536
I1
sS'"Black'
p6537
I1
sS'crawling'
p6538
I2
sS'eyepieces'
p6539
I1
sS'aimed'
p6540
I3
sS'coolly'
p6541
I1
sS'understand?"'
p6542
I1
sS'orange.'
p6543
I1
sS'crazy."'
p6544
I1
sS'looks'
p6545
I3
sS'tables,'
p6546
I1
sS'heavily,'
p6547
I1
sS'world;'
p6548
I1
sS'baseball.'
p6549
I2
sS'covered'
p6550
I6
sS'world.'
p6551
I1
sS'violating'
p6552
I1
sS'crash'
p6553
I3
sS'up-take,"'
p6554
I1
sS'flour'
p6555
I1
sS'material'
p6556
I1
sS'flew'
p6557
I1
sS'nose.'
p6558
I2
sS'Can'
p6559
I3
sS'Mippipopolous,'
p6560
I2
sS'"Art'
p6561
I1
sS'yesterday.'
p6562
I1
sS'by,'
p6563
I2
sS'good-by.'
p6564
I1
sS'"Are'
p6565
I6
sS'trap'
p6566
I3
sS'individually.'
p6567
I1
sS'unbelievable'
p6568
I4
sS'related'
p6569
I1
sS'months."'
p6570
I1
sS'our'
p6571
I5
sS'anything,"'
p6572
I3
sS'out'
p6573
I120
sS'Dingo.'
p6574
I1
sS'Braddocks'
p6575
I19
sS'should?"'
p6576
I1
sS'everybody,"'
p6577
I1
sS'despairing'
p6578
I1
sS'This'
p6579
I15
sS'promptly'
p6580
I1
sS'identity?"'
p6581
I1
sS'Brett!"'
p6582
I1
sS'hence'
p6583
I1
sS'Pauvre'
p6584
I1
sS'eating?"'
p6585
I1
sS'Remember,'
p6586
I2
sS'sickness,'
p6587
I1
sS'called?'
p6588
I1
sS'called:'
p6589
I1
sS'elephant."'
p6590
I1
sS'called.'
p6591
I1
sS"doesn't"
p6592
I12
sS'"Absolutely'
p6593
I1
sS'publication'
p6594
I1
sS'nerves'
p6595
I1
sS'Italian.'
p6596
I2
sS'their'
p6597
I59
sS'difference,"'
p6598
I1
sS'enough.'
p6599
I2
sS'enough,'
p6600
I2
sS'"We'
p6601
I18
sS'shelf'
p6602
I2
sS'thoughtless?'
p6603
I1
sS'"Perhaps'
p6604
I2
sS'name-"'
p6605
I1
sS'not?"'
p6606
I9
sS'here,"'
p6607
I6
sS'States?"'
p6608
I1
sS'levelled'
p6609
I1
sS'purple,'
p6610
I1
sS'afraid'
p6611
I6
sS'angle'
p6612
I1
sS'After'
p6613
I3
sS'comfortable.'
p6614
I3
sS'den.'
p6615
I1
sS'which'
p6616
I21
sS'once."'
p6617
I1
sS'patchy'
p6618
I1
sS'who'
p6619
I57
sS'"Less'
p6620
I1
sS'cracking'
p6621
I1
sS'class'
p6622
I1
sS'"No."'
p6623
I5
sS'saddest'
p6624
I1
sS'pipe'
p6625
I1
sS'pupil.'
p6626
I1
sS'just-cool'
p6627
I1
sS'word,'
p6628
I1
sS'agreed'
p6629
I1
sS'horse-cab'
p6630
I1
sS'one,'
p6631
I5
sS'one.'
p6632
I12
sS'purely'
p6633
I1
sS'utter'
p6634
I1
sS'fear'
p6635
I6
sS'eyes'
p6636
I29
sS'pleased'
p6637
I1
sS'true,'
p6638
I1
sS'Quarter.'
p6639
I1
sS'belt,'
p6640
I1
sS'dancing-club.'
p6641
I1
sS'local'
p6642
I2
sS'agree.'
p6643
I1
sS'watching'
p6644
I14
sS'bays,'
p6645
I2
sS'"Neither'
p6646
I1
sS'chance.'
p6647
I2
sS'words'
p6648
I1
sS'married'
p6649
I5
sS'good-looking.'
p6650
I1
sS'saucers'
p6651
I2
sS'Strasbourg?'
p6652
I1
sS"fine.'"
p6653
I1
sS'fine."'
p6654
I2
sS'publisher.'
p6655
I1
sS'White'
p6656
I1
sS'around."'
p6657
I3
sS'ground,'
p6658
I2
sS'ground.'
p6659
I2
sS'mirrors,'
p6660
I1
sS'here?"'
p6661
I1
sS"Bank's"
p6662
I1
sS'bullets,'
p6663
I2
sS'beer?"'
p6664
I1
sS'closed'
p6665
I3
sS'bought'
p6666
I3
sS'publishers'
p6667
I1
sS'Hobin,"'
p6668
I1
sS'opening'
p6669
I6
sS'job'
p6670
I1
sS'spoil'
p6671
I2
sS'friends?"'
p6672
I1
sS'commands'
p6673
I1
sS'eyes,'
p6674
I4
sS'Strain'
p6675
I1
sS'grain'
p6676
I4
sS'"Brussels,'
p6677
I1
sS'close.'
p6678
I1
sS'awake?"'
p6679
I1
sS'wall'
p6680
I5
sS'Cohn,'
p6681
I5
sS'Cohn.'
p6682
I4
sS'earliest\x97about'
p6683
I1
sS'Finally'
p6684
I1
sS'confronts'
p6685
I1
sS'narrowed'
p6686
I1
sS'unhappiness'
p6687
I1
sS'brioche.'
p6688
I1
sS'decent'
p6689
I1
sS'window'
p6690
I1
sS'choice,'
p6691
I1
sS'semaphore'
p6692
I1
sS'corner.'
p6693
I1
sS'boxers.'
p6694
I1
sS'beads,'
p6695
I1
sS'tobacco?"'
p6696
I1
sS'pas,"'
p6697
I1
sS'corner,'
p6698
I1
sS'park."'
p6699
I1
sS'painted'
p6700
I1
sS'collar.'
p6701
I1
sS'smoothly.'
p6702
I1
sS'turtle-ing.'
p6703
I1
sS'improved'
p6704
I1
sS'Pablo?"'
p6705
I2
sS'unlike'
p6706
I1
sS'will'
p6707
I97
sS'hunter,'
p6708
I1
sS'hunter.'
p6709
I2
sS'wild'
p6710
I3
sS'"But'
p6711
I32
sS'province,'
p6712
I1
sS'photographs,'
p6713
I1
sS'shaky.'
p6714
I1
sS'climbing,'
p6715
I1
sS'"What'
p6716
I53
sS'unintelligent'
p6717
I1
sS'bridge?"'
p6718
I3
sS'after?"'
p6719
I1
sS'days."'
p6720
I2
sS'Hope'
p6721
I2
sS'education'
p6722
I1
sS'apart.'
p6723
I1
sS'perhaps'
p6724
I10
sS'cross'
p6725
I3
sS'these.'
p6726
I2
sS'member'
p6727
I1
sS'gets'
p6728
I5
sS'seriously-"'
p6729
I1
sS'difficult'
p6730
I4
sS'Op\xe9ra,'
p6731
I1
sS'get.'
p6732
I1
sS'whole'
p6733
I10
sS'banging'
p6734
I1
sS'Contrescarpe,'
p6735
I1
sS'Never'
p6736
I1
sS'cried'
p6737
I1
sS'heavily'
p6738
I2
sS'fishing'
p6739
I3
sS'circularizing'
p6740
I1
sS'disturbance'
p6741
I1
sS'"Five'
p6742
I1
sS'Far'
p6743
I1
sS'poisonings'
p6744
I1
sS'point'
p6745
I4
sS'sky'
p6746
I1
sS'Club,'
p6747
I1
sS'other'
p6748
I47
sS'attractive'
p6749
I4
sS'tawny'
p6750
I2
sS'came,'
p6751
I2
sS'Greek'
p6752
I2
sS"who's"
p6753
I1
sS'know'
p6754
I69
sS'knot'
p6755
I1
sS'"You\'ll'
p6756
I3
sS'annulled?'
p6757
I1
sS'because'
p6758
I25
sS'smoothly'
p6759
I2
sS'beg."'
p6760
I1
sS'searching'
p6761
I1
sS'growth'
p6762
I1
sS'lead'
p6763
I1
sS'American.'
p6764
I1
sS'American?'
p6765
I1
sS'leader'
p6766
I3
sS'trout'
p6767
I1
sS'"Heard'
p6768
I1
sS'ripped'
p6769
I2
sS'Zizi,"'
p6770
I1
sS'obey'
p6771
I1
sS'platform.'
p6772
I1
sS'elevator.'
p6773
I1
sS'P\xe8res.'
p6774
I1
sS'acts,'
p6775
I1
sS'carried'
p6776
I15
sS'getting'
p6777
I15
sS'himself,'
p6778
I4
sS'himself.'
p6779
I9
sS'urged'
p6780
I1
sS'Below,'
p6781
I1
sS'mine.'
p6782
I2
sS'Americans'
p6783
I1
sS'sweat'
p6784
I3
sS'Really'
p6785
I1
sS'own'
p6786
I11
sS'weather'
p6787
I3
sS'promise'
p6788
I2
sS'long-winged'
p6789
I1
sS'Tembo'
p6790
I1
sS'"Which'
p6791
I1
sS"Brett's"
p6792
I5
sS'alongside.'
p6793
I1
sS'"From'
p6794
I2
sS'town,"'
p6795
I1
sS"sod's"
p6796
I1
sS'dynamite'
p6797
I2
sS'pounds?"'
p6798
I2
sS'shank'
p6799
I2
sS'Detroit'
p6800
I1
sS'"Hello,"'
p6801
I1
sS'north-east.'
p6802
I1
sS'Bal.'
p6803
I2
sS'clients.'
p6804
I1
sS'made'
p6805
I71
sS'Ten'
p6806
I1
sS'whether'
p6807
I6
sS'attempt.'
p6808
I1
sS'this,'
p6809
I2
sS'this.'
p6810
I5
sS'coughing'
p6811
I3
sS'below'
p6812
I6
sS'Golz'
p6813
I16
sS'divorces?"'
p6814
I1
sS'another."'
p6815
I3
sS'stirring'
p6816
I1
sS'"Two'
p6817
I1
sS'trotting'
p6818
I1
sS'trailing'
p6819
I2
sS'naming'
p6820
I1
sS'diplomat'
p6821
I1
sS'Carmel,'
p6822
I1
sS'myself."'
p6823
I2
sS'sensibly,"'
p6824
I1
sS'book'
p6825
I7
sS'Five'
p6826
I1
sS'sick'
p6827
I4
sS'Maria'
p6828
I2
sS'headquarters.'
p6829
I1
sS'Barnes!'
p6830
I2
sS'Chicago,'
p6831
I1
sS'cliff'
p6832
I1
sS'coffee.'
p6833
I4
sS'coffee,'
p6834
I1
sS'"Silly'
p6835
I1
s.