(dp1
I0
I236
sI1
I442
sI2
I421
sI3
I351
sI4
I280
sI5
I247
sI6
I208
sI7
I169
sI8
I131
sI9
I107
sI10
I90
sI11
I80
sI12
I65
sI13
I67
sI14
I67
sI15
I48
sI16
I42
sI17
I42
sI18
I33
sI19
I39
sI20
I27
sI21
I30
sI22
I16
sI23
I16
sI24
I14
sI25
I15
sI26
I17
sI27
I14
sI28
I20
sI29
I9
sI30
I8
sI31
I14
sI32
I10
sI33
I8
sI34
I6
sI35
I7
sI36
I9
sI37
I6
sI38
I4
sI39
I10
sI40
I4
sI41
I5
sI42
I6
sI43
I3
sI44
I6
sI45
I2
sI46
I1
sI47
I2
sI48
I3
sI49
I4
sI50
I2
sI52
I1
sI54
I1
sI55
I1
sI56
I1
sI58
I1
sI59
I2
sI60
I1
sI62
I3
sI65
I1
sI66
I3
sI67
I1
sI68
I1
sI70
I1
sI72
I2
sI74
I1
sI78
I1
sI82
I1
sI214
I1
sI231
I1
s.