(dp1
I0
I160
sI1
I326
sI2
I324
sI3
I269
sI4
I284
sI5
I224
sI6
I210
sI7
I193
sI8
I182
sI9
I159
sI10
I113
sI11
I129
sI12
I101
sI13
I104
sI14
I86
sI15
I68
sI16
I65
sI17
I55
sI18
I53
sI19
I41
sI20
I28
sI21
I33
sI22
I23
sI23
I30
sI24
I17
sI25
I15
sI26
I12
sI27
I14
sI28
I12
sI29
I7
sI30
I7
sI31
I11
sI32
I11
sI33
I2
sI34
I3
sI35
I2
sI36
I2
sI37
I3
sI38
I2
sI39
I3
sI43
I1
sI45
I1
sI49
I1
sI50
I1
sI52
I1
sI53
I1
sI56
I2
s.